---
triple:          'arm64-apple-darwin'
binary-path:     '/Users/julien/Documents/perso/dev/abyss/abyss'
relocations:
  - { offsetInCU: 0x4C, offset: 0x4C, size: 0x8, addend: 0x0, symName: __ZN7Globals8APP_PATHE, symObjAddr: 0x43640, symBinAddr: 0x10006C008, symSize: 0x0 }
  - { offsetInCU: 0x340D, offset: 0x340D, size: 0x8, addend: 0x0, symName: __ZNSt3__16chronomiB7v160006IxNS_5ratioILl1ELl1000000EEExS3_EENS_11common_typeIJNS0_8durationIT_T0_EENS5_IT1_T2_EEEE4typeERKS8_RKSB_, symObjAddr: 0x28C8, symBinAddr: 0x100003B74, symSize: 0x70 }
  - { offsetInCU: 0x347A, offset: 0x347A, size: 0x8, addend: 0x0, symName: __ZNSt3__16chrono13duration_castB7v160006INS0_8durationIxNS_5ratioILl1ELl1000000EEEEExS4_EENS_9enable_ifIXsr13__is_durationIT_EE5valueES7_E4typeERKNS2_IT0_T1_EE, symObjAddr: 0xE54, symBinAddr: 0x100002100, symSize: 0x30 }
  - { offsetInCU: 0x34C1, offset: 0x34C1, size: 0x8, addend: 0x0, symName: __ZNSt3__16chronomiB7v160006INS0_12system_clockENS0_8durationIxNS_5ratioILl1ELl1000000EEEEES6_EENS_11common_typeIJT0_T1_EE4typeERKNS0_10time_pointIT_S8_EERKNSC_ISD_S9_EE, symObjAddr: 0xE84, symBinAddr: 0x100002130, symSize: 0x58 }
  - { offsetInCU: 0x3516, offset: 0x3516, size: 0x8, addend: 0x0, symName: __ZNSt3__16chronogtB7v160006IxNS_5ratioILl1ELl1000000EEElS3_EEbRKNS0_8durationIT_T0_EERKNS4_IT1_T2_EE, symObjAddr: 0xF18, symBinAddr: 0x1000021C4, symSize: 0x30 }
  - { offsetInCU: 0x35C2, offset: 0x35C2, size: 0x8, addend: 0x0, symName: __ZNSt3__16chrono13duration_castB7v160006INS0_8durationIlNS_5ratioILl1ELl1000000EEEEExS4_EENS_9enable_ifIXsr13__is_durationIT_EE5valueES7_E4typeERKNS2_IT0_T1_EE, symObjAddr: 0x10A8, symBinAddr: 0x100002354, symSize: 0x30 }
  - { offsetInCU: 0x3654, offset: 0x3654, size: 0x8, addend: 0x0, symName: __ZNSt3__16chronoltB7v160006IlNS_5ratioILl1ELl1000000EEExS3_EEbRKNS0_8durationIT_T0_EERKNS4_IT1_T2_EE, symObjAddr: 0x117C, symBinAddr: 0x100002428, symSize: 0x34 }
  - { offsetInCU: 0x36B5, offset: 0x36B5, size: 0x8, addend: 0x0, symName: __ZNSt3__16chrono13duration_castB7v160006INS0_8durationIxNS_5ratioILl1ELl1000000EEEEElS4_EENS_9enable_ifIXsr13__is_durationIT_EE5valueES7_E4typeERKNS2_IT0_T1_EE, symObjAddr: 0x12A8, symBinAddr: 0x100002554, symSize: 0x30 }
  - { offsetInCU: 0x7E73, offset: 0x7E73, size: 0x8, addend: 0x0, symName: __ZNSt3__124__put_character_sequenceB7v160006IcNS_11char_traitsIcEEEERNS_13basic_ostreamIT_T0_EES7_PKS4_m, symObjAddr: 0x1BEC, symBinAddr: 0x100002E98, symSize: 0x1EC }
  - { offsetInCU: 0x97B1, offset: 0x97B1, size: 0x8, addend: 0x0, symName: __ZNSt3__1lsB7v160006INS_11char_traitsIcEEEERNS_13basic_ostreamIcT_EES6_PKc, symObjAddr: 0xBA0, symBinAddr: 0x100001E4C, symSize: 0x48 }
  - { offsetInCU: 0x9B3A, offset: 0x9B3A, size: 0x8, addend: 0x0, symName: __ZNSt3__1lsB7v160006IcNS_11char_traitsIcEENS_9allocatorIcEEEERNS_13basic_ostreamIT_T0_EES9_RKNS_12basic_stringIS6_S7_T1_EE, symObjAddr: 0xCD4, symBinAddr: 0x100001F80, symSize: 0x4C }
  - { offsetInCU: 0x9B92, offset: 0x9B92, size: 0x8, addend: 0x0, symName: __ZNSt3__14endlB7v160006IcNS_11char_traitsIcEEEERNS_13basic_ostreamIT_T0_EES7_, symObjAddr: 0xD7C, symBinAddr: 0x100002028, symSize: 0x58 }
  - { offsetInCU: 0x9C66, offset: 0x9C66, size: 0x8, addend: 0x0, symName: __ZNSt3__118__debug_db_erase_cB7v160006INS_6vectorIP6WindowNS_9allocatorIS3_EEEEEEvPT_, symObjAddr: 0x15B4, symBinAddr: 0x100002860, symSize: 0x10 }
  - { offsetInCU: 0x9C97, offset: 0x9C97, size: 0x8, addend: 0x0, symName: __ZNSt3__112__to_addressB7v160006IP6WindowEEPT_S4_, symObjAddr: 0x16F8, symBinAddr: 0x1000029A4, symSize: 0x14 }
  - { offsetInCU: 0x9CCC, offset: 0x9CCC, size: 0x8, addend: 0x0, symName: __ZNSt3__119__libcpp_deallocateB7v160006EPvmm, symObjAddr: 0x1818, symBinAddr: 0x100002AC4, symSize: 0x30 }
  - { offsetInCU: 0x9D14, offset: 0x9D14, size: 0x8, addend: 0x0, symName: __ZNSt3__127__do_deallocate_handle_sizeB7v160006IJEEEvPvmDpT_, symObjAddr: 0x1848, symBinAddr: 0x100002AF4, symSize: 0x28 }
  - { offsetInCU: 0x9D52, offset: 0x9D52, size: 0x8, addend: 0x0, symName: __ZNSt3__124__libcpp_operator_deleteB7v160006IJPvEEEvDpT_, symObjAddr: 0x1870, symBinAddr: 0x100002B1C, symSize: 0x24 }
  - { offsetInCU: 0x9D87, offset: 0x9D87, size: 0x8, addend: 0x0, symName: __ZNSt3__119__debug_db_insert_cB7v160006INS_12basic_stringIcNS_11char_traitsIcEENS_9allocatorIcEEEEEEvPT_, symObjAddr: 0x1AFC, symBinAddr: 0x100002DA8, symSize: 0x10 }
  - { offsetInCU: 0x9DB8, offset: 0x9DB8, size: 0x8, addend: 0x0, symName: __ZNSt3__118__constexpr_strlenB7v160006EPKc, symObjAddr: 0x1BC8, symBinAddr: 0x100002E74, symSize: 0x24 }
  - { offsetInCU: 0x9DE4, offset: 0x9DE4, size: 0x8, addend: 0x0, symName: __ZNSt3__116__pad_and_outputB7v160006IcNS_11char_traitsIcEEEENS_19ostreambuf_iteratorIT_T0_EES6_PKS4_S8_S8_RNS_8ios_baseES4_, symObjAddr: 0x1DF4, symBinAddr: 0x1000030A0, symSize: 0x240 }
  - { offsetInCU: 0x9EB3, offset: 0x9EB3, size: 0x8, addend: 0x0, symName: __ZNSt3__112__to_addressB7v160006IKcEEPT_S3_, symObjAddr: 0x226C, symBinAddr: 0x100003518, symSize: 0x14 }
  - { offsetInCU: 0x9F1B, offset: 0x9F1B, size: 0x8, addend: 0x0, symName: __ZNSt3__19use_facetB7v160006INS_5ctypeIcEEEERKT_RKNS_6localeE, symObjAddr: 0x24EC, symBinAddr: 0x100003798, symSize: 0x2C }
  - { offsetInCU: 0xD7DB, offset: 0xD7DB, size: 0x8, addend: 0x0, symName: __ZN7Globals11ASSETS_PATHE, symObjAddr: 0x43658, symBinAddr: 0x10006C020, symSize: 0x0 }
  - { offsetInCU: 0xD7EE, offset: 0xD7EE, size: 0x8, addend: 0x0, symName: __ZN7Globals12WINDOW_WIDTHE, symObjAddr: 0x2C4C, symBinAddr: 0x10006C000, symSize: 0x0 }
  - { offsetInCU: 0xD801, offset: 0xD801, size: 0x8, addend: 0x0, symName: __ZN7Globals13WINDOW_HEIGHTE, symObjAddr: 0x2C50, symBinAddr: 0x10006C004, symSize: 0x0 }
  - { offsetInCU: 0xE2EA, offset: 0xE2EA, size: 0x8, addend: 0x0, symName: __ZNKSt3__16chrono13__duration_ltINS0_8durationIlNS_5ratioILl1ELl1000000EEEEENS2_IxS4_EEEclB7v160006ERKS5_RKS6_, symObjAddr: 0x11B0, symBinAddr: 0x10000245C, symSize: 0x6C }
  - { offsetInCU: 0x10FF9, offset: 0x10FF9, size: 0x8, addend: 0x0, symName: __ZNSt3__112basic_stringIcNS_11char_traitsIcEENS_9allocatorIcEEEC1B7v160006IDnEEPKc, symObjAddr: 0x0, symBinAddr: 0x1000012AC, symSize: 0x34 }
  - { offsetInCU: 0x11036, offset: 0x11036, size: 0x8, addend: 0x0, symName: _main, symObjAddr: 0x34, symBinAddr: 0x1000012E0, symSize: 0xB6C }
  - { offsetInCU: 0x111D8, offset: 0x111D8, size: 0x8, addend: 0x0, symName: __ZNSt3__119basic_ostringstreamIcNS_11char_traitsIcEENS_9allocatorIcEEEC1B7v160006Ev, symObjAddr: 0xBE8, symBinAddr: 0x100001E94, symSize: 0xEC }
  - { offsetInCU: 0x11200, offset: 0x11200, size: 0x8, addend: 0x0, symName: __ZNKSt3__119basic_ostringstreamIcNS_11char_traitsIcEENS_9allocatorIcEEE3strB7v160006Ev, symObjAddr: 0xD20, symBinAddr: 0x100001FCC, symSize: 0x30 }
  - { offsetInCU: 0x11224, offset: 0x11224, size: 0x8, addend: 0x0, symName: __ZNSt3__113basic_ostreamIcNS_11char_traitsIcEEElsB7v160006EPFRS3_S4_E, symObjAddr: 0xD50, symBinAddr: 0x100001FFC, symSize: 0x2C }
  - { offsetInCU: 0x11256, offset: 0x11256, size: 0x8, addend: 0x0, symName: __ZNSt3__112basic_stringIcNS_11char_traitsIcEENS_9allocatorIcEEEaSB7v160006EPKc, symObjAddr: 0xDD4, symBinAddr: 0x100002080, symSize: 0x2C }
  - { offsetInCU: 0x11289, offset: 0x11289, size: 0x8, addend: 0x0, symName: __ZNKSt3__112basic_stringIcNS_11char_traitsIcEENS_9allocatorIcEEE5c_strB7v160006Ev, symObjAddr: 0xE00, symBinAddr: 0x1000020AC, symSize: 0x24 }
  - { offsetInCU: 0x112AE, offset: 0x112AE, size: 0x8, addend: 0x0, symName: __ZNKSt3__16chrono8durationIlNS_5ratioILl1ELl1000000EEEE5countB7v160006Ev, symObjAddr: 0xE24, symBinAddr: 0x1000020D0, symSize: 0x18 }
  - { offsetInCU: 0x112D3, offset: 0x112D3, size: 0x8, addend: 0x0, symName: __ZNKSt3__16chrono8durationIxNS_5ratioILl1ELl1000000EEEE5countB7v160006Ev, symObjAddr: 0xE3C, symBinAddr: 0x1000020E8, symSize: 0x18 }
  - { offsetInCU: 0x112FD, offset: 0x112FD, size: 0x8, addend: 0x0, symName: __ZNSt3__16chrono8durationIlNS_5ratioILl1ELl1000000EEEEC1B7v160006IxS3_EERKNS1_IT_T0_EEPNS_9enable_ifIXaasr13__no_overflowIS7_S3_EE5valueooL_ZNS_17integral_constantIbLb0EE5valueEEaaeqsr13__no_overflowIS7_S3_E4typeE3denLi1Entsr23treat_as_floating_pointIS6_EE5valueEvE4typeE, symObjAddr: 0xEDC, symBinAddr: 0x100002188, symSize: 0x3C }
  - { offsetInCU: 0x11460, offset: 0x11460, size: 0x8, addend: 0x0, symName: __ZN5SceneD1Ev, symObjAddr: 0xF48, symBinAddr: 0x1000021F4, symSize: 0x2C }
  - { offsetInCU: 0x1148E, offset: 0x1148E, size: 0x8, addend: 0x0, symName: __ZNSt3__119basic_ostringstreamIcNS_11char_traitsIcEENS_9allocatorIcEEED1Ev, symObjAddr: 0xF74, symBinAddr: 0x100002220, symSize: 0x40 }
  - { offsetInCU: 0x114C3, offset: 0x114C3, size: 0x8, addend: 0x0, symName: __ZNKSt3__16chrono15__duration_castINS0_8durationIxNS_5ratioILl1ELl1000000EEEEES5_NS3_ILl1ELl1EEELb1ELb1EEclB7v160006ERKS5_, symObjAddr: 0xFB4, symBinAddr: 0x100002260, symSize: 0x40 }
  - { offsetInCU: 0x11500, offset: 0x11500, size: 0x8, addend: 0x0, symName: __ZNSt3__16chrono8durationIxNS_5ratioILl1ELl1000000EEEEC1B7v160006IxEERKT_PNS_9enable_ifIXaasr14is_convertibleIS8_xEE5valueooL_ZNS_17integral_constantIbLb0EE5valueEEntsr23treat_as_floating_pointIS6_EE5valueEvE4typeE, symObjAddr: 0xFF4, symBinAddr: 0x1000022A0, symSize: 0x3C }
  - { offsetInCU: 0x1154C, offset: 0x1154C, size: 0x8, addend: 0x0, symName: __ZNSt3__16chrono8durationIxNS_5ratioILl1ELl1000000EEEEC2B7v160006IxEERKT_PNS_9enable_ifIXaasr14is_convertibleIS8_xEE5valueooL_ZNS_17integral_constantIbLb0EE5valueEEntsr23treat_as_floating_pointIS6_EE5valueEvE4typeE, symObjAddr: 0x1030, symBinAddr: 0x1000022DC, symSize: 0x28 }
  - { offsetInCU: 0x11598, offset: 0x11598, size: 0x8, addend: 0x0, symName: __ZNSt3__16chrono8durationIlNS_5ratioILl1ELl1000000EEEEC2B7v160006IxS3_EERKNS1_IT_T0_EEPNS_9enable_ifIXaasr13__no_overflowIS7_S3_EE5valueooL_ZNS_17integral_constantIbLb0EE5valueEEaaeqsr13__no_overflowIS7_S3_E4typeE3denLi1Entsr23treat_as_floating_pointIS6_EE5valueEvE4typeE, symObjAddr: 0x1058, symBinAddr: 0x100002304, symSize: 0x50 }
  - { offsetInCU: 0x115F7, offset: 0x115F7, size: 0x8, addend: 0x0, symName: __ZNKSt3__16chrono15__duration_castINS0_8durationIxNS_5ratioILl1ELl1000000EEEEENS2_IlS4_EENS3_ILl1ELl1EEELb1ELb1EEclB7v160006ERKS5_, symObjAddr: 0x10D8, symBinAddr: 0x100002384, symSize: 0x40 }
  - { offsetInCU: 0x11634, offset: 0x11634, size: 0x8, addend: 0x0, symName: __ZNSt3__16chrono8durationIlNS_5ratioILl1ELl1000000EEEEC1B7v160006IlEERKT_PNS_9enable_ifIXaasr14is_convertibleIS8_lEE5valueooL_ZNS_17integral_constantIbLb0EE5valueEEntsr23treat_as_floating_pointIS6_EE5valueEvE4typeE, symObjAddr: 0x1118, symBinAddr: 0x1000023C4, symSize: 0x3C }
  - { offsetInCU: 0x11680, offset: 0x11680, size: 0x8, addend: 0x0, symName: __ZNSt3__16chrono8durationIlNS_5ratioILl1ELl1000000EEEEC2B7v160006IlEERKT_PNS_9enable_ifIXaasr14is_convertibleIS8_lEE5valueooL_ZNS_17integral_constantIbLb0EE5valueEEntsr23treat_as_floating_pointIS6_EE5valueEvE4typeE, symObjAddr: 0x1154, symBinAddr: 0x100002400, symSize: 0x28 }
  - { offsetInCU: 0x116CC, offset: 0x116CC, size: 0x8, addend: 0x0, symName: __ZNSt3__16chrono8durationIxNS_5ratioILl1ELl1000000EEEEC1B7v160006IlS3_EERKNS1_IT_T0_EEPNS_9enable_ifIXaasr13__no_overflowIS7_S3_EE5valueooL_ZNS_17integral_constantIbLb0EE5valueEEaaeqsr13__no_overflowIS7_S3_E4typeE3denLi1Entsr23treat_as_floating_pointIS6_EE5valueEvE4typeE, symObjAddr: 0x121C, symBinAddr: 0x1000024C8, symSize: 0x3C }
  - { offsetInCU: 0x11722, offset: 0x11722, size: 0x8, addend: 0x0, symName: __ZNSt3__16chrono8durationIxNS_5ratioILl1ELl1000000EEEEC2B7v160006IlS3_EERKNS1_IT_T0_EEPNS_9enable_ifIXaasr13__no_overflowIS7_S3_EE5valueooL_ZNS_17integral_constantIbLb0EE5valueEEaaeqsr13__no_overflowIS7_S3_E4typeE3denLi1Entsr23treat_as_floating_pointIS6_EE5valueEvE4typeE, symObjAddr: 0x1258, symBinAddr: 0x100002504, symSize: 0x50 }
  - { offsetInCU: 0x11781, offset: 0x11781, size: 0x8, addend: 0x0, symName: __ZNKSt3__16chrono15__duration_castINS0_8durationIlNS_5ratioILl1ELl1000000EEEEENS2_IxS4_EENS3_ILl1ELl1EEELb1ELb1EEclB7v160006ERKS5_, symObjAddr: 0x12D8, symBinAddr: 0x100002584, symSize: 0x40 }
  - { offsetInCU: 0x117B4, offset: 0x117B4, size: 0x8, addend: 0x0, symName: __ZN5SceneD2Ev, symObjAddr: 0x1318, symBinAddr: 0x1000025C4, symSize: 0x48 }
  - { offsetInCU: 0x117DD, offset: 0x117DD, size: 0x8, addend: 0x0, symName: __ZNSt3__16vectorIP6WindowNS_9allocatorIS2_EEED1B7v160006Ev, symObjAddr: 0x1360, symBinAddr: 0x10000260C, symSize: 0x2C }
  - { offsetInCU: 0x11806, offset: 0x11806, size: 0x8, addend: 0x0, symName: __ZN5SceneD0Ev, symObjAddr: 0x138C, symBinAddr: 0x100002638, symSize: 0x30 }
  - { offsetInCU: 0x1182F, offset: 0x1182F, size: 0x8, addend: 0x0, symName: __ZNSt3__16vectorIP6WindowNS_9allocatorIS2_EEED2B7v160006Ev, symObjAddr: 0x13BC, symBinAddr: 0x100002668, symSize: 0x44 }
  - { offsetInCU: 0x11858, offset: 0x11858, size: 0x8, addend: 0x0, symName: __ZNSt3__16vectorIP6WindowNS_9allocatorIS2_EEE16__destroy_vectorC1ERS5_, symObjAddr: 0x1400, symBinAddr: 0x1000026AC, symSize: 0x34 }
  - { offsetInCU: 0x1188F, offset: 0x1188F, size: 0x8, addend: 0x0, symName: __ZNSt3__16vectorIP6WindowNS_9allocatorIS2_EEE16__destroy_vectorclB7v160006Ev, symObjAddr: 0x1440, symBinAddr: 0x1000026EC, symSize: 0x9C }
  - { offsetInCU: 0x118B4, offset: 0x118B4, size: 0x8, addend: 0x0, symName: __ZNSt3__16vectorIP6WindowNS_9allocatorIS2_EEE16__destroy_vectorC2ERS5_, symObjAddr: 0x14DC, symBinAddr: 0x100002788, symSize: 0x20 }
  - { offsetInCU: 0x118EB, offset: 0x118EB, size: 0x8, addend: 0x0, symName: __ZNKSt3__16vectorIP6WindowNS_9allocatorIS2_EEE17__annotate_deleteB7v160006Ev, symObjAddr: 0x14FC, symBinAddr: 0x1000027A8, symSize: 0xB8 }
  - { offsetInCU: 0x1190F, offset: 0x1190F, size: 0x8, addend: 0x0, symName: __ZNSt3__16vectorIP6WindowNS_9allocatorIS2_EEE7__clearB7v160006Ev, symObjAddr: 0x15C4, symBinAddr: 0x100002870, symSize: 0x28 }
  - { offsetInCU: 0x11934, offset: 0x11934, size: 0x8, addend: 0x0, symName: __ZNSt3__116allocator_traitsINS_9allocatorIP6WindowEEE10deallocateB7v160006ERS4_PS3_m, symObjAddr: 0x15EC, symBinAddr: 0x100002898, symSize: 0x34 }
  - { offsetInCU: 0x11975, offset: 0x11975, size: 0x8, addend: 0x0, symName: __ZNSt3__16vectorIP6WindowNS_9allocatorIS2_EEE7__allocB7v160006Ev, symObjAddr: 0x1620, symBinAddr: 0x1000028CC, symSize: 0x28 }
  - { offsetInCU: 0x11999, offset: 0x11999, size: 0x8, addend: 0x0, symName: __ZNKSt3__16vectorIP6WindowNS_9allocatorIS2_EEE8capacityB7v160006Ev, symObjAddr: 0x1648, symBinAddr: 0x1000028F4, symSize: 0x40 }
  - { offsetInCU: 0x119BE, offset: 0x119BE, size: 0x8, addend: 0x0, symName: __ZNKSt3__16vectorIP6WindowNS_9allocatorIS2_EEE31__annotate_contiguous_containerB7v160006EPKvS7_S7_S7_, symObjAddr: 0x1688, symBinAddr: 0x100002934, symSize: 0x20 }
  - { offsetInCU: 0x11A12, offset: 0x11A12, size: 0x8, addend: 0x0, symName: __ZNKSt3__16vectorIP6WindowNS_9allocatorIS2_EEE4dataB7v160006Ev, symObjAddr: 0x16A8, symBinAddr: 0x100002954, symSize: 0x28 }
  - { offsetInCU: 0x11A37, offset: 0x11A37, size: 0x8, addend: 0x0, symName: __ZNKSt3__16vectorIP6WindowNS_9allocatorIS2_EEE4sizeB7v160006Ev, symObjAddr: 0x16D0, symBinAddr: 0x10000297C, symSize: 0x28 }
  - { offsetInCU: 0x11A5B, offset: 0x11A5B, size: 0x8, addend: 0x0, symName: __ZNSt3__16vectorIP6WindowNS_9allocatorIS2_EEE22__base_destruct_at_endB7v160006EPS2_, symObjAddr: 0x170C, symBinAddr: 0x1000029B8, symSize: 0x8C }
  - { offsetInCU: 0x11A9E, offset: 0x11A9E, size: 0x8, addend: 0x0, symName: __ZNSt3__116allocator_traitsINS_9allocatorIP6WindowEEE7destroyB7v160006IS3_vEEvRS4_PT_, symObjAddr: 0x1798, symBinAddr: 0x100002A44, symSize: 0x2C }
  - { offsetInCU: 0x11ADB, offset: 0x11ADB, size: 0x8, addend: 0x0, symName: __ZNSt3__19allocatorIP6WindowE7destroyB7v160006EPS2_, symObjAddr: 0x17C4, symBinAddr: 0x100002A70, symSize: 0x14 }
  - { offsetInCU: 0x11B0D, offset: 0x11B0D, size: 0x8, addend: 0x0, symName: __ZNSt3__19allocatorIP6WindowE10deallocateB7v160006EPS2_m, symObjAddr: 0x17D8, symBinAddr: 0x100002A84, symSize: 0x40 }
  - { offsetInCU: 0x11B4D, offset: 0x11B4D, size: 0x8, addend: 0x0, symName: __ZNSt3__117__compressed_pairIPP6WindowNS_9allocatorIS2_EEE6secondB7v160006Ev, symObjAddr: 0x1894, symBinAddr: 0x100002B40, symSize: 0x24 }
  - { offsetInCU: 0x11B72, offset: 0x11B72, size: 0x8, addend: 0x0, symName: __ZNSt3__122__compressed_pair_elemINS_9allocatorIP6WindowEELi1ELb1EE5__getB7v160006Ev, symObjAddr: 0x18B8, symBinAddr: 0x100002B64, symSize: 0x14 }
  - { offsetInCU: 0x11B96, offset: 0x11B96, size: 0x8, addend: 0x0, symName: __ZNKSt3__16vectorIP6WindowNS_9allocatorIS2_EEE9__end_capB7v160006Ev, symObjAddr: 0x18CC, symBinAddr: 0x100002B78, symSize: 0x28 }
  - { offsetInCU: 0x11BBA, offset: 0x11BBA, size: 0x8, addend: 0x0, symName: __ZNKSt3__117__compressed_pairIPP6WindowNS_9allocatorIS2_EEE5firstB7v160006Ev, symObjAddr: 0x18F4, symBinAddr: 0x100002BA0, symSize: 0x24 }
  - { offsetInCU: 0x11BDF, offset: 0x11BDF, size: 0x8, addend: 0x0, symName: __ZNKSt3__122__compressed_pair_elemIPP6WindowLi0ELb0EE5__getB7v160006Ev, symObjAddr: 0x1918, symBinAddr: 0x100002BC4, symSize: 0x14 }
  - { offsetInCU: 0x11C04, offset: 0x11C04, size: 0x8, addend: 0x0, symName: __ZNSt3__119basic_ostringstreamIcNS_11char_traitsIcEENS_9allocatorIcEEED2Ev, symObjAddr: 0x192C, symBinAddr: 0x100002BD8, symSize: 0x64 }
  - { offsetInCU: 0x11C3C, offset: 0x11C3C, size: 0x8, addend: 0x0, symName: __ZTv0_n24_NSt3__119basic_ostringstreamIcNS_11char_traitsIcEENS_9allocatorIcEEED1Ev, symObjAddr: 0x1990, symBinAddr: 0x100002C3C, symSize: 0x28 }
  - { offsetInCU: 0x11C58, offset: 0x11C58, size: 0x8, addend: 0x0, symName: __ZNSt3__115basic_stringbufIcNS_11char_traitsIcEENS_9allocatorIcEEED1Ev, symObjAddr: 0x19B8, symBinAddr: 0x100002C64, symSize: 0x2C }
  - { offsetInCU: 0x11C84, offset: 0x11C84, size: 0x8, addend: 0x0, symName: __ZNSt3__115basic_stringbufIcNS_11char_traitsIcEENS_9allocatorIcEEED2Ev, symObjAddr: 0x19E4, symBinAddr: 0x100002C90, symSize: 0x48 }
  - { offsetInCU: 0x11CB0, offset: 0x11CB0, size: 0x8, addend: 0x0, symName: __ZNSt3__112basic_stringIcNS_11char_traitsIcEENS_9allocatorIcEEEC2B7v160006IDnEEPKc, symObjAddr: 0x1A2C, symBinAddr: 0x100002CD8, symSize: 0x60 }
  - { offsetInCU: 0x11CF2, offset: 0x11CF2, size: 0x8, addend: 0x0, symName: __ZNSt3__117__compressed_pairINS_12basic_stringIcNS_11char_traitsIcEENS_9allocatorIcEEE5__repES5_EC1B7v160006INS_18__default_init_tagESA_EEOT_OT0_, symObjAddr: 0x1A8C, symBinAddr: 0x100002D38, symSize: 0x3C }
  - { offsetInCU: 0x11D49, offset: 0x11D49, size: 0x8, addend: 0x0, symName: __ZNSt3__111char_traitsIcE6lengthEPKc, symObjAddr: 0x1AC8, symBinAddr: 0x100002D74, symSize: 0x34 }
  - { offsetInCU: 0x11D6C, offset: 0x11D6C, size: 0x8, addend: 0x0, symName: __ZNSt3__117__compressed_pairINS_12basic_stringIcNS_11char_traitsIcEENS_9allocatorIcEEE5__repES5_EC2B7v160006INS_18__default_init_tagESA_EEOT_OT0_, symObjAddr: 0x1B0C, symBinAddr: 0x100002DB8, symSize: 0x3C }
  - { offsetInCU: 0x11DC3, offset: 0x11DC3, size: 0x8, addend: 0x0, symName: __ZNSt3__122__compressed_pair_elemINS_12basic_stringIcNS_11char_traitsIcEENS_9allocatorIcEEE5__repELi0ELb0EEC2B7v160006ENS_18__default_init_tagE, symObjAddr: 0x1B48, symBinAddr: 0x100002DF4, symSize: 0x14 }
  - { offsetInCU: 0x11DF7, offset: 0x11DF7, size: 0x8, addend: 0x0, symName: __ZNSt3__122__compressed_pair_elemINS_9allocatorIcEELi1ELb1EEC2B7v160006ENS_18__default_init_tagE, symObjAddr: 0x1B5C, symBinAddr: 0x100002E08, symSize: 0x2C }
  - { offsetInCU: 0x11E2B, offset: 0x11E2B, size: 0x8, addend: 0x0, symName: __ZNSt3__19allocatorIcEC2B7v160006Ev, symObjAddr: 0x1B88, symBinAddr: 0x100002E34, symSize: 0x2C }
  - { offsetInCU: 0x11E54, offset: 0x11E54, size: 0x8, addend: 0x0, symName: __ZNSt3__116__non_trivial_ifILb1ENS_9allocatorIcEEEC2B7v160006Ev, symObjAddr: 0x1BB4, symBinAddr: 0x100002E60, symSize: 0x14 }
  - { offsetInCU: 0x11E9B, offset: 0x11E9B, size: 0x8, addend: 0x0, symName: __ZNKSt3__113basic_ostreamIcNS_11char_traitsIcEEE6sentrycvbB7v160006Ev, symObjAddr: 0x1DD8, symBinAddr: 0x100003084, symSize: 0x1C }
  - { offsetInCU: 0x11EC0, offset: 0x11EC0, size: 0x8, addend: 0x0, symName: __ZNSt3__119ostreambuf_iteratorIcNS_11char_traitsIcEEEC1B7v160006ERNS_13basic_ostreamIcS2_EE, symObjAddr: 0x2034, symBinAddr: 0x1000032E0, symSize: 0x34 }
  - { offsetInCU: 0x11EF7, offset: 0x11EF7, size: 0x8, addend: 0x0, symName: __ZNKSt3__18ios_base5flagsB7v160006Ev, symObjAddr: 0x2068, symBinAddr: 0x100003314, symSize: 0x18 }
  - { offsetInCU: 0x11F1E, offset: 0x11F1E, size: 0x8, addend: 0x0, symName: __ZNKSt3__19basic_iosIcNS_11char_traitsIcEEE4fillB7v160006Ev, symObjAddr: 0x2080, symBinAddr: 0x10000332C, symSize: 0x64 }
  - { offsetInCU: 0x11F45, offset: 0x11F45, size: 0x8, addend: 0x0, symName: __ZNKSt3__119ostreambuf_iteratorIcNS_11char_traitsIcEEE6failedB7v160006Ev, symObjAddr: 0x20E4, symBinAddr: 0x100003390, symSize: 0x24 }
  - { offsetInCU: 0x11F69, offset: 0x11F69, size: 0x8, addend: 0x0, symName: __ZNSt3__19basic_iosIcNS_11char_traitsIcEEE8setstateB7v160006Ej, symObjAddr: 0x2108, symBinAddr: 0x1000033B4, symSize: 0x2C }
  - { offsetInCU: 0x11F9D, offset: 0x11F9D, size: 0x8, addend: 0x0, symName: __ZNKSt3__18ios_base5widthB7v160006Ev, symObjAddr: 0x2134, symBinAddr: 0x1000033E0, symSize: 0x18 }
  - { offsetInCU: 0x11FC3, offset: 0x11FC3, size: 0x8, addend: 0x0, symName: __ZNSt3__115basic_streambufIcNS_11char_traitsIcEEE5sputnB7v160006EPKcl, symObjAddr: 0x214C, symBinAddr: 0x1000033F8, symSize: 0x3C }
  - { offsetInCU: 0x12004, offset: 0x12004, size: 0x8, addend: 0x0, symName: __ZNSt3__112basic_stringIcNS_11char_traitsIcEENS_9allocatorIcEEEC1B7v160006Emc, symObjAddr: 0x2188, symBinAddr: 0x100003434, symSize: 0x3C }
  - { offsetInCU: 0x1204A, offset: 0x1204A, size: 0x8, addend: 0x0, symName: __ZNKSt3__112basic_stringIcNS_11char_traitsIcEENS_9allocatorIcEEE4dataB7v160006Ev, symObjAddr: 0x21C4, symBinAddr: 0x100003470, symSize: 0x28 }
  - { offsetInCU: 0x1206F, offset: 0x1206F, size: 0x8, addend: 0x0, symName: __ZNSt3__18ios_base5widthB7v160006El, symObjAddr: 0x21EC, symBinAddr: 0x100003498, symSize: 0x2C }
  - { offsetInCU: 0x120B4, offset: 0x120B4, size: 0x8, addend: 0x0, symName: __ZNSt3__112basic_stringIcNS_11char_traitsIcEENS_9allocatorIcEEEC2B7v160006Emc, symObjAddr: 0x2218, symBinAddr: 0x1000034C4, symSize: 0x54 }
  - { offsetInCU: 0x120FA, offset: 0x120FA, size: 0x8, addend: 0x0, symName: __ZNKSt3__112basic_stringIcNS_11char_traitsIcEENS_9allocatorIcEEE13__get_pointerB7v160006Ev, symObjAddr: 0x2280, symBinAddr: 0x10000352C, symSize: 0x54 }
  - { offsetInCU: 0x1211E, offset: 0x1211E, size: 0x8, addend: 0x0, symName: __ZNKSt3__112basic_stringIcNS_11char_traitsIcEENS_9allocatorIcEEE9__is_longB7v160006Ev, symObjAddr: 0x22D4, symBinAddr: 0x100003580, symSize: 0x38 }
  - { offsetInCU: 0x12142, offset: 0x12142, size: 0x8, addend: 0x0, symName: __ZNKSt3__112basic_stringIcNS_11char_traitsIcEENS_9allocatorIcEEE18__get_long_pointerB7v160006Ev, symObjAddr: 0x230C, symBinAddr: 0x1000035B8, symSize: 0x28 }
  - { offsetInCU: 0x12166, offset: 0x12166, size: 0x8, addend: 0x0, symName: __ZNKSt3__112basic_stringIcNS_11char_traitsIcEENS_9allocatorIcEEE19__get_short_pointerB7v160006Ev, symObjAddr: 0x2334, symBinAddr: 0x1000035E0, symSize: 0x28 }
  - { offsetInCU: 0x1218A, offset: 0x1218A, size: 0x8, addend: 0x0, symName: __ZNKSt3__117__compressed_pairINS_12basic_stringIcNS_11char_traitsIcEENS_9allocatorIcEEE5__repES5_E5firstB7v160006Ev, symObjAddr: 0x235C, symBinAddr: 0x100003608, symSize: 0x24 }
  - { offsetInCU: 0x121AF, offset: 0x121AF, size: 0x8, addend: 0x0, symName: __ZNKSt3__122__compressed_pair_elemINS_12basic_stringIcNS_11char_traitsIcEENS_9allocatorIcEEE5__repELi0ELb0EE5__getB7v160006Ev, symObjAddr: 0x2380, symBinAddr: 0x10000362C, symSize: 0x14 }
  - { offsetInCU: 0x121D4, offset: 0x121D4, size: 0x8, addend: 0x0, symName: __ZNSt3__114pointer_traitsIPKcE10pointer_toB7v160006ERS1_, symObjAddr: 0x2394, symBinAddr: 0x100003640, symSize: 0x14 }
  - { offsetInCU: 0x121F7, offset: 0x121F7, size: 0x8, addend: 0x0, symName: __ZNSt3__119ostreambuf_iteratorIcNS_11char_traitsIcEEEC2B7v160006ERNS_13basic_ostreamIcS2_EE, symObjAddr: 0x23A8, symBinAddr: 0x100003654, symSize: 0x54 }
  - { offsetInCU: 0x1222E, offset: 0x1222E, size: 0x8, addend: 0x0, symName: __ZNKSt3__19basic_iosIcNS_11char_traitsIcEEE5rdbufB7v160006Ev, symObjAddr: 0x23FC, symBinAddr: 0x1000036A8, symSize: 0x24 }
  - { offsetInCU: 0x12255, offset: 0x12255, size: 0x8, addend: 0x0, symName: __ZNKSt3__18ios_base5rdbufB7v160006Ev, symObjAddr: 0x2420, symBinAddr: 0x1000036CC, symSize: 0x18 }
  - { offsetInCU: 0x1227A, offset: 0x1227A, size: 0x8, addend: 0x0, symName: __ZNSt3__111char_traitsIcE11eq_int_typeEii, symObjAddr: 0x2438, symBinAddr: 0x1000036E4, symSize: 0x28 }
  - { offsetInCU: 0x122AB, offset: 0x122AB, size: 0x8, addend: 0x0, symName: __ZNSt3__111char_traitsIcE3eofEv, symObjAddr: 0x2460, symBinAddr: 0x10000370C, symSize: 0x8 }
  - { offsetInCU: 0x122BF, offset: 0x122BF, size: 0x8, addend: 0x0, symName: __ZNKSt3__19basic_iosIcNS_11char_traitsIcEEE5widenB7v160006Ec, symObjAddr: 0x2468, symBinAddr: 0x100003714, symSize: 0x84 }
  - { offsetInCU: 0x1232B, offset: 0x1232B, size: 0x8, addend: 0x0, symName: __ZNKSt3__15ctypeIcE5widenB7v160006Ec, symObjAddr: 0x2518, symBinAddr: 0x1000037C4, symSize: 0x38 }
  - { offsetInCU: 0x1235F, offset: 0x1235F, size: 0x8, addend: 0x0, symName: __ZNSt3__18ios_base8setstateB7v160006Ej, symObjAddr: 0x2550, symBinAddr: 0x1000037FC, symSize: 0x34 }
  - { offsetInCU: 0x12395, offset: 0x12395, size: 0x8, addend: 0x0, symName: __ZNSt3__19basic_iosIcNS_11char_traitsIcEEEC2B7v160006Ev, symObjAddr: 0x2584, symBinAddr: 0x100003830, symSize: 0x44 }
  - { offsetInCU: 0x123BE, offset: 0x123BE, size: 0x8, addend: 0x0, symName: __ZNSt3__113basic_ostreamIcNS_11char_traitsIcEEEC2B7v160006EPNS_15basic_streambufIcS2_EE, symObjAddr: 0x25C8, symBinAddr: 0x100003874, symSize: 0x60 }
  - { offsetInCU: 0x12401, offset: 0x12401, size: 0x8, addend: 0x0, symName: __ZNSt3__115basic_stringbufIcNS_11char_traitsIcEENS_9allocatorIcEEEC1B7v160006Ej, symObjAddr: 0x2628, symBinAddr: 0x1000038D4, symSize: 0x34 }
  - { offsetInCU: 0x12438, offset: 0x12438, size: 0x8, addend: 0x0, symName: __ZNSt3__18ios_baseC2B7v160006Ev, symObjAddr: 0x265C, symBinAddr: 0x100003908, symSize: 0x24 }
  - { offsetInCU: 0x12461, offset: 0x12461, size: 0x8, addend: 0x0, symName: __ZNSt3__19basic_iosIcNS_11char_traitsIcEEE4initB7v160006EPNS_15basic_streambufIcS2_EE, symObjAddr: 0x2680, symBinAddr: 0x10000392C, symSize: 0x44 }
  - { offsetInCU: 0x12497, offset: 0x12497, size: 0x8, addend: 0x0, symName: __ZNSt3__115basic_stringbufIcNS_11char_traitsIcEENS_9allocatorIcEEEC2B7v160006Ej, symObjAddr: 0x26C4, symBinAddr: 0x100003970, symSize: 0x60 }
  - { offsetInCU: 0x124CE, offset: 0x124CE, size: 0x8, addend: 0x0, symName: __ZNSt3__112basic_stringIcNS_11char_traitsIcEENS_9allocatorIcEEEC1B7v160006Ev, symObjAddr: 0x2724, symBinAddr: 0x1000039D0, symSize: 0x2C }
  - { offsetInCU: 0x124F7, offset: 0x124F7, size: 0x8, addend: 0x0, symName: __ZNSt3__112basic_stringIcNS_11char_traitsIcEENS_9allocatorIcEEEC2B7v160006Ev, symObjAddr: 0x2750, symBinAddr: 0x1000039FC, symSize: 0x50 }
  - { offsetInCU: 0x1251F, offset: 0x1251F, size: 0x8, addend: 0x0, symName: __ZNSt3__112basic_stringIcNS_11char_traitsIcEENS_9allocatorIcEEE14__default_initB7v160006Ev, symObjAddr: 0x27A0, symBinAddr: 0x100003A4C, symSize: 0x40 }
  - { offsetInCU: 0x12543, offset: 0x12543, size: 0x8, addend: 0x0, symName: __ZNSt3__117__compressed_pairINS_12basic_stringIcNS_11char_traitsIcEENS_9allocatorIcEEE5__repES5_E5firstB7v160006Ev, symObjAddr: 0x27E0, symBinAddr: 0x100003A8C, symSize: 0x24 }
  - { offsetInCU: 0x12568, offset: 0x12568, size: 0x8, addend: 0x0, symName: __ZNSt3__122__compressed_pair_elemINS_12basic_stringIcNS_11char_traitsIcEENS_9allocatorIcEEE5__repELi0ELb0EE5__getB7v160006Ev, symObjAddr: 0x2804, symBinAddr: 0x100003AB0, symSize: 0x14 }
  - { offsetInCU: 0x1258C, offset: 0x1258C, size: 0x8, addend: 0x0, symName: __ZNKSt3__112basic_stringIcNS_11char_traitsIcEENS_9allocatorIcEEE4sizeB7v160006Ev, symObjAddr: 0x2818, symBinAddr: 0x100003AC4, symSize: 0x54 }
  - { offsetInCU: 0x125B0, offset: 0x125B0, size: 0x8, addend: 0x0, symName: __ZNKSt3__112basic_stringIcNS_11char_traitsIcEENS_9allocatorIcEEE15__get_long_sizeB7v160006Ev, symObjAddr: 0x286C, symBinAddr: 0x100003B18, symSize: 0x28 }
  - { offsetInCU: 0x125D4, offset: 0x125D4, size: 0x8, addend: 0x0, symName: __ZNKSt3__112basic_stringIcNS_11char_traitsIcEENS_9allocatorIcEEE16__get_short_sizeB7v160006Ev, symObjAddr: 0x2894, symBinAddr: 0x100003B40, symSize: 0x34 }
  - { offsetInCU: 0x12621, offset: 0x12621, size: 0x8, addend: 0x0, symName: __ZNKSt3__16chrono10time_pointINS0_12system_clockENS0_8durationIxNS_5ratioILl1ELl1000000EEEEEE16time_since_epochB7v160006Ev, symObjAddr: 0x2938, symBinAddr: 0x100003BE4, symSize: 0x20 }
  - { offsetInCU: 0x39, offset: 0x13BBB, size: 0x8, addend: 0x0, symName: __ZN5Scene10sceneWidthE, symObjAddr: 0xFA83C, symBinAddr: 0x10006C038, symSize: 0x0 }
  - { offsetInCU: 0x79A5, offset: 0x1B527, size: 0x8, addend: 0x0, symName: '__ZNSt3__110__function10__not_nullB7v160006IZN5Scene4initEiiE3$_0EEbRKT_', symObjAddr: 0x207C, symBinAddr: 0x100005A80, symSize: 0x18 }
  - { offsetInCU: 0x79D8, offset: 0x1B55A, size: 0x8, addend: 0x0, symName: '__ZNSt3__110__function10__not_nullB7v160006IZN5Scene4initEiiE3$_1EEbRKT_', symObjAddr: 0x3C44, symBinAddr: 0x1000075CC, symSize: 0x18 }
  - { offsetInCU: 0x7A0B, offset: 0x1B58D, size: 0x8, addend: 0x0, symName: '__ZNSt3__110__function10__not_nullB7v160006IZN5Scene4initEiiE3$_2EEbRKT_', symObjAddr: 0x54D4, symBinAddr: 0x100008E5C, symSize: 0x18 }
  - { offsetInCU: 0x7A3E, offset: 0x1B5C0, size: 0x8, addend: 0x0, symName: '__ZNSt3__110__function10__not_nullB7v160006IZN5Scene4initEiiE3$_3EEbRKT_', symObjAddr: 0x6D28, symBinAddr: 0x10000A6B0, symSize: 0x18 }
  - { offsetInCU: 0x7A71, offset: 0x1B5F3, size: 0x8, addend: 0x0, symName: '__ZNSt3__110__function10__not_nullB7v160006IZN5Scene4initEiiE3$_4EEbRKT_', symObjAddr: 0x857C, symBinAddr: 0x10000BF04, symSize: 0x18 }
  - { offsetInCU: 0x7AA4, offset: 0x1B626, size: 0x8, addend: 0x0, symName: '__ZNSt3__110__function10__not_nullB7v160006IZN5Scene4initEiiE3$_5EEbRKT_', symObjAddr: 0x9DD0, symBinAddr: 0x10000D758, symSize: 0x18 }
  - { offsetInCU: 0x7AD7, offset: 0x1B659, size: 0x8, addend: 0x0, symName: '__ZNSt3__110__function10__not_nullB7v160006IZN5Scene4initEiiE3$_6EEbRKT_', symObjAddr: 0xB684, symBinAddr: 0x10000F00C, symSize: 0x18 }
  - { offsetInCU: 0x7B0A, offset: 0x1B68C, size: 0x8, addend: 0x0, symName: '__ZNSt3__110__function10__not_nullB7v160006IZN5Scene4initEiiE3$_7EEbRKT_', symObjAddr: 0xCF20, symBinAddr: 0x1000108A8, symSize: 0x18 }
  - { offsetInCU: 0x7B3D, offset: 0x1B6BF, size: 0x8, addend: 0x0, symName: '__ZNSt3__110__function10__not_nullB7v160006IZN5Scene12createWindowENS_12basic_stringIcNS_11char_traitsIcEENS_9allocatorIcEEEEE3$_8EEbRKT_', symObjAddr: 0xEA34, symBinAddr: 0x1000122D4, symSize: 0x18 }
  - { offsetInCU: 0x7B70, offset: 0x1B6F2, size: 0x8, addend: 0x0, symName: '__ZNSt3__110__function10__not_nullB7v160006IZN5Scene18createBlocksWindowEiiiiE3$_9EEbRKT_', symObjAddr: 0x1210C, symBinAddr: 0x100015540, symSize: 0x18 }
  - { offsetInCU: 0xC7DD, offset: 0x2035F, size: 0x8, addend: 0x0, symName: __ZNSt3__1L19piecewise_constructE, symObjAddr: 0x15664, symBinAddr: 0x100062F63, symSize: 0x0 }
  - { offsetInCU: 0x19613, offset: 0x2D195, size: 0x8, addend: 0x0, symName: __ZNSt3__1plB7v160006IcNS_11char_traitsIcEENS_9allocatorIcEEEENS_12basic_stringIT_T0_T1_EEPKS6_OS9_, symObjAddr: 0x1034, symBinAddr: 0x100004CAC, symSize: 0x44 }
  - { offsetInCU: 0x1966B, offset: 0x2D1ED, size: 0x8, addend: 0x0, symName: __ZNSt3__1eqB7v160006INS_9allocatorIcEEEEbRKNS_12basic_stringIcNS_11char_traitsIcEET_EES9_, symObjAddr: 0x17F4, symBinAddr: 0x100005420, symSize: 0x148 }
  - { offsetInCU: 0x196DE, offset: 0x2D260, size: 0x8, addend: 0x0, symName: __ZNSt3__119__debug_db_insert_cB7v160006INS_6vectorIP6WindowNS_9allocatorIS3_EEEEEEvPT_, symObjAddr: 0x1DE0, symBinAddr: 0x1000057E4, symSize: 0x10 }
  - { offsetInCU: 0x1987C, offset: 0x2D3FE, size: 0x8, addend: 0x0, symName: '__ZNSt3__116forward_as_tupleB7v160006IJZN5Scene4initEiiE3$_0EEENS_5tupleIJDpOT_EEES6_', symObjAddr: 0x25F4, symBinAddr: 0x100005FF8, symSize: 0x2C }
  - { offsetInCU: 0x198B6, offset: 0x2D438, size: 0x8, addend: 0x0, symName: '__ZNSt3__116forward_as_tupleB7v160006IJNS_9allocatorIZN5Scene4initEiiE3$_0EEEEENS_5tupleIJDpOT_EEES8_', symObjAddr: 0x2620, symBinAddr: 0x100006024, symSize: 0x2C }
  - { offsetInCU: 0x19935, offset: 0x2D4B7, size: 0x8, addend: 0x0, symName: '__ZNSt3__13getB7v160006ILm0EJOZN5Scene4initEiiE3$_0EEERNS_13tuple_elementIXT_ENS_5tupleIJDpT0_EEEE4typeERS8_', symObjAddr: 0x2938, symBinAddr: 0x10000633C, symSize: 0x24 }
  - { offsetInCU: 0x19979, offset: 0x2D4FB, size: 0x8, addend: 0x0, symName: '__ZNSt3__13getB7v160006ILm0EJONS_9allocatorIZN5Scene4initEiiE3$_0EEEEERNS_13tuple_elementIXT_ENS_5tupleIJDpT0_EEEE4typeERSA_', symObjAddr: 0x2974, symBinAddr: 0x100006378, symSize: 0x24 }
  - { offsetInCU: 0x19EC6, offset: 0x2DA48, size: 0x8, addend: 0x0, symName: __ZNSt3__117__libcpp_allocateB7v160006Emm, symObjAddr: 0x2C58, symBinAddr: 0x10000665C, symSize: 0x28 }
  - { offsetInCU: 0x19F03, offset: 0x2DA85, size: 0x8, addend: 0x0, symName: __ZNSt3__121__libcpp_operator_newB7v160006IJmEEEPvDpT_, symObjAddr: 0x2C94, symBinAddr: 0x100006698, symSize: 0x24 }
  - { offsetInCU: 0x19F3C, offset: 0x2DABE, size: 0x8, addend: 0x0, symName: '__ZNSt3__116forward_as_tupleB7v160006IJRKZN5Scene4initEiiE3$_0EEENS_5tupleIJDpOT_EEES8_', symObjAddr: 0x2F88, symBinAddr: 0x10000698C, symSize: 0x2C }
  - { offsetInCU: 0x19F8B, offset: 0x2DB0D, size: 0x8, addend: 0x0, symName: '__ZNSt3__13getB7v160006ILm0EJRKZN5Scene4initEiiE3$_0EEERNS_13tuple_elementIXT_ENS_5tupleIJDpT0_EEEE4typeERS9_', symObjAddr: 0x3178, symBinAddr: 0x100006B7C, symSize: 0x24 }
  - { offsetInCU: 0x19FCF, offset: 0x2DB51, size: 0x8, addend: 0x0, symName: '__ZNSt3__116forward_as_tupleB7v160006IJRKNS_9allocatorIZN5Scene4initEiiE3$_0EEEEENS_5tupleIJDpOT_EEESA_', symObjAddr: 0x3550, symBinAddr: 0x100006ED8, symSize: 0x2C }
  - { offsetInCU: 0x1A01E, offset: 0x2DBA0, size: 0x8, addend: 0x0, symName: '__ZNSt3__13getB7v160006ILm0EJRKNS_9allocatorIZN5Scene4initEiiE3$_0EEEEERNS_13tuple_elementIXT_ENS_5tupleIJDpT0_EEEE4typeERSB_', symObjAddr: 0x3734, symBinAddr: 0x1000070BC, symSize: 0x24 }
  - { offsetInCU: 0x1A1A4, offset: 0x2DD26, size: 0x8, addend: 0x0, symName: '__ZNSt3__18__invokeB7v160006IRZN5Scene4initEiiE3$_0JEEEDTclclsr3stdE7declvalIT_EEspclsr3stdE7declvalIT0_EEEEOS4_DpOS5_', symObjAddr: 0x37F0, symBinAddr: 0x100007178, symSize: 0x24 }
  - { offsetInCU: 0x1A34A, offset: 0x2DECC, size: 0x8, addend: 0x0, symName: '__ZNSt3__116forward_as_tupleB7v160006IJZN5Scene4initEiiE3$_1EEENS_5tupleIJDpOT_EEES6_', symObjAddr: 0x4164, symBinAddr: 0x100007AEC, symSize: 0x2C }
  - { offsetInCU: 0x1A384, offset: 0x2DF06, size: 0x8, addend: 0x0, symName: '__ZNSt3__116forward_as_tupleB7v160006IJNS_9allocatorIZN5Scene4initEiiE3$_1EEEEENS_5tupleIJDpOT_EEES8_', symObjAddr: 0x4190, symBinAddr: 0x100007B18, symSize: 0x2C }
  - { offsetInCU: 0x1A3E8, offset: 0x2DF6A, size: 0x8, addend: 0x0, symName: '__ZNSt3__13getB7v160006ILm0EJOZN5Scene4initEiiE3$_1EEERNS_13tuple_elementIXT_ENS_5tupleIJDpT0_EEEE4typeERS8_', symObjAddr: 0x44A8, symBinAddr: 0x100007E30, symSize: 0x24 }
  - { offsetInCU: 0x1A42C, offset: 0x2DFAE, size: 0x8, addend: 0x0, symName: '__ZNSt3__13getB7v160006ILm0EJONS_9allocatorIZN5Scene4initEiiE3$_1EEEEERNS_13tuple_elementIXT_ENS_5tupleIJDpT0_EEEE4typeERSA_', symObjAddr: 0x44E4, symBinAddr: 0x100007E6C, symSize: 0x24 }
  - { offsetInCU: 0x1A979, offset: 0x2E4FB, size: 0x8, addend: 0x0, symName: '__ZNSt3__116forward_as_tupleB7v160006IJRKZN5Scene4initEiiE3$_1EEENS_5tupleIJDpOT_EEES8_', symObjAddr: 0x4A78, symBinAddr: 0x100008400, symSize: 0x2C }
  - { offsetInCU: 0x1A9C8, offset: 0x2E54A, size: 0x8, addend: 0x0, symName: '__ZNSt3__13getB7v160006ILm0EJRKZN5Scene4initEiiE3$_1EEERNS_13tuple_elementIXT_ENS_5tupleIJDpT0_EEEE4typeERS9_', symObjAddr: 0x4C68, symBinAddr: 0x1000085F0, symSize: 0x24 }
  - { offsetInCU: 0x1AA0C, offset: 0x2E58E, size: 0x8, addend: 0x0, symName: '__ZNSt3__116forward_as_tupleB7v160006IJRKNS_9allocatorIZN5Scene4initEiiE3$_1EEEEENS_5tupleIJDpOT_EEESA_', symObjAddr: 0x4FC4, symBinAddr: 0x10000894C, symSize: 0x2C }
  - { offsetInCU: 0x1AA5B, offset: 0x2E5DD, size: 0x8, addend: 0x0, symName: '__ZNSt3__13getB7v160006ILm0EJRKNS_9allocatorIZN5Scene4initEiiE3$_1EEEEERNS_13tuple_elementIXT_ENS_5tupleIJDpT0_EEEE4typeERSB_', symObjAddr: 0x51A8, symBinAddr: 0x100008B30, symSize: 0x24 }
  - { offsetInCU: 0x1AA9F, offset: 0x2E621, size: 0x8, addend: 0x0, symName: '__ZNSt3__18__invokeB7v160006IRZN5Scene4initEiiE3$_1JEEEDTclclsr3stdE7declvalIT_EEspclsr3stdE7declvalIT0_EEEEOS4_DpOS5_', symObjAddr: 0x5264, symBinAddr: 0x100008BEC, symSize: 0x24 }
  - { offsetInCU: 0x1AC45, offset: 0x2E7C7, size: 0x8, addend: 0x0, symName: '__ZNSt3__116forward_as_tupleB7v160006IJZN5Scene4initEiiE3$_2EEENS_5tupleIJDpOT_EEES6_', symObjAddr: 0x59F4, symBinAddr: 0x10000937C, symSize: 0x2C }
  - { offsetInCU: 0x1AC7F, offset: 0x2E801, size: 0x8, addend: 0x0, symName: '__ZNSt3__116forward_as_tupleB7v160006IJNS_9allocatorIZN5Scene4initEiiE3$_2EEEEENS_5tupleIJDpOT_EEES8_', symObjAddr: 0x5A20, symBinAddr: 0x1000093A8, symSize: 0x2C }
  - { offsetInCU: 0x1ACE3, offset: 0x2E865, size: 0x8, addend: 0x0, symName: '__ZNSt3__13getB7v160006ILm0EJOZN5Scene4initEiiE3$_2EEERNS_13tuple_elementIXT_ENS_5tupleIJDpT0_EEEE4typeERS8_', symObjAddr: 0x5D38, symBinAddr: 0x1000096C0, symSize: 0x24 }
  - { offsetInCU: 0x1AD27, offset: 0x2E8A9, size: 0x8, addend: 0x0, symName: '__ZNSt3__13getB7v160006ILm0EJONS_9allocatorIZN5Scene4initEiiE3$_2EEEEERNS_13tuple_elementIXT_ENS_5tupleIJDpT0_EEEE4typeERSA_', symObjAddr: 0x5D74, symBinAddr: 0x1000096FC, symSize: 0x24 }
  - { offsetInCU: 0x1B274, offset: 0x2EDF6, size: 0x8, addend: 0x0, symName: '__ZNSt3__116forward_as_tupleB7v160006IJRKZN5Scene4initEiiE3$_2EEENS_5tupleIJDpOT_EEES8_', symObjAddr: 0x6308, symBinAddr: 0x100009C90, symSize: 0x2C }
  - { offsetInCU: 0x1B2C3, offset: 0x2EE45, size: 0x8, addend: 0x0, symName: '__ZNSt3__13getB7v160006ILm0EJRKZN5Scene4initEiiE3$_2EEERNS_13tuple_elementIXT_ENS_5tupleIJDpT0_EEEE4typeERS9_', symObjAddr: 0x64F8, symBinAddr: 0x100009E80, symSize: 0x24 }
  - { offsetInCU: 0x1B307, offset: 0x2EE89, size: 0x8, addend: 0x0, symName: '__ZNSt3__116forward_as_tupleB7v160006IJRKNS_9allocatorIZN5Scene4initEiiE3$_2EEEEENS_5tupleIJDpOT_EEESA_', symObjAddr: 0x6854, symBinAddr: 0x10000A1DC, symSize: 0x2C }
  - { offsetInCU: 0x1B356, offset: 0x2EED8, size: 0x8, addend: 0x0, symName: '__ZNSt3__13getB7v160006ILm0EJRKNS_9allocatorIZN5Scene4initEiiE3$_2EEEEERNS_13tuple_elementIXT_ENS_5tupleIJDpT0_EEEE4typeERSB_', symObjAddr: 0x6A38, symBinAddr: 0x10000A3C0, symSize: 0x24 }
  - { offsetInCU: 0x1B39A, offset: 0x2EF1C, size: 0x8, addend: 0x0, symName: '__ZNSt3__18__invokeB7v160006IRZN5Scene4initEiiE3$_2JEEEDTclclsr3stdE7declvalIT_EEspclsr3stdE7declvalIT0_EEEEOS4_DpOS5_', symObjAddr: 0x6AF4, symBinAddr: 0x10000A47C, symSize: 0x24 }
  - { offsetInCU: 0x1B540, offset: 0x2F0C2, size: 0x8, addend: 0x0, symName: '__ZNSt3__116forward_as_tupleB7v160006IJZN5Scene4initEiiE3$_3EEENS_5tupleIJDpOT_EEES6_', symObjAddr: 0x7248, symBinAddr: 0x10000ABD0, symSize: 0x2C }
  - { offsetInCU: 0x1B57A, offset: 0x2F0FC, size: 0x8, addend: 0x0, symName: '__ZNSt3__116forward_as_tupleB7v160006IJNS_9allocatorIZN5Scene4initEiiE3$_3EEEEENS_5tupleIJDpOT_EEES8_', symObjAddr: 0x7274, symBinAddr: 0x10000ABFC, symSize: 0x2C }
  - { offsetInCU: 0x1B5DE, offset: 0x2F160, size: 0x8, addend: 0x0, symName: '__ZNSt3__13getB7v160006ILm0EJOZN5Scene4initEiiE3$_3EEERNS_13tuple_elementIXT_ENS_5tupleIJDpT0_EEEE4typeERS8_', symObjAddr: 0x758C, symBinAddr: 0x10000AF14, symSize: 0x24 }
  - { offsetInCU: 0x1B622, offset: 0x2F1A4, size: 0x8, addend: 0x0, symName: '__ZNSt3__13getB7v160006ILm0EJONS_9allocatorIZN5Scene4initEiiE3$_3EEEEERNS_13tuple_elementIXT_ENS_5tupleIJDpT0_EEEE4typeERSA_', symObjAddr: 0x75C8, symBinAddr: 0x10000AF50, symSize: 0x24 }
  - { offsetInCU: 0x1BB6F, offset: 0x2F6F1, size: 0x8, addend: 0x0, symName: '__ZNSt3__116forward_as_tupleB7v160006IJRKZN5Scene4initEiiE3$_3EEENS_5tupleIJDpOT_EEES8_', symObjAddr: 0x7B5C, symBinAddr: 0x10000B4E4, symSize: 0x2C }
  - { offsetInCU: 0x1BBBE, offset: 0x2F740, size: 0x8, addend: 0x0, symName: '__ZNSt3__13getB7v160006ILm0EJRKZN5Scene4initEiiE3$_3EEERNS_13tuple_elementIXT_ENS_5tupleIJDpT0_EEEE4typeERS9_', symObjAddr: 0x7D4C, symBinAddr: 0x10000B6D4, symSize: 0x24 }
  - { offsetInCU: 0x1BC02, offset: 0x2F784, size: 0x8, addend: 0x0, symName: '__ZNSt3__116forward_as_tupleB7v160006IJRKNS_9allocatorIZN5Scene4initEiiE3$_3EEEEENS_5tupleIJDpOT_EEESA_', symObjAddr: 0x80A8, symBinAddr: 0x10000BA30, symSize: 0x2C }
  - { offsetInCU: 0x1BC51, offset: 0x2F7D3, size: 0x8, addend: 0x0, symName: '__ZNSt3__13getB7v160006ILm0EJRKNS_9allocatorIZN5Scene4initEiiE3$_3EEEEERNS_13tuple_elementIXT_ENS_5tupleIJDpT0_EEEE4typeERSB_', symObjAddr: 0x828C, symBinAddr: 0x10000BC14, symSize: 0x24 }
  - { offsetInCU: 0x1BC95, offset: 0x2F817, size: 0x8, addend: 0x0, symName: '__ZNSt3__18__invokeB7v160006IRZN5Scene4initEiiE3$_3JEEEDTclclsr3stdE7declvalIT_EEspclsr3stdE7declvalIT0_EEEEOS4_DpOS5_', symObjAddr: 0x8348, symBinAddr: 0x10000BCD0, symSize: 0x24 }
  - { offsetInCU: 0x1BE3B, offset: 0x2F9BD, size: 0x8, addend: 0x0, symName: '__ZNSt3__116forward_as_tupleB7v160006IJZN5Scene4initEiiE3$_4EEENS_5tupleIJDpOT_EEES6_', symObjAddr: 0x8A9C, symBinAddr: 0x10000C424, symSize: 0x2C }
  - { offsetInCU: 0x1BE75, offset: 0x2F9F7, size: 0x8, addend: 0x0, symName: '__ZNSt3__116forward_as_tupleB7v160006IJNS_9allocatorIZN5Scene4initEiiE3$_4EEEEENS_5tupleIJDpOT_EEES8_', symObjAddr: 0x8AC8, symBinAddr: 0x10000C450, symSize: 0x2C }
  - { offsetInCU: 0x1BED9, offset: 0x2FA5B, size: 0x8, addend: 0x0, symName: '__ZNSt3__13getB7v160006ILm0EJOZN5Scene4initEiiE3$_4EEERNS_13tuple_elementIXT_ENS_5tupleIJDpT0_EEEE4typeERS8_', symObjAddr: 0x8DE0, symBinAddr: 0x10000C768, symSize: 0x24 }
  - { offsetInCU: 0x1BF1D, offset: 0x2FA9F, size: 0x8, addend: 0x0, symName: '__ZNSt3__13getB7v160006ILm0EJONS_9allocatorIZN5Scene4initEiiE3$_4EEEEERNS_13tuple_elementIXT_ENS_5tupleIJDpT0_EEEE4typeERSA_', symObjAddr: 0x8E1C, symBinAddr: 0x10000C7A4, symSize: 0x24 }
  - { offsetInCU: 0x1C46A, offset: 0x2FFEC, size: 0x8, addend: 0x0, symName: '__ZNSt3__116forward_as_tupleB7v160006IJRKZN5Scene4initEiiE3$_4EEENS_5tupleIJDpOT_EEES8_', symObjAddr: 0x93B0, symBinAddr: 0x10000CD38, symSize: 0x2C }
  - { offsetInCU: 0x1C4B9, offset: 0x3003B, size: 0x8, addend: 0x0, symName: '__ZNSt3__13getB7v160006ILm0EJRKZN5Scene4initEiiE3$_4EEERNS_13tuple_elementIXT_ENS_5tupleIJDpT0_EEEE4typeERS9_', symObjAddr: 0x95A0, symBinAddr: 0x10000CF28, symSize: 0x24 }
  - { offsetInCU: 0x1C4FD, offset: 0x3007F, size: 0x8, addend: 0x0, symName: '__ZNSt3__116forward_as_tupleB7v160006IJRKNS_9allocatorIZN5Scene4initEiiE3$_4EEEEENS_5tupleIJDpOT_EEESA_', symObjAddr: 0x98FC, symBinAddr: 0x10000D284, symSize: 0x2C }
  - { offsetInCU: 0x1C54C, offset: 0x300CE, size: 0x8, addend: 0x0, symName: '__ZNSt3__13getB7v160006ILm0EJRKNS_9allocatorIZN5Scene4initEiiE3$_4EEEEERNS_13tuple_elementIXT_ENS_5tupleIJDpT0_EEEE4typeERSB_', symObjAddr: 0x9AE0, symBinAddr: 0x10000D468, symSize: 0x24 }
  - { offsetInCU: 0x1C590, offset: 0x30112, size: 0x8, addend: 0x0, symName: '__ZNSt3__18__invokeB7v160006IRZN5Scene4initEiiE3$_4JEEEDTclclsr3stdE7declvalIT_EEspclsr3stdE7declvalIT0_EEEEOS4_DpOS5_', symObjAddr: 0x9B9C, symBinAddr: 0x10000D524, symSize: 0x24 }
  - { offsetInCU: 0x1C736, offset: 0x302B8, size: 0x8, addend: 0x0, symName: '__ZNSt3__116forward_as_tupleB7v160006IJZN5Scene4initEiiE3$_5EEENS_5tupleIJDpOT_EEES6_', symObjAddr: 0xA2F0, symBinAddr: 0x10000DC78, symSize: 0x2C }
  - { offsetInCU: 0x1C770, offset: 0x302F2, size: 0x8, addend: 0x0, symName: '__ZNSt3__116forward_as_tupleB7v160006IJNS_9allocatorIZN5Scene4initEiiE3$_5EEEEENS_5tupleIJDpOT_EEES8_', symObjAddr: 0xA31C, symBinAddr: 0x10000DCA4, symSize: 0x2C }
  - { offsetInCU: 0x1C7D4, offset: 0x30356, size: 0x8, addend: 0x0, symName: '__ZNSt3__13getB7v160006ILm0EJOZN5Scene4initEiiE3$_5EEERNS_13tuple_elementIXT_ENS_5tupleIJDpT0_EEEE4typeERS8_', symObjAddr: 0xA634, symBinAddr: 0x10000DFBC, symSize: 0x24 }
  - { offsetInCU: 0x1C818, offset: 0x3039A, size: 0x8, addend: 0x0, symName: '__ZNSt3__13getB7v160006ILm0EJONS_9allocatorIZN5Scene4initEiiE3$_5EEEEERNS_13tuple_elementIXT_ENS_5tupleIJDpT0_EEEE4typeERSA_', symObjAddr: 0xA670, symBinAddr: 0x10000DFF8, symSize: 0x24 }
  - { offsetInCU: 0x1CD65, offset: 0x308E7, size: 0x8, addend: 0x0, symName: '__ZNSt3__116forward_as_tupleB7v160006IJRKZN5Scene4initEiiE3$_5EEENS_5tupleIJDpOT_EEES8_', symObjAddr: 0xAC04, symBinAddr: 0x10000E58C, symSize: 0x2C }
  - { offsetInCU: 0x1CDB4, offset: 0x30936, size: 0x8, addend: 0x0, symName: '__ZNSt3__13getB7v160006ILm0EJRKZN5Scene4initEiiE3$_5EEERNS_13tuple_elementIXT_ENS_5tupleIJDpT0_EEEE4typeERS9_', symObjAddr: 0xADF4, symBinAddr: 0x10000E77C, symSize: 0x24 }
  - { offsetInCU: 0x1CDF8, offset: 0x3097A, size: 0x8, addend: 0x0, symName: '__ZNSt3__116forward_as_tupleB7v160006IJRKNS_9allocatorIZN5Scene4initEiiE3$_5EEEEENS_5tupleIJDpOT_EEESA_', symObjAddr: 0xB150, symBinAddr: 0x10000EAD8, symSize: 0x2C }
  - { offsetInCU: 0x1CE47, offset: 0x309C9, size: 0x8, addend: 0x0, symName: '__ZNSt3__13getB7v160006ILm0EJRKNS_9allocatorIZN5Scene4initEiiE3$_5EEEEERNS_13tuple_elementIXT_ENS_5tupleIJDpT0_EEEE4typeERSB_', symObjAddr: 0xB334, symBinAddr: 0x10000ECBC, symSize: 0x24 }
  - { offsetInCU: 0x1CE8B, offset: 0x30A0D, size: 0x8, addend: 0x0, symName: '__ZNSt3__18__invokeB7v160006IRZN5Scene4initEiiE3$_5JEEEDTclclsr3stdE7declvalIT_EEspclsr3stdE7declvalIT0_EEEEOS4_DpOS5_', symObjAddr: 0xB3F0, symBinAddr: 0x10000ED78, symSize: 0x24 }
  - { offsetInCU: 0x1D031, offset: 0x30BB3, size: 0x8, addend: 0x0, symName: '__ZNSt3__116forward_as_tupleB7v160006IJZN5Scene4initEiiE3$_6EEENS_5tupleIJDpOT_EEES6_', symObjAddr: 0xBBA4, symBinAddr: 0x10000F52C, symSize: 0x2C }
  - { offsetInCU: 0x1D06B, offset: 0x30BED, size: 0x8, addend: 0x0, symName: '__ZNSt3__116forward_as_tupleB7v160006IJNS_9allocatorIZN5Scene4initEiiE3$_6EEEEENS_5tupleIJDpOT_EEES8_', symObjAddr: 0xBBD0, symBinAddr: 0x10000F558, symSize: 0x2C }
  - { offsetInCU: 0x1D0CF, offset: 0x30C51, size: 0x8, addend: 0x0, symName: '__ZNSt3__13getB7v160006ILm0EJOZN5Scene4initEiiE3$_6EEERNS_13tuple_elementIXT_ENS_5tupleIJDpT0_EEEE4typeERS8_', symObjAddr: 0xBEE8, symBinAddr: 0x10000F870, symSize: 0x24 }
  - { offsetInCU: 0x1D113, offset: 0x30C95, size: 0x8, addend: 0x0, symName: '__ZNSt3__13getB7v160006ILm0EJONS_9allocatorIZN5Scene4initEiiE3$_6EEEEERNS_13tuple_elementIXT_ENS_5tupleIJDpT0_EEEE4typeERSA_', symObjAddr: 0xBF24, symBinAddr: 0x10000F8AC, symSize: 0x24 }
  - { offsetInCU: 0x1D660, offset: 0x311E2, size: 0x8, addend: 0x0, symName: '__ZNSt3__116forward_as_tupleB7v160006IJRKZN5Scene4initEiiE3$_6EEENS_5tupleIJDpOT_EEES8_', symObjAddr: 0xC4B8, symBinAddr: 0x10000FE40, symSize: 0x2C }
  - { offsetInCU: 0x1D6AF, offset: 0x31231, size: 0x8, addend: 0x0, symName: '__ZNSt3__13getB7v160006ILm0EJRKZN5Scene4initEiiE3$_6EEERNS_13tuple_elementIXT_ENS_5tupleIJDpT0_EEEE4typeERS9_', symObjAddr: 0xC6A8, symBinAddr: 0x100010030, symSize: 0x24 }
  - { offsetInCU: 0x1D6F3, offset: 0x31275, size: 0x8, addend: 0x0, symName: '__ZNSt3__116forward_as_tupleB7v160006IJRKNS_9allocatorIZN5Scene4initEiiE3$_6EEEEENS_5tupleIJDpOT_EEESA_', symObjAddr: 0xCA04, symBinAddr: 0x10001038C, symSize: 0x2C }
  - { offsetInCU: 0x1D742, offset: 0x312C4, size: 0x8, addend: 0x0, symName: '__ZNSt3__13getB7v160006ILm0EJRKNS_9allocatorIZN5Scene4initEiiE3$_6EEEEERNS_13tuple_elementIXT_ENS_5tupleIJDpT0_EEEE4typeERSB_', symObjAddr: 0xCBE8, symBinAddr: 0x100010570, symSize: 0x24 }
  - { offsetInCU: 0x1D786, offset: 0x31308, size: 0x8, addend: 0x0, symName: '__ZNSt3__18__invokeB7v160006IRZN5Scene4initEiiE3$_6JEEEDTclclsr3stdE7declvalIT_EEspclsr3stdE7declvalIT0_EEEEOS4_DpOS5_', symObjAddr: 0xCCA4, symBinAddr: 0x10001062C, symSize: 0x24 }
  - { offsetInCU: 0x1D92C, offset: 0x314AE, size: 0x8, addend: 0x0, symName: '__ZNSt3__116forward_as_tupleB7v160006IJZN5Scene4initEiiE3$_7EEENS_5tupleIJDpOT_EEES6_', symObjAddr: 0xD440, symBinAddr: 0x100010DC8, symSize: 0x2C }
  - { offsetInCU: 0x1D966, offset: 0x314E8, size: 0x8, addend: 0x0, symName: '__ZNSt3__116forward_as_tupleB7v160006IJNS_9allocatorIZN5Scene4initEiiE3$_7EEEEENS_5tupleIJDpOT_EEES8_', symObjAddr: 0xD46C, symBinAddr: 0x100010DF4, symSize: 0x2C }
  - { offsetInCU: 0x1D9CA, offset: 0x3154C, size: 0x8, addend: 0x0, symName: '__ZNSt3__13getB7v160006ILm0EJOZN5Scene4initEiiE3$_7EEERNS_13tuple_elementIXT_ENS_5tupleIJDpT0_EEEE4typeERS8_', symObjAddr: 0xD784, symBinAddr: 0x10001110C, symSize: 0x24 }
  - { offsetInCU: 0x1DA0E, offset: 0x31590, size: 0x8, addend: 0x0, symName: '__ZNSt3__13getB7v160006ILm0EJONS_9allocatorIZN5Scene4initEiiE3$_7EEEEERNS_13tuple_elementIXT_ENS_5tupleIJDpT0_EEEE4typeERSA_', symObjAddr: 0xD7C0, symBinAddr: 0x100011148, symSize: 0x24 }
  - { offsetInCU: 0x1DF5B, offset: 0x31ADD, size: 0x8, addend: 0x0, symName: '__ZNSt3__116forward_as_tupleB7v160006IJRKZN5Scene4initEiiE3$_7EEENS_5tupleIJDpOT_EEES8_', symObjAddr: 0xDD54, symBinAddr: 0x1000116DC, symSize: 0x2C }
  - { offsetInCU: 0x1DFAA, offset: 0x31B2C, size: 0x8, addend: 0x0, symName: '__ZNSt3__13getB7v160006ILm0EJRKZN5Scene4initEiiE3$_7EEERNS_13tuple_elementIXT_ENS_5tupleIJDpT0_EEEE4typeERS9_', symObjAddr: 0xDF44, symBinAddr: 0x1000118CC, symSize: 0x24 }
  - { offsetInCU: 0x1DFEE, offset: 0x31B70, size: 0x8, addend: 0x0, symName: '__ZNSt3__116forward_as_tupleB7v160006IJRKNS_9allocatorIZN5Scene4initEiiE3$_7EEEEENS_5tupleIJDpOT_EEESA_', symObjAddr: 0xE2A0, symBinAddr: 0x100011C28, symSize: 0x2C }
  - { offsetInCU: 0x1E03D, offset: 0x31BBF, size: 0x8, addend: 0x0, symName: '__ZNSt3__13getB7v160006ILm0EJRKNS_9allocatorIZN5Scene4initEiiE3$_7EEEEERNS_13tuple_elementIXT_ENS_5tupleIJDpT0_EEEE4typeERSB_', symObjAddr: 0xE484, symBinAddr: 0x100011E0C, symSize: 0x24 }
  - { offsetInCU: 0x1E081, offset: 0x31C03, size: 0x8, addend: 0x0, symName: '__ZNSt3__18__invokeB7v160006IRZN5Scene4initEiiE3$_7JEEEDTclclsr3stdE7declvalIT_EEspclsr3stdE7declvalIT0_EEEEOS4_DpOS5_', symObjAddr: 0xE540, symBinAddr: 0x100011EC8, symSize: 0x24 }
  - { offsetInCU: 0x1E0BA, offset: 0x31C3C, size: 0x8, addend: 0x0, symName: __ZNSt3__115__debug_db_swapB7v160006INS_12basic_stringIcNS_11char_traitsIcEENS_9allocatorIcEEEEEEvPT_S8_, symObjAddr: 0xE790, symBinAddr: 0x1000120A0, symSize: 0x14 }
  - { offsetInCU: 0x1E76F, offset: 0x322F1, size: 0x8, addend: 0x0, symName: '__ZNSt3__116forward_as_tupleB7v160006IJZN5Scene12createWindowENS_12basic_stringIcNS_11char_traitsIcEENS_9allocatorIcEEEEE3$_8EEENS_5tupleIJDpOT_EEESC_', symObjAddr: 0xF210, symBinAddr: 0x100012AB0, symSize: 0x2C }
  - { offsetInCU: 0x1E7A9, offset: 0x3232B, size: 0x8, addend: 0x0, symName: '__ZNSt3__116forward_as_tupleB7v160006IJNS_9allocatorIZN5Scene12createWindowENS_12basic_stringIcNS_11char_traitsIcEENS1_IcEEEEE3$_8EEEEENS_5tupleIJDpOT_EEESD_', symObjAddr: 0xF23C, symBinAddr: 0x100012ADC, symSize: 0x2C }
  - { offsetInCU: 0x1E80D, offset: 0x3238F, size: 0x8, addend: 0x0, symName: '__ZNSt3__13getB7v160006ILm0EJOZN5Scene12createWindowENS_12basic_stringIcNS_11char_traitsIcEENS_9allocatorIcEEEEE3$_8EEERNS_13tuple_elementIXT_ENS_5tupleIJDpT0_EEEE4typeERSE_', symObjAddr: 0xF5A8, symBinAddr: 0x100012E48, symSize: 0x24 }
  - { offsetInCU: 0x1E851, offset: 0x323D3, size: 0x8, addend: 0x0, symName: '__ZNSt3__13getB7v160006ILm0EJONS_9allocatorIZN5Scene12createWindowENS_12basic_stringIcNS_11char_traitsIcEENS1_IcEEEEE3$_8EEEEERNS_13tuple_elementIXT_ENS_5tupleIJDpT0_EEEE4typeERSF_', symObjAddr: 0xF660, symBinAddr: 0x100012F00, symSize: 0x24 }
  - { offsetInCU: 0x1EA2F, offset: 0x325B1, size: 0x8, addend: 0x0, symName: '__ZNSt3__116forward_as_tupleB7v160006IJRKZN5Scene12createWindowENS_12basic_stringIcNS_11char_traitsIcEENS_9allocatorIcEEEEE3$_8EEENS_5tupleIJDpOT_EEESE_', symObjAddr: 0xFB28, symBinAddr: 0x1000133C8, symSize: 0x2C }
  - { offsetInCU: 0x1EA7E, offset: 0x32600, size: 0x8, addend: 0x0, symName: '__ZNSt3__13getB7v160006ILm0EJRKZN5Scene12createWindowENS_12basic_stringIcNS_11char_traitsIcEENS_9allocatorIcEEEEE3$_8EEERNS_13tuple_elementIXT_ENS_5tupleIJDpT0_EEEE4typeERSF_', symObjAddr: 0xFD18, symBinAddr: 0x1000135B8, symSize: 0x24 }
  - { offsetInCU: 0x1EAC2, offset: 0x32644, size: 0x8, addend: 0x0, symName: '__ZNSt3__116forward_as_tupleB7v160006IJRKNS_9allocatorIZN5Scene12createWindowENS_12basic_stringIcNS_11char_traitsIcEENS1_IcEEEEE3$_8EEEEENS_5tupleIJDpOT_EEESF_', symObjAddr: 0x100F4, symBinAddr: 0x100013994, symSize: 0x2C }
  - { offsetInCU: 0x1EB11, offset: 0x32693, size: 0x8, addend: 0x0, symName: '__ZNSt3__13getB7v160006ILm0EJRKNS_9allocatorIZN5Scene12createWindowENS_12basic_stringIcNS_11char_traitsIcEENS1_IcEEEEE3$_8EEEEERNS_13tuple_elementIXT_ENS_5tupleIJDpT0_EEEE4typeERSG_', symObjAddr: 0x10300, symBinAddr: 0x100013BA0, symSize: 0x24 }
  - { offsetInCU: 0x1EB55, offset: 0x326D7, size: 0x8, addend: 0x0, symName: '__ZNSt3__18__invokeB7v160006IRZN5Scene12createWindowENS_12basic_stringIcNS_11char_traitsIcEENS_9allocatorIcEEEEE3$_8JEEEDTclclsr3stdE7declvalIT_EEspclsr3stdE7declvalIT0_EEEEOSA_DpOSB_', symObjAddr: 0x103D0, symBinAddr: 0x100013C70, symSize: 0x24 }
  - { offsetInCU: 0x1EB8E, offset: 0x32710, size: 0x8, addend: 0x0, symName: __ZNSt3__13maxB7v160006ImEERKT_S3_S3_, symObjAddr: 0x10D20, symBinAddr: 0x100014368, symSize: 0x2C }
  - { offsetInCU: 0x1EBD1, offset: 0x32753, size: 0x8, addend: 0x0, symName: __ZNSt3__13minB7v160006ImEERKT_S3_S3_, symObjAddr: 0x10D4C, symBinAddr: 0x100014394, symSize: 0x2C }
  - { offsetInCU: 0x1EE15, offset: 0x32997, size: 0x8, addend: 0x0, symName: __ZNSt3__13minB7v160006ImNS_6__lessImmEEEERKT_S5_S5_T0_, symObjAddr: 0x10DD8, symBinAddr: 0x100014420, symSize: 0x54 }
  - { offsetInCU: 0x1EEAA, offset: 0x32A2C, size: 0x8, addend: 0x0, symName: __ZNSt3__120__throw_length_errorB7v160006EPKc, symObjAddr: 0x10EB4, symBinAddr: 0x1000144FC, symSize: 0x64 }
  - { offsetInCU: 0x1EED3, offset: 0x32A55, size: 0x8, addend: 0x0, symName: __ZNSt3__13maxB7v160006ImNS_6__lessImmEEEERKT_S5_S5_T0_, symObjAddr: 0x10FF8, symBinAddr: 0x1000145E0, symSize: 0x54 }
  - { offsetInCU: 0x1EF2D, offset: 0x32AAF, size: 0x8, addend: 0x0, symName: __ZNSt3__119__allocate_at_leastB7v160006INS_9allocatorIP6WindowEEEENS_19__allocation_resultINS_16allocator_traitsIT_E7pointerEEERS7_m, symObjAddr: 0x1115C, symBinAddr: 0x100014744, symSize: 0x40 }
  - { offsetInCU: 0x1EF70, offset: 0x32AF2, size: 0x8, addend: 0x0, symName: __ZNSt3__142__uninitialized_allocator_move_if_noexceptB7v160006INS_9allocatorIP6WindowEENS_16reverse_iteratorIPS3_EES7_S3_vEET1_RT_T0_SB_S8_, symObjAddr: 0x113C8, symBinAddr: 0x1000148F8, symSize: 0x78 }
  - { offsetInCU: 0x1EFEE, offset: 0x32B70, size: 0x8, addend: 0x0, symName: __ZNSt3__14swapB7v160006IPP6WindowEENS_9enable_ifIXaasr21is_move_constructibleIT_EE5valuesr18is_move_assignableIS5_EE5valueEvE4typeERS5_S8_, symObjAddr: 0x1148C, symBinAddr: 0x1000149BC, symSize: 0x3C }
  - { offsetInCU: 0x1F040, offset: 0x32BC2, size: 0x8, addend: 0x0, symName: __ZNSt3__125__debug_db_invalidate_allB7v160006INS_6vectorIP6WindowNS_9allocatorIS3_EEEEEEvPT_, symObjAddr: 0x11574, symBinAddr: 0x100014AA4, symSize: 0x10 }
  - { offsetInCU: 0x1F071, offset: 0x32BF3, size: 0x8, addend: 0x0, symName: __ZNSt3__14moveB7v160006INS_16reverse_iteratorIPP6WindowEES5_EET0_T_S7_S6_, symObjAddr: 0x115CC, symBinAddr: 0x100014AB4, symSize: 0x78 }
  - { offsetInCU: 0x1F0CB, offset: 0x32C4D, size: 0x8, addend: 0x0, symName: __ZNSt3__16__moveB7v160006INS_17_ClassicAlgPolicyENS_16reverse_iteratorIPP6WindowEES6_S6_EENS_4pairIT0_T2_EES8_T1_S9_, symObjAddr: 0x11644, symBinAddr: 0x100014B2C, symSize: 0x64 }
  - { offsetInCU: 0x1F137, offset: 0x32CB9, size: 0x8, addend: 0x0, symName: __ZNSt3__123__dispatch_copy_or_moveB7v160006INS_17_ClassicAlgPolicyENS_11__move_loopIS1_EENS_14__move_trivialENS_16reverse_iteratorIPP6WindowEES9_S9_EENS_4pairIT2_T4_EESB_T3_SC_, symObjAddr: 0x116A8, symBinAddr: 0x100014B90, symSize: 0x64 }
  - { offsetInCU: 0x1F1B5, offset: 0x32D37, size: 0x8, addend: 0x0, symName: __ZNSt3__121__unwrap_and_dispatchB7v160006INS_10__overloadINS_11__move_loopINS_17_ClassicAlgPolicyEEENS_14__move_trivialEEENS_16reverse_iteratorIPP6WindowEESB_SB_Li0EEENS_4pairIT0_T2_EESD_T1_SE_, symObjAddr: 0x1170C, symBinAddr: 0x100014BF4, symSize: 0x12C }
  - { offsetInCU: 0x1F248, offset: 0x32DCA, size: 0x8, addend: 0x0, symName: __ZNSt3__114__unwrap_rangeB7v160006INS_16reverse_iteratorIPP6WindowEES5_EENS_4pairIT0_S7_EET_S9_, symObjAddr: 0x11838, symBinAddr: 0x100014D20, symSize: 0x84 }
  - { offsetInCU: 0x1F3C3, offset: 0x32F45, size: 0x8, addend: 0x0, symName: __ZNSt3__113__unwrap_iterB7v160006INS_16reverse_iteratorIPP6WindowEENS_18__unwrap_iter_implIS5_Lb0EEELi0EEEDTclsrT0_8__unwrapclsr3stdE7declvalIT_EEEES9_, symObjAddr: 0x1195C, symBinAddr: 0x100014E44, symSize: 0x44 }
  - { offsetInCU: 0x1F408, offset: 0x32F8A, size: 0x8, addend: 0x0, symName: __ZNSt3__19make_pairB7v160006INS_16reverse_iteratorIPP6WindowEES5_EENS_4pairINS_18__unwrap_ref_decayIT_E4typeENS7_IT0_E4typeEEEOS8_OSB_, symObjAddr: 0x119A0, symBinAddr: 0x100014E88, symSize: 0x38 }
  - { offsetInCU: 0x1F457, offset: 0x32FD9, size: 0x8, addend: 0x0, symName: __ZNSt3__114__rewrap_rangeB7v160006INS_16reverse_iteratorIPP6WindowEES5_EET_S6_T0_, symObjAddr: 0x119D8, symBinAddr: 0x100014EC0, symSize: 0x5C }
  - { offsetInCU: 0x1F4A3, offset: 0x33025, size: 0x8, addend: 0x0, symName: __ZNSt3__113__rewrap_iterB7v160006INS_16reverse_iteratorIPP6WindowEES5_NS_18__unwrap_iter_implIS5_Lb0EEEEET_S8_T0_, symObjAddr: 0x11A34, symBinAddr: 0x100014F1C, symSize: 0x74 }
  - { offsetInCU: 0x1F4F8, offset: 0x3307A, size: 0x8, addend: 0x0, symName: __ZNSt3__1neB7v160006IPP6WindowS3_EEbRKNS_16reverse_iteratorIT_EERKNS4_IT0_EE, symObjAddr: 0x11AA8, symBinAddr: 0x100014F90, symSize: 0x48 }
  - { offsetInCU: 0x1FC61, offset: 0x337E3, size: 0x8, addend: 0x0, symName: '__ZNSt3__116forward_as_tupleB7v160006IJZN5Scene18createBlocksWindowEiiiiE3$_9EEENS_5tupleIJDpOT_EEES6_', symObjAddr: 0x128E8, symBinAddr: 0x100015D1C, symSize: 0x2C }
  - { offsetInCU: 0x1FC9B, offset: 0x3381D, size: 0x8, addend: 0x0, symName: '__ZNSt3__116forward_as_tupleB7v160006IJNS_9allocatorIZN5Scene18createBlocksWindowEiiiiE3$_9EEEEENS_5tupleIJDpOT_EEES8_', symObjAddr: 0x12914, symBinAddr: 0x100015D48, symSize: 0x2C }
  - { offsetInCU: 0x1FCFF, offset: 0x33881, size: 0x8, addend: 0x0, symName: '__ZNSt3__13getB7v160006ILm0EJOZN5Scene18createBlocksWindowEiiiiE3$_9EEERNS_13tuple_elementIXT_ENS_5tupleIJDpT0_EEEE4typeERS8_', symObjAddr: 0x12C80, symBinAddr: 0x1000160B4, symSize: 0x24 }
  - { offsetInCU: 0x1FD43, offset: 0x338C5, size: 0x8, addend: 0x0, symName: '__ZNSt3__13getB7v160006ILm0EJONS_9allocatorIZN5Scene18createBlocksWindowEiiiiE3$_9EEEEERNS_13tuple_elementIXT_ENS_5tupleIJDpT0_EEEE4typeERSA_', symObjAddr: 0x12D38, symBinAddr: 0x10001616C, symSize: 0x24 }
  - { offsetInCU: 0x1FF21, offset: 0x33AA3, size: 0x8, addend: 0x0, symName: '__ZNSt3__116forward_as_tupleB7v160006IJRKZN5Scene18createBlocksWindowEiiiiE3$_9EEENS_5tupleIJDpOT_EEES8_', symObjAddr: 0x13200, symBinAddr: 0x100016634, symSize: 0x2C }
  - { offsetInCU: 0x1FF70, offset: 0x33AF2, size: 0x8, addend: 0x0, symName: '__ZNSt3__13getB7v160006ILm0EJRKZN5Scene18createBlocksWindowEiiiiE3$_9EEERNS_13tuple_elementIXT_ENS_5tupleIJDpT0_EEEE4typeERS9_', symObjAddr: 0x133F0, symBinAddr: 0x100016824, symSize: 0x24 }
  - { offsetInCU: 0x1FFB4, offset: 0x33B36, size: 0x8, addend: 0x0, symName: '__ZNSt3__116forward_as_tupleB7v160006IJRKNS_9allocatorIZN5Scene18createBlocksWindowEiiiiE3$_9EEEEENS_5tupleIJDpOT_EEESA_', symObjAddr: 0x137CC, symBinAddr: 0x100016C00, symSize: 0x2C }
  - { offsetInCU: 0x20003, offset: 0x33B85, size: 0x8, addend: 0x0, symName: '__ZNSt3__13getB7v160006ILm0EJRKNS_9allocatorIZN5Scene18createBlocksWindowEiiiiE3$_9EEEEERNS_13tuple_elementIXT_ENS_5tupleIJDpT0_EEEE4typeERSB_', symObjAddr: 0x139D8, symBinAddr: 0x100016E0C, symSize: 0x24 }
  - { offsetInCU: 0x20047, offset: 0x33BC9, size: 0x8, addend: 0x0, symName: '__ZNSt3__18__invokeB7v160006IRZN5Scene18createBlocksWindowEiiiiE3$_9JEEEDTclclsr3stdE7declvalIT_EEspclsr3stdE7declvalIT0_EEEEOS4_DpOS5_', symObjAddr: 0x13AA8, symBinAddr: 0x100016EDC, symSize: 0x24 }
  - { offsetInCU: 0x20081, offset: 0x33C03, size: 0x8, addend: 0x0, symName: __ZNSt3__120__throw_out_of_rangeB7v160006EPKc, symObjAddr: 0x13C14, symBinAddr: 0x100017048, symSize: 0x64 }
  - { offsetInCU: 0x200AB, offset: 0x33C2D, size: 0x8, addend: 0x0, symName: __ZNSt3__118__constexpr_memcmpB7v160006IcEEiPKT_S3_m, symObjAddr: 0x13D64, symBinAddr: 0x100017198, symSize: 0x34 }
  - { offsetInCU: 0x200FC, offset: 0x33C7E, size: 0x8, addend: 0x0, symName: __ZNSt3__1miB7v160006IPKP6WindowS4_EEDTmicldtfp_4baseEcldtfp0_4baseEERKNS_11__wrap_iterIT_EERKNS6_IT0_EE, symObjAddr: 0x13E54, symBinAddr: 0x100017288, symSize: 0x48 }
  - { offsetInCU: 0x20148, offset: 0x33CCA, size: 0x8, addend: 0x0, symName: __ZNSt3__14moveB7v160006IPP6WindowS3_EET0_T_S5_S4_, symObjAddr: 0x13F28, symBinAddr: 0x10001735C, symSize: 0x40 }
  - { offsetInCU: 0x201A2, offset: 0x33D24, size: 0x8, addend: 0x0, symName: __ZNSt3__16__moveB7v160006INS_17_ClassicAlgPolicyEPP6WindowS4_S4_EENS_4pairIT0_T2_EES6_T1_S7_, symObjAddr: 0x14198, symBinAddr: 0x100017540, symSize: 0x44 }
  - { offsetInCU: 0x2020E, offset: 0x33D90, size: 0x8, addend: 0x0, symName: __ZNSt3__123__dispatch_copy_or_moveB7v160006INS_17_ClassicAlgPolicyENS_11__move_loopIS1_EENS_14__move_trivialEPP6WindowS7_S7_EENS_4pairIT2_T4_EES9_T3_SA_, symObjAddr: 0x141DC, symBinAddr: 0x100017584, symSize: 0x44 }
  - { offsetInCU: 0x2028C, offset: 0x33E0E, size: 0x8, addend: 0x0, symName: __ZNSt3__121__unwrap_and_dispatchB7v160006INS_10__overloadINS_11__move_loopINS_17_ClassicAlgPolicyEEENS_14__move_trivialEEEPP6WindowS9_S9_Li0EEENS_4pairIT0_T2_EESB_T1_SC_, symObjAddr: 0x14220, symBinAddr: 0x1000175C8, symSize: 0xB4 }
  - { offsetInCU: 0x2031D, offset: 0x33E9F, size: 0x8, addend: 0x0, symName: __ZNSt3__114__unwrap_rangeB7v160006IPP6WindowS3_EENS_4pairIT0_S5_EET_S7_, symObjAddr: 0x142D4, symBinAddr: 0x10001767C, symSize: 0x60 }
  - { offsetInCU: 0x204B3, offset: 0x34035, size: 0x8, addend: 0x0, symName: __ZNSt3__113__unwrap_iterB7v160006IPP6WindowNS_18__unwrap_iter_implIS3_Lb1EEELi0EEEDTclsrT0_8__unwrapclsr3stdE7declvalIT_EEEES7_, symObjAddr: 0x1437C, symBinAddr: 0x100017724, symSize: 0x24 }
  - { offsetInCU: 0x204F8, offset: 0x3407A, size: 0x8, addend: 0x0, symName: __ZNSt3__19make_pairB7v160006IPP6WindowS3_EENS_4pairINS_18__unwrap_ref_decayIT_E4typeENS5_IT0_E4typeEEEOS6_OS9_, symObjAddr: 0x143A0, symBinAddr: 0x100017748, symSize: 0x38 }
  - { offsetInCU: 0x20547, offset: 0x340C9, size: 0x8, addend: 0x0, symName: __ZNSt3__114__rewrap_rangeB7v160006IPP6WindowS3_EET_S4_T0_, symObjAddr: 0x143D8, symBinAddr: 0x100017780, symSize: 0x2C }
  - { offsetInCU: 0x20593, offset: 0x34115, size: 0x8, addend: 0x0, symName: __ZNSt3__113__rewrap_iterB7v160006IPP6WindowS3_NS_18__unwrap_iter_implIS3_Lb1EEEEET_S6_T0_, symObjAddr: 0x14404, symBinAddr: 0x1000177AC, symSize: 0x3C }
  - { offsetInCU: 0x205E8, offset: 0x3416A, size: 0x8, addend: 0x0, symName: __ZNSt3__119__copy_trivial_implB7v160006IP6WindowS2_EENS_4pairIPT_PT0_EES5_S5_S7_, symObjAddr: 0x14440, symBinAddr: 0x1000177E8, symSize: 0x84 }
  - { offsetInCU: 0x20651, offset: 0x341D3, size: 0x8, addend: 0x0, symName: __ZNSt3__19make_pairB7v160006IRPP6WindowS3_EENS_4pairINS_18__unwrap_ref_decayIT_E4typeENS6_IT0_E4typeEEEOS7_OSA_, symObjAddr: 0x144C4, symBinAddr: 0x10001786C, symSize: 0x38 }
  - { offsetInCU: 0x211CD, offset: 0x34D4F, size: 0x8, addend: 0x0, symName: __ZSt28__throw_bad_array_new_lengthB7v160006v, symObjAddr: 0x2C24, symBinAddr: 0x100006628, symSize: 0x34 }
  - { offsetInCU: 0x226BD, offset: 0x3623F, size: 0x8, addend: 0x0, symName: __ZN5Scene11sceneHeightE, symObjAddr: 0xFA840, symBinAddr: 0x10006C03C, symSize: 0x0 }
  - { offsetInCU: 0x22A69, offset: 0x365EB, size: 0x8, addend: 0x0, symName: __ZN5Scene4initEii, symObjAddr: 0xAC, symBinAddr: 0x100003D58, symSize: 0x9B8 }
  - { offsetInCU: 0x23C75, offset: 0x377F7, size: 0x8, addend: 0x0, symName: __ZN5Scene12createWindowENSt3__112basic_stringIcNS0_11char_traitsIcEENS0_9allocatorIcEEEE, symObjAddr: 0xC64, symBinAddr: 0x1000048DC, symSize: 0x3D0 }
  - { offsetInCU: 0x23FDE, offset: 0x37B60, size: 0x8, addend: 0x0, symName: __ZNSt3__16vectorIP6WindowNS_9allocatorIS2_EEE26__swap_out_circular_bufferERNS_14__split_bufferIS2_RS4_EE, symObjAddr: 0x10B20, symBinAddr: 0x1000141A8, symSize: 0x118 }
  - { offsetInCU: 0x24034, offset: 0x37BB6, size: 0x8, addend: 0x0, symName: __ZN5Scene18createBlocksWindowEiiii, symObjAddr: 0x11C0, symBinAddr: 0x100004DEC, symSize: 0x414 }
  - { offsetInCU: 0x26131, offset: 0x39CB3, size: 0x8, addend: 0x0, symName: __ZN5SceneC2Ev, symObjAddr: 0x0, symBinAddr: 0x100003CAC, symSize: 0x54 }
  - { offsetInCU: 0x2615B, offset: 0x39CDD, size: 0x8, addend: 0x0, symName: __ZNSt3__16vectorIP6WindowNS_9allocatorIS2_EEEC1B7v160006Ev, symObjAddr: 0x54, symBinAddr: 0x100003D00, symSize: 0x2C }
  - { offsetInCU: 0x26184, offset: 0x39D06, size: 0x8, addend: 0x0, symName: __ZN5SceneC1Ev, symObjAddr: 0x80, symBinAddr: 0x100003D2C, symSize: 0x2C }
  - { offsetInCU: 0x261B3, offset: 0x39D35, size: 0x8, addend: 0x0, symName: '__ZNSt3__18functionIFvvEEC1IZN5Scene4initEiiE3$_0vEET_', symObjAddr: 0xA98, symBinAddr: 0x100004710, symSize: 0x34 }
  - { offsetInCU: 0x261F7, offset: 0x39D79, size: 0x8, addend: 0x0, symName: __ZNSt3__18functionIFvvEED1Ev, symObjAddr: 0xACC, symBinAddr: 0x100004744, symSize: 0x2C }
  - { offsetInCU: 0x26222, offset: 0x39DA4, size: 0x8, addend: 0x0, symName: '__ZNSt3__18functionIFvvEEC1IZN5Scene4initEiiE3$_1vEET_', symObjAddr: 0xAF8, symBinAddr: 0x100004770, symSize: 0x34 }
  - { offsetInCU: 0x26266, offset: 0x39DE8, size: 0x8, addend: 0x0, symName: '__ZNSt3__18functionIFvvEEC1IZN5Scene4initEiiE3$_2vEET_', symObjAddr: 0xB2C, symBinAddr: 0x1000047A4, symSize: 0x34 }
  - { offsetInCU: 0x262AA, offset: 0x39E2C, size: 0x8, addend: 0x0, symName: '__ZNSt3__18functionIFvvEEC1IZN5Scene4initEiiE3$_3vEET_', symObjAddr: 0xB60, symBinAddr: 0x1000047D8, symSize: 0x34 }
  - { offsetInCU: 0x262EE, offset: 0x39E70, size: 0x8, addend: 0x0, symName: '__ZNSt3__18functionIFvvEEC1IZN5Scene4initEiiE3$_4vEET_', symObjAddr: 0xB94, symBinAddr: 0x10000480C, symSize: 0x34 }
  - { offsetInCU: 0x26332, offset: 0x39EB4, size: 0x8, addend: 0x0, symName: '__ZNSt3__18functionIFvvEEC1IZN5Scene4initEiiE3$_5vEET_', symObjAddr: 0xBC8, symBinAddr: 0x100004840, symSize: 0x34 }
  - { offsetInCU: 0x26376, offset: 0x39EF8, size: 0x8, addend: 0x0, symName: '__ZNSt3__18functionIFvvEEC1IZN5Scene4initEiiE3$_6vEET_', symObjAddr: 0xBFC, symBinAddr: 0x100004874, symSize: 0x34 }
  - { offsetInCU: 0x263BA, offset: 0x39F3C, size: 0x8, addend: 0x0, symName: '__ZNSt3__18functionIFvvEEC1IZN5Scene4initEiiE3$_7vEET_', symObjAddr: 0xC30, symBinAddr: 0x1000048A8, symSize: 0x34 }
  - { offsetInCU: 0x263FE, offset: 0x39F80, size: 0x8, addend: 0x0, symName: '__ZNSt3__18functionIFvvEEC1IZN5Scene12createWindowENS_12basic_stringIcNS_11char_traitsIcEENS_9allocatorIcEEEEE3$_8vEET_', symObjAddr: 0x10A0, symBinAddr: 0x100004CF0, symSize: 0x34 }
  - { offsetInCU: 0x26448, offset: 0x39FCA, size: 0x8, addend: 0x0, symName: '__ZZN5Scene12createWindowENSt3__112basic_stringIcNS0_11char_traitsIcEENS0_9allocatorIcEEEEEN3$_8D1Ev', symObjAddr: 0x10D4, symBinAddr: 0x100004D24, symSize: 0x2C }
  - { offsetInCU: 0x26473, offset: 0x39FF5, size: 0x8, addend: 0x0, symName: __ZNKSt3__112basic_stringIcNS_11char_traitsIcEENS_9allocatorIcEEE5emptyB7v160006Ev, symObjAddr: 0x1100, symBinAddr: 0x100004D50, symSize: 0x30 }
  - { offsetInCU: 0x26497, offset: 0x3A019, size: 0x8, addend: 0x0, symName: __ZNSt3__16vectorIP6WindowNS_9allocatorIS2_EEE9push_backB7v160006ERKS2_, symObjAddr: 0x1154, symBinAddr: 0x100004D80, symSize: 0x6C }
  - { offsetInCU: 0x264CD, offset: 0x3A04F, size: 0x8, addend: 0x0, symName: '__ZNSt3__18functionIFvvEEC1IZN5Scene18createBlocksWindowEiiiiE3$_9vEET_', symObjAddr: 0x15D4, symBinAddr: 0x100005200, symSize: 0x34 }
  - { offsetInCU: 0x26517, offset: 0x3A099, size: 0x8, addend: 0x0, symName: '__ZZN5Scene18createBlocksWindowEiiiiEN3$_9D1Ev', symObjAddr: 0x1608, symBinAddr: 0x100005234, symSize: 0x2C }
  - { offsetInCU: 0x26542, offset: 0x3A0C4, size: 0x8, addend: 0x0, symName: __ZN6Blocks8setLevelEi, symObjAddr: 0x1634, symBinAddr: 0x100005260, symSize: 0x20 }
  - { offsetInCU: 0x26575, offset: 0x3A0F7, size: 0x8, addend: 0x0, symName: __ZN5Scene12deleteWindowENSt3__112basic_stringIcNS0_11char_traitsIcEENS0_9allocatorIcEEEE, symObjAddr: 0x1654, symBinAddr: 0x100005280, symSize: 0x140 }
  - { offsetInCU: 0x265E7, offset: 0x3A169, size: 0x8, addend: 0x0, symName: __ZNSt3__16vectorIP6WindowNS_9allocatorIS2_EEE2atEm, symObjAddr: 0x1794, symBinAddr: 0x1000053C0, symSize: 0x60 }
  - { offsetInCU: 0x2661D, offset: 0x3A19F, size: 0x8, addend: 0x0, symName: __ZN10GameObject5getIdEv, symObjAddr: 0x193C, symBinAddr: 0x100005568, symSize: 0x3C }
  - { offsetInCU: 0x26641, offset: 0x3A1C3, size: 0x8, addend: 0x0, symName: __ZNSt3__16vectorIP6WindowNS_9allocatorIS2_EEE5eraseB7v160006ENS_11__wrap_iterIPKS2_EE, symObjAddr: 0x1978, symBinAddr: 0x1000055A4, symSize: 0xA4 }
  - { offsetInCU: 0x26695, offset: 0x3A217, size: 0x8, addend: 0x0, symName: __ZNSt3__16vectorIP6WindowNS_9allocatorIS2_EEE5beginB7v160006Ev, symObjAddr: 0x1A1C, symBinAddr: 0x100005648, symSize: 0x30 }
  - { offsetInCU: 0x266BC, offset: 0x3A23E, size: 0x8, addend: 0x0, symName: __ZNKSt3__111__wrap_iterIPP6WindowEplB7v160006El, symObjAddr: 0x1A4C, symBinAddr: 0x100005678, symSize: 0x3C }
  - { offsetInCU: 0x26707, offset: 0x3A289, size: 0x8, addend: 0x0, symName: __ZNSt3__111__wrap_iterIPKP6WindowEC1B7v160006IPS2_EERKNS0_IT_EEPNS_9enable_ifIXsr14is_convertibleIS8_S4_EE5valueEvE4typeE, symObjAddr: 0x1A88, symBinAddr: 0x1000056B4, symSize: 0x3C }
  - { offsetInCU: 0x26752, offset: 0x3A2D4, size: 0x8, addend: 0x0, symName: '__ZZN5Scene12createWindowENSt3__112basic_stringIcNS0_11char_traitsIcEENS0_9allocatorIcEEEEEN3$_8D2Ev', symObjAddr: 0x1B20, symBinAddr: 0x1000056F0, symSize: 0x30 }
  - { offsetInCU: 0x2677D, offset: 0x3A2FF, size: 0x8, addend: 0x0, symName: '__ZZN5Scene18createBlocksWindowEiiiiEN3$_9D2Ev', symObjAddr: 0x1B50, symBinAddr: 0x100005720, symSize: 0x30 }
  - { offsetInCU: 0x267AD, offset: 0x3A32F, size: 0x8, addend: 0x0, symName: __ZNSt3__16vectorIP6WindowNS_9allocatorIS2_EEEC2B7v160006Ev, symObjAddr: 0x1D4C, symBinAddr: 0x100005750, symSize: 0x58 }
  - { offsetInCU: 0x267DB, offset: 0x3A35D, size: 0x8, addend: 0x0, symName: __ZNSt3__117__compressed_pairIPP6WindowNS_9allocatorIS2_EEEC1B7v160006IDnNS_18__default_init_tagEEEOT_OT0_, symObjAddr: 0x1DA4, symBinAddr: 0x1000057A8, symSize: 0x3C }
  - { offsetInCU: 0x26832, offset: 0x3A3B4, size: 0x8, addend: 0x0, symName: __ZNSt3__117__compressed_pairIPP6WindowNS_9allocatorIS2_EEEC2B7v160006IDnNS_18__default_init_tagEEEOT_OT0_, symObjAddr: 0x1DF0, symBinAddr: 0x1000057F4, symSize: 0x40 }
  - { offsetInCU: 0x26889, offset: 0x3A40B, size: 0x8, addend: 0x0, symName: __ZNSt3__122__compressed_pair_elemIPP6WindowLi0ELb0EEC2B7v160006IDnvEEOT_, symObjAddr: 0x1E30, symBinAddr: 0x100005834, symSize: 0x1C }
  - { offsetInCU: 0x268CA, offset: 0x3A44C, size: 0x8, addend: 0x0, symName: __ZNSt3__122__compressed_pair_elemINS_9allocatorIP6WindowEELi1ELb1EEC2B7v160006ENS_18__default_init_tagE, symObjAddr: 0x1E4C, symBinAddr: 0x100005850, symSize: 0x2C }
  - { offsetInCU: 0x268FE, offset: 0x3A480, size: 0x8, addend: 0x0, symName: __ZNSt3__19allocatorIP6WindowEC2B7v160006Ev, symObjAddr: 0x1E78, symBinAddr: 0x10000587C, symSize: 0x2C }
  - { offsetInCU: 0x26927, offset: 0x3A4A9, size: 0x8, addend: 0x0, symName: __ZNSt3__116__non_trivial_ifILb1ENS_9allocatorIP6WindowEEEC2B7v160006Ev, symObjAddr: 0x1EA4, symBinAddr: 0x1000058A8, symSize: 0x14 }
  - { offsetInCU: 0x26950, offset: 0x3A4D2, size: 0x8, addend: 0x0, symName: '__ZNSt3__18functionIFvvEEC2IZN5Scene4initEiiE3$_0vEET_', symObjAddr: 0x1EB8, symBinAddr: 0x1000058BC, symSize: 0x38 }
  - { offsetInCU: 0x26994, offset: 0x3A516, size: 0x8, addend: 0x0, symName: '__ZNSt3__110__function12__value_funcIFvvEEC1B7v160006IZN5Scene4initEiiE3$_0vEEOT_', symObjAddr: 0x1EF0, symBinAddr: 0x1000058F4, symSize: 0x50 }
  - { offsetInCU: 0x269D6, offset: 0x3A558, size: 0x8, addend: 0x0, symName: '__ZNSt3__19allocatorIZN5Scene4initEiiE3$_0EC1B7v160006Ev', symObjAddr: 0x1F40, symBinAddr: 0x100005944, symSize: 0x2C }
  - { offsetInCU: 0x269FF, offset: 0x3A581, size: 0x8, addend: 0x0, symName: '__ZNSt3__110__function12__value_funcIFvvEEC1B7v160006IZN5Scene4initEiiE3$_0NS_9allocatorIS6_EEEEOT_RKT0_', symObjAddr: 0x1F6C, symBinAddr: 0x100005970, symSize: 0x3C }
  - { offsetInCU: 0x26A58, offset: 0x3A5DA, size: 0x8, addend: 0x0, symName: '__ZNSt3__19allocatorIZN5Scene4initEiiE3$_0EC2B7v160006Ev', symObjAddr: 0x1FA8, symBinAddr: 0x1000059AC, symSize: 0x2C }
  - { offsetInCU: 0x26A81, offset: 0x3A603, size: 0x8, addend: 0x0, symName: '__ZNSt3__116__non_trivial_ifILb1ENS_9allocatorIZN5Scene4initEiiE3$_0EEEC2B7v160006Ev', symObjAddr: 0x1FD4, symBinAddr: 0x1000059D8, symSize: 0x14 }
  - { offsetInCU: 0x26AAA, offset: 0x3A62C, size: 0x8, addend: 0x0, symName: '__ZNSt3__110__function12__value_funcIFvvEEC2B7v160006IZN5Scene4initEiiE3$_0NS_9allocatorIS6_EEEEOT_RKT0_', symObjAddr: 0x1FE8, symBinAddr: 0x1000059EC, symSize: 0x94 }
  - { offsetInCU: 0x26B50, offset: 0x3A6D2, size: 0x8, addend: 0x0, symName: '__ZNSt3__19allocatorINS_10__function6__funcIZN5Scene4initEiiE3$_0NS0_IS4_EEFvvEEEEC1B7v160006IS4_EERKNS0_IT_EE', symObjAddr: 0x2094, symBinAddr: 0x100005A98, symSize: 0x34 }
  - { offsetInCU: 0x26B92, offset: 0x3A714, size: 0x8, addend: 0x0, symName: '__ZNSt3__19allocatorIZN5Scene4initEiiE3$_0EC1B7v160006INS_10__function6__funcIS2_S3_FvvEEEEERKNS0_IT_EE', symObjAddr: 0x20C8, symBinAddr: 0x100005ACC, symSize: 0x34 }
  - { offsetInCU: 0x26BCF, offset: 0x3A751, size: 0x8, addend: 0x0, symName: '__ZNSt3__110__function6__funcIZN5Scene4initEiiE3$_0NS_9allocatorIS3_EEFvvEEC1B7v160006EOS3_OS5_', symObjAddr: 0x20FC, symBinAddr: 0x100005B00, symSize: 0x3C }
  - { offsetInCU: 0x26C16, offset: 0x3A798, size: 0x8, addend: 0x0, symName: '__ZNSt3__19allocatorINS_10__function6__funcIZN5Scene4initEiiE3$_0NS0_IS4_EEFvvEEEEC2B7v160006IS4_EERKNS0_IT_EE', symObjAddr: 0x2138, symBinAddr: 0x100005B3C, symSize: 0x30 }
  - { offsetInCU: 0x26C53, offset: 0x3A7D5, size: 0x8, addend: 0x0, symName: '__ZNSt3__116__non_trivial_ifILb1ENS_9allocatorINS_10__function6__funcIZN5Scene4initEiiE3$_0NS1_IS5_EEFvvEEEEEEC2B7v160006Ev', symObjAddr: 0x2168, symBinAddr: 0x100005B6C, symSize: 0x14 }
  - { offsetInCU: 0x26C7C, offset: 0x3A7FE, size: 0x8, addend: 0x0, symName: '__ZNSt3__19allocatorIZN5Scene4initEiiE3$_0EC2B7v160006INS_10__function6__funcIS2_S3_FvvEEEEERKNS0_IT_EE', symObjAddr: 0x217C, symBinAddr: 0x100005B80, symSize: 0x30 }
  - { offsetInCU: 0x26CB9, offset: 0x3A83B, size: 0x8, addend: 0x0, symName: '__ZNSt3__110__function6__funcIZN5Scene4initEiiE3$_0NS_9allocatorIS3_EEFvvEEC2B7v160006EOS3_OS5_', symObjAddr: 0x21AC, symBinAddr: 0x100005BB0, symSize: 0x88 }
  - { offsetInCU: 0x26D00, offset: 0x3A882, size: 0x8, addend: 0x0, symName: __ZNSt3__110__function6__baseIFvvEEC2B7v160006Ev, symObjAddr: 0x2234, symBinAddr: 0x100005C38, symSize: 0x24 }
  - { offsetInCU: 0x26D29, offset: 0x3A8AB, size: 0x8, addend: 0x0, symName: '__ZNSt3__110__function12__alloc_funcIZN5Scene4initEiiE3$_0NS_9allocatorIS3_EEFvvEEC1B7v160006EOS3_OS5_', symObjAddr: 0x2258, symBinAddr: 0x100005C5C, symSize: 0x3C }
  - { offsetInCU: 0x26D6E, offset: 0x3A8F0, size: 0x8, addend: 0x0, symName: __ZNSt3__110__function6__baseIFvvEED2Ev, symObjAddr: 0x2294, symBinAddr: 0x100005C98, symSize: 0x14 }
  - { offsetInCU: 0x26D97, offset: 0x3A919, size: 0x8, addend: 0x0, symName: '__ZNSt3__110__function6__funcIZN5Scene4initEiiE3$_0NS_9allocatorIS3_EEFvvEED1Ev', symObjAddr: 0x22A8, symBinAddr: 0x100005CAC, symSize: 0x2C }
  - { offsetInCU: 0x26DC3, offset: 0x3A945, size: 0x8, addend: 0x0, symName: '__ZNSt3__110__function6__funcIZN5Scene4initEiiE3$_0NS_9allocatorIS3_EEFvvEED0Ev', symObjAddr: 0x22D4, symBinAddr: 0x100005CD8, symSize: 0x30 }
  - { offsetInCU: 0x26DEF, offset: 0x3A971, size: 0x8, addend: 0x0, symName: '__ZNKSt3__110__function6__funcIZN5Scene4initEiiE3$_0NS_9allocatorIS3_EEFvvEE7__cloneEv', symObjAddr: 0x2304, symBinAddr: 0x100005D08, symSize: 0xFC }
  - { offsetInCU: 0x26E40, offset: 0x3A9C2, size: 0x8, addend: 0x0, symName: '__ZNKSt3__110__function6__funcIZN5Scene4initEiiE3$_0NS_9allocatorIS3_EEFvvEE7__cloneEPNS0_6__baseIS6_EE', symObjAddr: 0x2400, symBinAddr: 0x100005E04, symSize: 0x58 }
  - { offsetInCU: 0x26E76, offset: 0x3A9F8, size: 0x8, addend: 0x0, symName: '__ZNSt3__110__function6__funcIZN5Scene4initEiiE3$_0NS_9allocatorIS3_EEFvvEE7destroyEv', symObjAddr: 0x2458, symBinAddr: 0x100005E5C, symSize: 0x28 }
  - { offsetInCU: 0x26E9D, offset: 0x3AA1F, size: 0x8, addend: 0x0, symName: '__ZNSt3__110__function6__funcIZN5Scene4initEiiE3$_0NS_9allocatorIS3_EEFvvEE18destroy_deallocateEv', symObjAddr: 0x2480, symBinAddr: 0x100005E84, symSize: 0x58 }
  - { offsetInCU: 0x26EDF, offset: 0x3AA61, size: 0x8, addend: 0x0, symName: '__ZNSt3__110__function6__funcIZN5Scene4initEiiE3$_0NS_9allocatorIS3_EEFvvEEclEv', symObjAddr: 0x24D8, symBinAddr: 0x100005EDC, symSize: 0x28 }
  - { offsetInCU: 0x26F06, offset: 0x3AA88, size: 0x8, addend: 0x0, symName: '__ZNKSt3__110__function6__funcIZN5Scene4initEiiE3$_0NS_9allocatorIS3_EEFvvEE6targetERKSt9type_info', symObjAddr: 0x2500, symBinAddr: 0x100005F04, symSize: 0x60 }
  - { offsetInCU: 0x26F3C, offset: 0x3AABE, size: 0x8, addend: 0x0, symName: '__ZNKSt3__110__function6__funcIZN5Scene4initEiiE3$_0NS_9allocatorIS3_EEFvvEE11target_typeEv', symObjAddr: 0x2560, symBinAddr: 0x100005F64, symSize: 0x18 }
  - { offsetInCU: 0x26F63, offset: 0x3AAE5, size: 0x8, addend: 0x0, symName: __ZNSt3__110__function6__baseIFvvEED1Ev, symObjAddr: 0x2578, symBinAddr: 0x100005F7C, symSize: 0x14 }
  - { offsetInCU: 0x26F8C, offset: 0x3AB0E, size: 0x8, addend: 0x0, symName: __ZNSt3__110__function6__baseIFvvEED0Ev, symObjAddr: 0x258C, symBinAddr: 0x100005F90, symSize: 0xC }
  - { offsetInCU: 0x26FB5, offset: 0x3AB37, size: 0x8, addend: 0x0, symName: '__ZNSt3__110__function12__alloc_funcIZN5Scene4initEiiE3$_0NS_9allocatorIS3_EEFvvEEC2B7v160006EOS3_OS5_', symObjAddr: 0x2598, symBinAddr: 0x100005F9C, symSize: 0x5C }
  - { offsetInCU: 0x26FFA, offset: 0x3AB7C, size: 0x8, addend: 0x0, symName: '__ZNSt3__117__compressed_pairIZN5Scene4initEiiE3$_0NS_9allocatorIS2_EEEC1B7v160006IJOS2_EJOS4_EEENS_21piecewise_construct_tENS_5tupleIJDpT_EEENSA_IJDpT0_EEE', symObjAddr: 0x264C, symBinAddr: 0x100006050, symSize: 0x3C }
  - { offsetInCU: 0x27063, offset: 0x3ABE5, size: 0x8, addend: 0x0, symName: '__ZNSt3__15tupleIJOZN5Scene4initEiiE3$_0EEC1B7v160006IJS2_ELi0EEEDpOT_', symObjAddr: 0x2688, symBinAddr: 0x10000608C, symSize: 0x34 }
  - { offsetInCU: 0x270AD, offset: 0x3AC2F, size: 0x8, addend: 0x0, symName: '__ZNSt3__15tupleIJOZN5Scene4initEiiE3$_0EEC2B7v160006IJS2_ELi0EEEDpOT_', symObjAddr: 0x26BC, symBinAddr: 0x1000060C0, symSize: 0x34 }
  - { offsetInCU: 0x270F7, offset: 0x3AC79, size: 0x8, addend: 0x0, symName: '__ZNSt3__112__tuple_implINS_15__tuple_indicesIJLm0EEEEJOZN5Scene4initEiiE3$_0EEC1B7v160006IJLm0EEJS5_EJEJEJS4_EEENS1_IJXspT_EEEENS_13__tuple_typesIJDpT0_EEENS1_IJXspT1_EEEENS9_IJDpT2_EEEDpOT3_', symObjAddr: 0x26F0, symBinAddr: 0x1000060F4, symSize: 0x34 }
  - { offsetInCU: 0x2718B, offset: 0x3AD0D, size: 0x8, addend: 0x0, symName: '__ZNSt3__112__tuple_implINS_15__tuple_indicesIJLm0EEEEJOZN5Scene4initEiiE3$_0EEC2B7v160006IJLm0EEJS5_EJEJEJS4_EEENS1_IJXspT_EEEENS_13__tuple_typesIJDpT0_EEENS1_IJXspT1_EEEENS9_IJDpT2_EEEDpOT3_', symObjAddr: 0x2724, symBinAddr: 0x100006128, symSize: 0x34 }
  - { offsetInCU: 0x2721F, offset: 0x3ADA1, size: 0x8, addend: 0x0, symName: '__ZNSt3__112__tuple_leafILm0EOZN5Scene4initEiiE3$_0Lb0EEC2B7v160006IS2_vEEOT_', symObjAddr: 0x2758, symBinAddr: 0x10000615C, symSize: 0x20 }
  - { offsetInCU: 0x27261, offset: 0x3ADE3, size: 0x8, addend: 0x0, symName: '__ZNSt3__15tupleIJONS_9allocatorIZN5Scene4initEiiE3$_0EEEEC1B7v160006IJS4_ELi0EEEDpOT_', symObjAddr: 0x2778, symBinAddr: 0x10000617C, symSize: 0x34 }
  - { offsetInCU: 0x272AB, offset: 0x3AE2D, size: 0x8, addend: 0x0, symName: '__ZNSt3__15tupleIJONS_9allocatorIZN5Scene4initEiiE3$_0EEEEC2B7v160006IJS4_ELi0EEEDpOT_', symObjAddr: 0x27AC, symBinAddr: 0x1000061B0, symSize: 0x34 }
  - { offsetInCU: 0x272F5, offset: 0x3AE77, size: 0x8, addend: 0x0, symName: '__ZNSt3__112__tuple_implINS_15__tuple_indicesIJLm0EEEEJONS_9allocatorIZN5Scene4initEiiE3$_0EEEEC1B7v160006IJLm0EEJS7_EJEJEJS6_EEENS1_IJXspT_EEEENS_13__tuple_typesIJDpT0_EEENS1_IJXspT1_EEEENSB_IJDpT2_EEEDpOT3_', symObjAddr: 0x27E0, symBinAddr: 0x1000061E4, symSize: 0x34 }
  - { offsetInCU: 0x27389, offset: 0x3AF0B, size: 0x8, addend: 0x0, symName: '__ZNSt3__112__tuple_implINS_15__tuple_indicesIJLm0EEEEJONS_9allocatorIZN5Scene4initEiiE3$_0EEEEC2B7v160006IJLm0EEJS7_EJEJEJS6_EEENS1_IJXspT_EEEENS_13__tuple_typesIJDpT0_EEENS1_IJXspT1_EEEENSB_IJDpT2_EEEDpOT3_', symObjAddr: 0x2814, symBinAddr: 0x100006218, symSize: 0x34 }
  - { offsetInCU: 0x2741D, offset: 0x3AF9F, size: 0x8, addend: 0x0, symName: '__ZNSt3__112__tuple_leafILm0EONS_9allocatorIZN5Scene4initEiiE3$_0EELb0EEC2B7v160006IS4_vEEOT_', symObjAddr: 0x2848, symBinAddr: 0x10000624C, symSize: 0x20 }
  - { offsetInCU: 0x2745F, offset: 0x3AFE1, size: 0x8, addend: 0x0, symName: '__ZNSt3__117__compressed_pairIZN5Scene4initEiiE3$_0NS_9allocatorIS2_EEEC2B7v160006IJOS2_EJOS4_EEENS_21piecewise_construct_tENS_5tupleIJDpT_EEENSA_IJDpT0_EEE', symObjAddr: 0x2868, symBinAddr: 0x10000626C, symSize: 0x54 }
  - { offsetInCU: 0x274C8, offset: 0x3B04A, size: 0x8, addend: 0x0, symName: '__ZNSt3__122__compressed_pair_elemIZN5Scene4initEiiE3$_0Li0ELb0EEC2B7v160006IJOS2_EJLm0EEEENS_21piecewise_construct_tENS_5tupleIJDpT_EEENS_15__tuple_indicesIJXspT0_EEEE', symObjAddr: 0x28BC, symBinAddr: 0x1000062C0, symSize: 0x44 }
  - { offsetInCU: 0x2752C, offset: 0x3B0AE, size: 0x8, addend: 0x0, symName: '__ZNSt3__122__compressed_pair_elemINS_9allocatorIZN5Scene4initEiiE3$_0EELi1ELb1EEC2B7v160006IJOS4_EJLm0EEEENS_21piecewise_construct_tENS_5tupleIJDpT_EEENS_15__tuple_indicesIJXspT0_EEEE', symObjAddr: 0x2900, symBinAddr: 0x100006304, symSize: 0x38 }
  - { offsetInCU: 0x27590, offset: 0x3B112, size: 0x8, addend: 0x0, symName: '__ZNSt3__112__tuple_leafILm0EOZN5Scene4initEiiE3$_0Lb0EE3getB7v160006Ev', symObjAddr: 0x295C, symBinAddr: 0x100006360, symSize: 0x18 }
  - { offsetInCU: 0x275B5, offset: 0x3B137, size: 0x8, addend: 0x0, symName: '__ZNSt3__112__tuple_leafILm0EONS_9allocatorIZN5Scene4initEiiE3$_0EELb0EE3getB7v160006Ev', symObjAddr: 0x2998, symBinAddr: 0x10000639C, symSize: 0x18 }
  - { offsetInCU: 0x275DA, offset: 0x3B15C, size: 0x8, addend: 0x0, symName: '__ZNSt3__110__function6__funcIZN5Scene4initEiiE3$_0NS_9allocatorIS3_EEFvvEED2Ev', symObjAddr: 0x29B0, symBinAddr: 0x1000063B4, symSize: 0x2C }
  - { offsetInCU: 0x27606, offset: 0x3B188, size: 0x8, addend: 0x0, symName: '__ZNKSt3__110__function12__alloc_funcIZN5Scene4initEiiE3$_0NS_9allocatorIS3_EEFvvEE15__get_allocatorB7v160006Ev', symObjAddr: 0x29DC, symBinAddr: 0x1000063E0, symSize: 0x24 }
  - { offsetInCU: 0x2762A, offset: 0x3B1AC, size: 0x8, addend: 0x0, symName: '__ZNSt3__19allocatorINS_10__function6__funcIZN5Scene4initEiiE3$_0NS0_IS4_EEFvvEEEE8allocateB7v160006Em', symObjAddr: 0x2A00, symBinAddr: 0x100006404, symSize: 0x58 }
  - { offsetInCU: 0x2766B, offset: 0x3B1ED, size: 0x8, addend: 0x0, symName: '__ZNSt3__122__allocator_destructorINS_9allocatorINS_10__function6__funcIZN5Scene4initEiiE3$_0NS1_IS5_EEFvvEEEEEEC1B7v160006ERS9_m', symObjAddr: 0x2A58, symBinAddr: 0x10000645C, symSize: 0x3C }
  - { offsetInCU: 0x2773C, offset: 0x3B2BE, size: 0x8, addend: 0x0, symName: '__ZNSt3__110unique_ptrINS_10__function6__funcIZN5Scene4initEiiE3$_0NS_9allocatorIS4_EEFvvEEENS_22__allocator_destructorINS5_IS8_EEEEEC1B7v160006ILb1EvEEPS8_NS_16__dependent_typeINS_27__unique_ptr_deleter_sfinaeISB_EEXT_EE20__good_rval_ref_typeE', symObjAddr: 0x2A94, symBinAddr: 0x100006498, symSize: 0x3C }
  - { offsetInCU: 0x2778C, offset: 0x3B30E, size: 0x8, addend: 0x0, symName: '__ZNKSt3__110unique_ptrINS_10__function6__funcIZN5Scene4initEiiE3$_0NS_9allocatorIS4_EEFvvEEENS_22__allocator_destructorINS5_IS8_EEEEE3getB7v160006Ev', symObjAddr: 0x2AD0, symBinAddr: 0x1000064D4, symSize: 0x28 }
  - { offsetInCU: 0x277B0, offset: 0x3B332, size: 0x8, addend: 0x0, symName: '__ZNKSt3__110__function12__alloc_funcIZN5Scene4initEiiE3$_0NS_9allocatorIS3_EEFvvEE8__targetB7v160006Ev', symObjAddr: 0x2AF8, symBinAddr: 0x1000064FC, symSize: 0x24 }
  - { offsetInCU: 0x277D4, offset: 0x3B356, size: 0x8, addend: 0x0, symName: '__ZNSt3__110__function6__funcIZN5Scene4initEiiE3$_0NS_9allocatorIS3_EEFvvEEC1B7v160006ERKS3_OS5_', symObjAddr: 0x2B1C, symBinAddr: 0x100006520, symSize: 0x3C }
  - { offsetInCU: 0x2781B, offset: 0x3B39D, size: 0x8, addend: 0x0, symName: '__ZNSt3__110unique_ptrINS_10__function6__funcIZN5Scene4initEiiE3$_0NS_9allocatorIS4_EEFvvEEENS_22__allocator_destructorINS5_IS8_EEEEE7releaseB7v160006Ev', symObjAddr: 0x2B58, symBinAddr: 0x10000655C, symSize: 0x44 }
  - { offsetInCU: 0x2784E, offset: 0x3B3D0, size: 0x8, addend: 0x0, symName: '__ZNSt3__110unique_ptrINS_10__function6__funcIZN5Scene4initEiiE3$_0NS_9allocatorIS4_EEFvvEEENS_22__allocator_destructorINS5_IS8_EEEEED1B7v160006Ev', symObjAddr: 0x2B9C, symBinAddr: 0x1000065A0, symSize: 0x2C }
  - { offsetInCU: 0x27877, offset: 0x3B3F9, size: 0x8, addend: 0x0, symName: '__ZNKSt3__117__compressed_pairIZN5Scene4initEiiE3$_0NS_9allocatorIS2_EEE6secondB7v160006Ev', symObjAddr: 0x2BC8, symBinAddr: 0x1000065CC, symSize: 0x24 }
  - { offsetInCU: 0x2789B, offset: 0x3B41D, size: 0x8, addend: 0x0, symName: '__ZNKSt3__122__compressed_pair_elemINS_9allocatorIZN5Scene4initEiiE3$_0EELi1ELb1EE5__getB7v160006Ev', symObjAddr: 0x2BEC, symBinAddr: 0x1000065F0, symSize: 0x14 }
  - { offsetInCU: 0x278CA, offset: 0x3B44C, size: 0x8, addend: 0x0, symName: '__ZNSt3__116allocator_traitsINS_9allocatorINS_10__function6__funcIZN5Scene4initEiiE3$_0NS1_IS5_EEFvvEEEEEE8max_sizeB7v160006IS9_vEEmRKS9_', symObjAddr: 0x2C00, symBinAddr: 0x100006604, symSize: 0x24 }
  - { offsetInCU: 0x278F8, offset: 0x3B47A, size: 0x8, addend: 0x0, symName: '__ZNKSt3__19allocatorINS_10__function6__funcIZN5Scene4initEiiE3$_0NS0_IS4_EEFvvEEEE8max_sizeB7v160006Ev', symObjAddr: 0x2C80, symBinAddr: 0x100006684, symSize: 0x14 }
  - { offsetInCU: 0x2791D, offset: 0x3B49F, size: 0x8, addend: 0x0, symName: '__ZNSt3__122__allocator_destructorINS_9allocatorINS_10__function6__funcIZN5Scene4initEiiE3$_0NS1_IS5_EEFvvEEEEEEC2B7v160006ERS9_m', symObjAddr: 0x2CB8, symBinAddr: 0x1000066BC, symSize: 0x2C }
  - { offsetInCU: 0x27962, offset: 0x3B4E4, size: 0x8, addend: 0x0, symName: '__ZNSt3__110unique_ptrINS_10__function6__funcIZN5Scene4initEiiE3$_0NS_9allocatorIS4_EEFvvEEENS_22__allocator_destructorINS5_IS8_EEEEEC2B7v160006ILb1EvEEPS8_NS_16__dependent_typeINS_27__unique_ptr_deleter_sfinaeISB_EEXT_EE20__good_rval_ref_typeE', symObjAddr: 0x2CE4, symBinAddr: 0x1000066E8, symSize: 0x48 }
  - { offsetInCU: 0x279B2, offset: 0x3B534, size: 0x8, addend: 0x0, symName: '__ZNSt3__117__compressed_pairIPNS_10__function6__funcIZN5Scene4initEiiE3$_0NS_9allocatorIS4_EEFvvEEENS_22__allocator_destructorINS5_IS8_EEEEEC1B7v160006IRS9_SC_EEOT_OT0_', symObjAddr: 0x2D2C, symBinAddr: 0x100006730, symSize: 0x3C }
  - { offsetInCU: 0x27A09, offset: 0x3B58B, size: 0x8, addend: 0x0, symName: '__ZNSt3__117__compressed_pairIPNS_10__function6__funcIZN5Scene4initEiiE3$_0NS_9allocatorIS4_EEFvvEEENS_22__allocator_destructorINS5_IS8_EEEEEC2B7v160006IRS9_SC_EEOT_OT0_', symObjAddr: 0x2D68, symBinAddr: 0x10000676C, symSize: 0x48 }
  - { offsetInCU: 0x27A60, offset: 0x3B5E2, size: 0x8, addend: 0x0, symName: '__ZNSt3__122__compressed_pair_elemIPNS_10__function6__funcIZN5Scene4initEiiE3$_0NS_9allocatorIS4_EEFvvEEELi0ELb0EEC2B7v160006IRS9_vEEOT_', symObjAddr: 0x2DB0, symBinAddr: 0x1000067B4, symSize: 0x24 }
  - { offsetInCU: 0x27AA1, offset: 0x3B623, size: 0x8, addend: 0x0, symName: '__ZNSt3__122__compressed_pair_elemINS_22__allocator_destructorINS_9allocatorINS_10__function6__funcIZN5Scene4initEiiE3$_0NS2_IS6_EEFvvEEEEEEELi1ELb0EEC2B7v160006ISB_vEEOT_', symObjAddr: 0x2DD4, symBinAddr: 0x1000067D8, symSize: 0x24 }
  - { offsetInCU: 0x27AE2, offset: 0x3B664, size: 0x8, addend: 0x0, symName: '__ZNKSt3__117__compressed_pairIPNS_10__function6__funcIZN5Scene4initEiiE3$_0NS_9allocatorIS4_EEFvvEEENS_22__allocator_destructorINS5_IS8_EEEEE5firstB7v160006Ev', symObjAddr: 0x2DF8, symBinAddr: 0x1000067FC, symSize: 0x24 }
  - { offsetInCU: 0x27B06, offset: 0x3B688, size: 0x8, addend: 0x0, symName: '__ZNKSt3__122__compressed_pair_elemIPNS_10__function6__funcIZN5Scene4initEiiE3$_0NS_9allocatorIS4_EEFvvEEELi0ELb0EE5__getB7v160006Ev', symObjAddr: 0x2E1C, symBinAddr: 0x100006820, symSize: 0x14 }
  - { offsetInCU: 0x27B2B, offset: 0x3B6AD, size: 0x8, addend: 0x0, symName: '__ZNKSt3__117__compressed_pairIZN5Scene4initEiiE3$_0NS_9allocatorIS2_EEE5firstB7v160006Ev', symObjAddr: 0x2E30, symBinAddr: 0x100006834, symSize: 0x24 }
  - { offsetInCU: 0x27B4F, offset: 0x3B6D1, size: 0x8, addend: 0x0, symName: '__ZNKSt3__122__compressed_pair_elemIZN5Scene4initEiiE3$_0Li0ELb0EE5__getB7v160006Ev', symObjAddr: 0x2E54, symBinAddr: 0x100006858, symSize: 0x14 }
  - { offsetInCU: 0x27B74, offset: 0x3B6F6, size: 0x8, addend: 0x0, symName: '__ZNSt3__110__function6__funcIZN5Scene4initEiiE3$_0NS_9allocatorIS3_EEFvvEEC2B7v160006ERKS3_OS5_', symObjAddr: 0x2E68, symBinAddr: 0x10000686C, symSize: 0x88 }
  - { offsetInCU: 0x27BBB, offset: 0x3B73D, size: 0x8, addend: 0x0, symName: '__ZNSt3__110__function12__alloc_funcIZN5Scene4initEiiE3$_0NS_9allocatorIS3_EEFvvEEC1B7v160006ERKS3_OS5_', symObjAddr: 0x2EF0, symBinAddr: 0x1000068F4, symSize: 0x3C }
  - { offsetInCU: 0x27C00, offset: 0x3B782, size: 0x8, addend: 0x0, symName: '__ZNSt3__110__function12__alloc_funcIZN5Scene4initEiiE3$_0NS_9allocatorIS3_EEFvvEEC2B7v160006ERKS3_OS5_', symObjAddr: 0x2F2C, symBinAddr: 0x100006930, symSize: 0x5C }
  - { offsetInCU: 0x27C45, offset: 0x3B7C7, size: 0x8, addend: 0x0, symName: '__ZNSt3__117__compressed_pairIZN5Scene4initEiiE3$_0NS_9allocatorIS2_EEEC1B7v160006IJRKS2_EJOS4_EEENS_21piecewise_construct_tENS_5tupleIJDpT_EEENSB_IJDpT0_EEE', symObjAddr: 0x2FB4, symBinAddr: 0x1000069B8, symSize: 0x3C }
  - { offsetInCU: 0x27CAE, offset: 0x3B830, size: 0x8, addend: 0x0, symName: '__ZNSt3__15tupleIJRKZN5Scene4initEiiE3$_0EEC1B7v160006INS_4_AndELi0EEES4_', symObjAddr: 0x2FF0, symBinAddr: 0x1000069F4, symSize: 0x34 }
  - { offsetInCU: 0x27CF7, offset: 0x3B879, size: 0x8, addend: 0x0, symName: '__ZNSt3__15tupleIJRKZN5Scene4initEiiE3$_0EEC2B7v160006INS_4_AndELi0EEES4_', symObjAddr: 0x3024, symBinAddr: 0x100006A28, symSize: 0x34 }
  - { offsetInCU: 0x27D40, offset: 0x3B8C2, size: 0x8, addend: 0x0, symName: '__ZNSt3__112__tuple_implINS_15__tuple_indicesIJLm0EEEEJRKZN5Scene4initEiiE3$_0EEC1B7v160006IJLm0EEJS6_EJEJEJS6_EEENS1_IJXspT_EEEENS_13__tuple_typesIJDpT0_EEENS1_IJXspT1_EEEENSA_IJDpT2_EEEDpOT3_', symObjAddr: 0x3058, symBinAddr: 0x100006A5C, symSize: 0x34 }
  - { offsetInCU: 0x27DD4, offset: 0x3B956, size: 0x8, addend: 0x0, symName: '__ZNSt3__112__tuple_implINS_15__tuple_indicesIJLm0EEEEJRKZN5Scene4initEiiE3$_0EEC2B7v160006IJLm0EEJS6_EJEJEJS6_EEENS1_IJXspT_EEEENS_13__tuple_typesIJDpT0_EEENS1_IJXspT1_EEEENSA_IJDpT2_EEEDpOT3_', symObjAddr: 0x308C, symBinAddr: 0x100006A90, symSize: 0x34 }
  - { offsetInCU: 0x27E68, offset: 0x3B9EA, size: 0x8, addend: 0x0, symName: '__ZNSt3__112__tuple_leafILm0ERKZN5Scene4initEiiE3$_0Lb0EEC2B7v160006IS4_vEEOT_', symObjAddr: 0x30C0, symBinAddr: 0x100006AC4, symSize: 0x20 }
  - { offsetInCU: 0x27EAA, offset: 0x3BA2C, size: 0x8, addend: 0x0, symName: '__ZNSt3__117__compressed_pairIZN5Scene4initEiiE3$_0NS_9allocatorIS2_EEEC2B7v160006IJRKS2_EJOS4_EEENS_21piecewise_construct_tENS_5tupleIJDpT_EEENSB_IJDpT0_EEE', symObjAddr: 0x30E0, symBinAddr: 0x100006AE4, symSize: 0x54 }
  - { offsetInCU: 0x27F13, offset: 0x3BA95, size: 0x8, addend: 0x0, symName: '__ZNSt3__122__compressed_pair_elemIZN5Scene4initEiiE3$_0Li0ELb0EEC2B7v160006IJRKS2_EJLm0EEEENS_21piecewise_construct_tENS_5tupleIJDpT_EEENS_15__tuple_indicesIJXspT0_EEEE', symObjAddr: 0x3134, symBinAddr: 0x100006B38, symSize: 0x44 }
  - { offsetInCU: 0x27F77, offset: 0x3BAF9, size: 0x8, addend: 0x0, symName: '__ZNSt3__112__tuple_leafILm0ERKZN5Scene4initEiiE3$_0Lb0EE3getB7v160006Ev', symObjAddr: 0x319C, symBinAddr: 0x100006BA0, symSize: 0x18 }
  - { offsetInCU: 0x27F9C, offset: 0x3BB1E, size: 0x8, addend: 0x0, symName: '__ZNSt3__117__compressed_pairIPNS_10__function6__funcIZN5Scene4initEiiE3$_0NS_9allocatorIS4_EEFvvEEENS_22__allocator_destructorINS5_IS8_EEEEE5firstB7v160006Ev', symObjAddr: 0x31B4, symBinAddr: 0x100006BB8, symSize: 0x24 }
  - { offsetInCU: 0x27FC0, offset: 0x3BB42, size: 0x8, addend: 0x0, symName: '__ZNSt3__122__compressed_pair_elemIPNS_10__function6__funcIZN5Scene4initEiiE3$_0NS_9allocatorIS4_EEFvvEEELi0ELb0EE5__getB7v160006Ev', symObjAddr: 0x31D8, symBinAddr: 0x100006BDC, symSize: 0x14 }
  - { offsetInCU: 0x27FE5, offset: 0x3BB67, size: 0x8, addend: 0x0, symName: '__ZNSt3__110unique_ptrINS_10__function6__funcIZN5Scene4initEiiE3$_0NS_9allocatorIS4_EEFvvEEENS_22__allocator_destructorINS5_IS8_EEEEED2B7v160006Ev', symObjAddr: 0x31EC, symBinAddr: 0x100006BF0, symSize: 0x30 }
  - { offsetInCU: 0x2800E, offset: 0x3BB90, size: 0x8, addend: 0x0, symName: '__ZNSt3__110unique_ptrINS_10__function6__funcIZN5Scene4initEiiE3$_0NS_9allocatorIS4_EEFvvEEENS_22__allocator_destructorINS5_IS8_EEEEE5resetB7v160006EPS8_', symObjAddr: 0x321C, symBinAddr: 0x100006C20, symSize: 0x78 }
  - { offsetInCU: 0x28050, offset: 0x3BBD2, size: 0x8, addend: 0x0, symName: '__ZNSt3__117__compressed_pairIPNS_10__function6__funcIZN5Scene4initEiiE3$_0NS_9allocatorIS4_EEFvvEEENS_22__allocator_destructorINS5_IS8_EEEEE6secondB7v160006Ev', symObjAddr: 0x3294, symBinAddr: 0x100006C98, symSize: 0x28 }
  - { offsetInCU: 0x28074, offset: 0x3BBF6, size: 0x8, addend: 0x0, symName: '__ZNSt3__122__allocator_destructorINS_9allocatorINS_10__function6__funcIZN5Scene4initEiiE3$_0NS1_IS5_EEFvvEEEEEEclB7v160006EPS8_', symObjAddr: 0x32BC, symBinAddr: 0x100006CC0, symSize: 0x34 }
  - { offsetInCU: 0x280A6, offset: 0x3BC28, size: 0x8, addend: 0x0, symName: '__ZNSt3__122__compressed_pair_elemINS_22__allocator_destructorINS_9allocatorINS_10__function6__funcIZN5Scene4initEiiE3$_0NS2_IS6_EEFvvEEEEEEELi1ELb0EE5__getB7v160006Ev', symObjAddr: 0x32F0, symBinAddr: 0x100006CF4, symSize: 0x14 }
  - { offsetInCU: 0x280CB, offset: 0x3BC4D, size: 0x8, addend: 0x0, symName: '__ZNSt3__116allocator_traitsINS_9allocatorINS_10__function6__funcIZN5Scene4initEiiE3$_0NS1_IS5_EEFvvEEEEEE10deallocateB7v160006ERS9_PS8_m', symObjAddr: 0x3304, symBinAddr: 0x100006D08, symSize: 0x34 }
  - { offsetInCU: 0x2810D, offset: 0x3BC8F, size: 0x8, addend: 0x0, symName: '__ZNSt3__19allocatorINS_10__function6__funcIZN5Scene4initEiiE3$_0NS0_IS4_EEFvvEEEE10deallocateB7v160006EPS7_m', symObjAddr: 0x3338, symBinAddr: 0x100006D3C, symSize: 0x40 }
  - { offsetInCU: 0x2814D, offset: 0x3BCCF, size: 0x8, addend: 0x0, symName: '__ZNSt3__110__function6__funcIZN5Scene4initEiiE3$_0NS_9allocatorIS3_EEFvvEEC1B7v160006ERKS3_RKS5_', symObjAddr: 0x33F4, symBinAddr: 0x100006D7C, symSize: 0x3C }
  - { offsetInCU: 0x28194, offset: 0x3BD16, size: 0x8, addend: 0x0, symName: '__ZNSt3__110__function6__funcIZN5Scene4initEiiE3$_0NS_9allocatorIS3_EEFvvEEC2B7v160006ERKS3_RKS5_', symObjAddr: 0x3430, symBinAddr: 0x100006DB8, symSize: 0x88 }
  - { offsetInCU: 0x281DB, offset: 0x3BD5D, size: 0x8, addend: 0x0, symName: '__ZNSt3__110__function12__alloc_funcIZN5Scene4initEiiE3$_0NS_9allocatorIS3_EEFvvEEC1B7v160006ERKS3_RKS5_', symObjAddr: 0x34B8, symBinAddr: 0x100006E40, symSize: 0x3C }
  - { offsetInCU: 0x28220, offset: 0x3BDA2, size: 0x8, addend: 0x0, symName: '__ZNSt3__110__function12__alloc_funcIZN5Scene4initEiiE3$_0NS_9allocatorIS3_EEFvvEEC2B7v160006ERKS3_RKS5_', symObjAddr: 0x34F4, symBinAddr: 0x100006E7C, symSize: 0x5C }
  - { offsetInCU: 0x28265, offset: 0x3BDE7, size: 0x8, addend: 0x0, symName: '__ZNSt3__117__compressed_pairIZN5Scene4initEiiE3$_0NS_9allocatorIS2_EEEC1B7v160006IJRKS2_EJRKS4_EEENS_21piecewise_construct_tENS_5tupleIJDpT_EEENSC_IJDpT0_EEE', symObjAddr: 0x357C, symBinAddr: 0x100006F04, symSize: 0x3C }
  - { offsetInCU: 0x282CE, offset: 0x3BE50, size: 0x8, addend: 0x0, symName: '__ZNSt3__15tupleIJRKNS_9allocatorIZN5Scene4initEiiE3$_0EEEEC1B7v160006INS_4_AndELi0EEES6_', symObjAddr: 0x35B8, symBinAddr: 0x100006F40, symSize: 0x34 }
  - { offsetInCU: 0x28317, offset: 0x3BE99, size: 0x8, addend: 0x0, symName: '__ZNSt3__15tupleIJRKNS_9allocatorIZN5Scene4initEiiE3$_0EEEEC2B7v160006INS_4_AndELi0EEES6_', symObjAddr: 0x35EC, symBinAddr: 0x100006F74, symSize: 0x34 }
  - { offsetInCU: 0x28360, offset: 0x3BEE2, size: 0x8, addend: 0x0, symName: '__ZNSt3__112__tuple_implINS_15__tuple_indicesIJLm0EEEEJRKNS_9allocatorIZN5Scene4initEiiE3$_0EEEEC1B7v160006IJLm0EEJS8_EJEJEJS8_EEENS1_IJXspT_EEEENS_13__tuple_typesIJDpT0_EEENS1_IJXspT1_EEEENSC_IJDpT2_EEEDpOT3_', symObjAddr: 0x3620, symBinAddr: 0x100006FA8, symSize: 0x34 }
  - { offsetInCU: 0x283F4, offset: 0x3BF76, size: 0x8, addend: 0x0, symName: '__ZNSt3__112__tuple_implINS_15__tuple_indicesIJLm0EEEEJRKNS_9allocatorIZN5Scene4initEiiE3$_0EEEEC2B7v160006IJLm0EEJS8_EJEJEJS8_EEENS1_IJXspT_EEEENS_13__tuple_typesIJDpT0_EEENS1_IJXspT1_EEEENSC_IJDpT2_EEEDpOT3_', symObjAddr: 0x3654, symBinAddr: 0x100006FDC, symSize: 0x34 }
  - { offsetInCU: 0x28488, offset: 0x3C00A, size: 0x8, addend: 0x0, symName: '__ZNSt3__112__tuple_leafILm0ERKNS_9allocatorIZN5Scene4initEiiE3$_0EELb0EEC2B7v160006IS6_vEEOT_', symObjAddr: 0x3688, symBinAddr: 0x100007010, symSize: 0x20 }
  - { offsetInCU: 0x284CA, offset: 0x3C04C, size: 0x8, addend: 0x0, symName: '__ZNSt3__117__compressed_pairIZN5Scene4initEiiE3$_0NS_9allocatorIS2_EEEC2B7v160006IJRKS2_EJRKS4_EEENS_21piecewise_construct_tENS_5tupleIJDpT_EEENSC_IJDpT0_EEE', symObjAddr: 0x36A8, symBinAddr: 0x100007030, symSize: 0x54 }
  - { offsetInCU: 0x28533, offset: 0x3C0B5, size: 0x8, addend: 0x0, symName: '__ZNSt3__122__compressed_pair_elemINS_9allocatorIZN5Scene4initEiiE3$_0EELi1ELb1EEC2B7v160006IJRKS4_EJLm0EEEENS_21piecewise_construct_tENS_5tupleIJDpT_EEENS_15__tuple_indicesIJXspT0_EEEE', symObjAddr: 0x36FC, symBinAddr: 0x100007084, symSize: 0x38 }
  - { offsetInCU: 0x28597, offset: 0x3C119, size: 0x8, addend: 0x0, symName: '__ZNSt3__112__tuple_leafILm0ERKNS_9allocatorIZN5Scene4initEiiE3$_0EELb0EE3getB7v160006Ev', symObjAddr: 0x3758, symBinAddr: 0x1000070E0, symSize: 0x18 }
  - { offsetInCU: 0x285BC, offset: 0x3C13E, size: 0x8, addend: 0x0, symName: '__ZNSt3__110__function12__alloc_funcIZN5Scene4initEiiE3$_0NS_9allocatorIS3_EEFvvEE7destroyB7v160006Ev', symObjAddr: 0x3770, symBinAddr: 0x1000070F8, symSize: 0x10 }
  - { offsetInCU: 0x285E1, offset: 0x3C163, size: 0x8, addend: 0x0, symName: '__ZNSt3__110__function12__alloc_funcIZN5Scene4initEiiE3$_0NS_9allocatorIS3_EEFvvEEclB7v160006Ev', symObjAddr: 0x3780, symBinAddr: 0x100007108, symSize: 0x28 }
  - { offsetInCU: 0x28605, offset: 0x3C187, size: 0x8, addend: 0x0, symName: '__ZNSt3__128__invoke_void_return_wrapperIvLb1EE6__callIJRZN5Scene4initEiiE3$_0EEEvDpOT_', symObjAddr: 0x37A8, symBinAddr: 0x100007130, symSize: 0x24 }
  - { offsetInCU: 0x28634, offset: 0x3C1B6, size: 0x8, addend: 0x0, symName: '__ZNSt3__117__compressed_pairIZN5Scene4initEiiE3$_0NS_9allocatorIS2_EEE5firstB7v160006Ev', symObjAddr: 0x37CC, symBinAddr: 0x100007154, symSize: 0x24 }
  - { offsetInCU: 0x28658, offset: 0x3C1DA, size: 0x8, addend: 0x0, symName: '__ZZN5Scene4initEiiENK3$_0clEv', symObjAddr: 0x3814, symBinAddr: 0x10000719C, symSize: 0x74 }
  - { offsetInCU: 0x28681, offset: 0x3C203, size: 0x8, addend: 0x0, symName: '__ZNSt3__122__compressed_pair_elemIZN5Scene4initEiiE3$_0Li0ELb0EE5__getB7v160006Ev', symObjAddr: 0x3888, symBinAddr: 0x100007210, symSize: 0x14 }
  - { offsetInCU: 0x286DC, offset: 0x3C25E, size: 0x8, addend: 0x0, symName: __ZNKSt9type_infoeqB7v160006ERKS_, symObjAddr: 0x389C, symBinAddr: 0x100007224, symSize: 0xDC }
  - { offsetInCU: 0x28778, offset: 0x3C2FA, size: 0x8, addend: 0x0, symName: __ZNSt27__type_info_implementations30__non_unique_arm_rtti_bit_impl21__is_type_name_uniqueB7v160006Em, symObjAddr: 0x3978, symBinAddr: 0x100007300, symSize: 0x20 }
  - { offsetInCU: 0x2879C, offset: 0x3C31E, size: 0x8, addend: 0x0, symName: __ZNSt3__18functionIFvvEED2Ev, symObjAddr: 0x3998, symBinAddr: 0x100007320, symSize: 0x2C }
  - { offsetInCU: 0x287C7, offset: 0x3C349, size: 0x8, addend: 0x0, symName: __ZNSt3__110__function12__value_funcIFvvEED1B7v160006Ev, symObjAddr: 0x39C4, symBinAddr: 0x10000734C, symSize: 0x2C }
  - { offsetInCU: 0x287F0, offset: 0x3C372, size: 0x8, addend: 0x0, symName: __ZNSt3__110__function12__value_funcIFvvEED2B7v160006Ev, symObjAddr: 0x39F0, symBinAddr: 0x100007378, symSize: 0x90 }
  - { offsetInCU: 0x28819, offset: 0x3C39B, size: 0x8, addend: 0x0, symName: '__ZNSt3__18functionIFvvEEC2IZN5Scene4initEiiE3$_1vEET_', symObjAddr: 0x3A80, symBinAddr: 0x100007408, symSize: 0x38 }
  - { offsetInCU: 0x2885D, offset: 0x3C3DF, size: 0x8, addend: 0x0, symName: '__ZNSt3__110__function12__value_funcIFvvEEC1B7v160006IZN5Scene4initEiiE3$_1vEEOT_', symObjAddr: 0x3AB8, symBinAddr: 0x100007440, symSize: 0x50 }
  - { offsetInCU: 0x2889F, offset: 0x3C421, size: 0x8, addend: 0x0, symName: '__ZNSt3__19allocatorIZN5Scene4initEiiE3$_1EC1B7v160006Ev', symObjAddr: 0x3B08, symBinAddr: 0x100007490, symSize: 0x2C }
  - { offsetInCU: 0x288C8, offset: 0x3C44A, size: 0x8, addend: 0x0, symName: '__ZNSt3__110__function12__value_funcIFvvEEC1B7v160006IZN5Scene4initEiiE3$_1NS_9allocatorIS6_EEEEOT_RKT0_', symObjAddr: 0x3B34, symBinAddr: 0x1000074BC, symSize: 0x3C }
  - { offsetInCU: 0x28921, offset: 0x3C4A3, size: 0x8, addend: 0x0, symName: '__ZNSt3__19allocatorIZN5Scene4initEiiE3$_1EC2B7v160006Ev', symObjAddr: 0x3B70, symBinAddr: 0x1000074F8, symSize: 0x2C }
  - { offsetInCU: 0x2894A, offset: 0x3C4CC, size: 0x8, addend: 0x0, symName: '__ZNSt3__116__non_trivial_ifILb1ENS_9allocatorIZN5Scene4initEiiE3$_1EEEC2B7v160006Ev', symObjAddr: 0x3B9C, symBinAddr: 0x100007524, symSize: 0x14 }
  - { offsetInCU: 0x28973, offset: 0x3C4F5, size: 0x8, addend: 0x0, symName: '__ZNSt3__110__function12__value_funcIFvvEEC2B7v160006IZN5Scene4initEiiE3$_1NS_9allocatorIS6_EEEEOT_RKT0_', symObjAddr: 0x3BB0, symBinAddr: 0x100007538, symSize: 0x94 }
  - { offsetInCU: 0x28A19, offset: 0x3C59B, size: 0x8, addend: 0x0, symName: '__ZNSt3__19allocatorINS_10__function6__funcIZN5Scene4initEiiE3$_1NS0_IS4_EEFvvEEEEC1B7v160006IS4_EERKNS0_IT_EE', symObjAddr: 0x3C5C, symBinAddr: 0x1000075E4, symSize: 0x34 }
  - { offsetInCU: 0x28A5B, offset: 0x3C5DD, size: 0x8, addend: 0x0, symName: '__ZNSt3__19allocatorIZN5Scene4initEiiE3$_1EC1B7v160006INS_10__function6__funcIS2_S3_FvvEEEEERKNS0_IT_EE', symObjAddr: 0x3C90, symBinAddr: 0x100007618, symSize: 0x34 }
  - { offsetInCU: 0x28A98, offset: 0x3C61A, size: 0x8, addend: 0x0, symName: '__ZNSt3__110__function6__funcIZN5Scene4initEiiE3$_1NS_9allocatorIS3_EEFvvEEC1B7v160006EOS3_OS5_', symObjAddr: 0x3CC4, symBinAddr: 0x10000764C, symSize: 0x3C }
  - { offsetInCU: 0x28ADF, offset: 0x3C661, size: 0x8, addend: 0x0, symName: '__ZNSt3__19allocatorINS_10__function6__funcIZN5Scene4initEiiE3$_1NS0_IS4_EEFvvEEEEC2B7v160006IS4_EERKNS0_IT_EE', symObjAddr: 0x3D00, symBinAddr: 0x100007688, symSize: 0x30 }
  - { offsetInCU: 0x28B1C, offset: 0x3C69E, size: 0x8, addend: 0x0, symName: '__ZNSt3__116__non_trivial_ifILb1ENS_9allocatorINS_10__function6__funcIZN5Scene4initEiiE3$_1NS1_IS5_EEFvvEEEEEEC2B7v160006Ev', symObjAddr: 0x3D30, symBinAddr: 0x1000076B8, symSize: 0x14 }
  - { offsetInCU: 0x28B45, offset: 0x3C6C7, size: 0x8, addend: 0x0, symName: '__ZNSt3__19allocatorIZN5Scene4initEiiE3$_1EC2B7v160006INS_10__function6__funcIS2_S3_FvvEEEEERKNS0_IT_EE', symObjAddr: 0x3D44, symBinAddr: 0x1000076CC, symSize: 0x30 }
  - { offsetInCU: 0x28B82, offset: 0x3C704, size: 0x8, addend: 0x0, symName: '__ZNSt3__110__function6__funcIZN5Scene4initEiiE3$_1NS_9allocatorIS3_EEFvvEEC2B7v160006EOS3_OS5_', symObjAddr: 0x3D74, symBinAddr: 0x1000076FC, symSize: 0x88 }
  - { offsetInCU: 0x28BC9, offset: 0x3C74B, size: 0x8, addend: 0x0, symName: '__ZNSt3__110__function12__alloc_funcIZN5Scene4initEiiE3$_1NS_9allocatorIS3_EEFvvEEC1B7v160006EOS3_OS5_', symObjAddr: 0x3DFC, symBinAddr: 0x100007784, symSize: 0x3C }
  - { offsetInCU: 0x28C0E, offset: 0x3C790, size: 0x8, addend: 0x0, symName: '__ZNSt3__110__function6__funcIZN5Scene4initEiiE3$_1NS_9allocatorIS3_EEFvvEED1Ev', symObjAddr: 0x3E38, symBinAddr: 0x1000077C0, symSize: 0x2C }
  - { offsetInCU: 0x28C3A, offset: 0x3C7BC, size: 0x8, addend: 0x0, symName: '__ZNSt3__110__function6__funcIZN5Scene4initEiiE3$_1NS_9allocatorIS3_EEFvvEED0Ev', symObjAddr: 0x3E64, symBinAddr: 0x1000077EC, symSize: 0x30 }
  - { offsetInCU: 0x28C66, offset: 0x3C7E8, size: 0x8, addend: 0x0, symName: '__ZNKSt3__110__function6__funcIZN5Scene4initEiiE3$_1NS_9allocatorIS3_EEFvvEE7__cloneEv', symObjAddr: 0x3E94, symBinAddr: 0x10000781C, symSize: 0xFC }
  - { offsetInCU: 0x28CB7, offset: 0x3C839, size: 0x8, addend: 0x0, symName: '__ZNKSt3__110__function6__funcIZN5Scene4initEiiE3$_1NS_9allocatorIS3_EEFvvEE7__cloneEPNS0_6__baseIS6_EE', symObjAddr: 0x3F90, symBinAddr: 0x100007918, symSize: 0x58 }
  - { offsetInCU: 0x28CED, offset: 0x3C86F, size: 0x8, addend: 0x0, symName: '__ZNSt3__110__function6__funcIZN5Scene4initEiiE3$_1NS_9allocatorIS3_EEFvvEE7destroyEv', symObjAddr: 0x3FE8, symBinAddr: 0x100007970, symSize: 0x28 }
  - { offsetInCU: 0x28D14, offset: 0x3C896, size: 0x8, addend: 0x0, symName: '__ZNSt3__110__function6__funcIZN5Scene4initEiiE3$_1NS_9allocatorIS3_EEFvvEE18destroy_deallocateEv', symObjAddr: 0x4010, symBinAddr: 0x100007998, symSize: 0x58 }
  - { offsetInCU: 0x28D56, offset: 0x3C8D8, size: 0x8, addend: 0x0, symName: '__ZNSt3__110__function6__funcIZN5Scene4initEiiE3$_1NS_9allocatorIS3_EEFvvEEclEv', symObjAddr: 0x4068, symBinAddr: 0x1000079F0, symSize: 0x28 }
  - { offsetInCU: 0x28D7D, offset: 0x3C8FF, size: 0x8, addend: 0x0, symName: '__ZNKSt3__110__function6__funcIZN5Scene4initEiiE3$_1NS_9allocatorIS3_EEFvvEE6targetERKSt9type_info', symObjAddr: 0x4090, symBinAddr: 0x100007A18, symSize: 0x60 }
  - { offsetInCU: 0x28DB3, offset: 0x3C935, size: 0x8, addend: 0x0, symName: '__ZNKSt3__110__function6__funcIZN5Scene4initEiiE3$_1NS_9allocatorIS3_EEFvvEE11target_typeEv', symObjAddr: 0x40F0, symBinAddr: 0x100007A78, symSize: 0x18 }
  - { offsetInCU: 0x28DDA, offset: 0x3C95C, size: 0x8, addend: 0x0, symName: '__ZNSt3__110__function12__alloc_funcIZN5Scene4initEiiE3$_1NS_9allocatorIS3_EEFvvEEC2B7v160006EOS3_OS5_', symObjAddr: 0x4108, symBinAddr: 0x100007A90, symSize: 0x5C }
  - { offsetInCU: 0x28E1F, offset: 0x3C9A1, size: 0x8, addend: 0x0, symName: '__ZNSt3__117__compressed_pairIZN5Scene4initEiiE3$_1NS_9allocatorIS2_EEEC1B7v160006IJOS2_EJOS4_EEENS_21piecewise_construct_tENS_5tupleIJDpT_EEENSA_IJDpT0_EEE', symObjAddr: 0x41BC, symBinAddr: 0x100007B44, symSize: 0x3C }
  - { offsetInCU: 0x28E88, offset: 0x3CA0A, size: 0x8, addend: 0x0, symName: '__ZNSt3__15tupleIJOZN5Scene4initEiiE3$_1EEC1B7v160006IJS2_ELi0EEEDpOT_', symObjAddr: 0x41F8, symBinAddr: 0x100007B80, symSize: 0x34 }
  - { offsetInCU: 0x28ED2, offset: 0x3CA54, size: 0x8, addend: 0x0, symName: '__ZNSt3__15tupleIJOZN5Scene4initEiiE3$_1EEC2B7v160006IJS2_ELi0EEEDpOT_', symObjAddr: 0x422C, symBinAddr: 0x100007BB4, symSize: 0x34 }
  - { offsetInCU: 0x28F1C, offset: 0x3CA9E, size: 0x8, addend: 0x0, symName: '__ZNSt3__112__tuple_implINS_15__tuple_indicesIJLm0EEEEJOZN5Scene4initEiiE3$_1EEC1B7v160006IJLm0EEJS5_EJEJEJS4_EEENS1_IJXspT_EEEENS_13__tuple_typesIJDpT0_EEENS1_IJXspT1_EEEENS9_IJDpT2_EEEDpOT3_', symObjAddr: 0x4260, symBinAddr: 0x100007BE8, symSize: 0x34 }
  - { offsetInCU: 0x28FB0, offset: 0x3CB32, size: 0x8, addend: 0x0, symName: '__ZNSt3__112__tuple_implINS_15__tuple_indicesIJLm0EEEEJOZN5Scene4initEiiE3$_1EEC2B7v160006IJLm0EEJS5_EJEJEJS4_EEENS1_IJXspT_EEEENS_13__tuple_typesIJDpT0_EEENS1_IJXspT1_EEEENS9_IJDpT2_EEEDpOT3_', symObjAddr: 0x4294, symBinAddr: 0x100007C1C, symSize: 0x34 }
  - { offsetInCU: 0x29044, offset: 0x3CBC6, size: 0x8, addend: 0x0, symName: '__ZNSt3__112__tuple_leafILm0EOZN5Scene4initEiiE3$_1Lb0EEC2B7v160006IS2_vEEOT_', symObjAddr: 0x42C8, symBinAddr: 0x100007C50, symSize: 0x20 }
  - { offsetInCU: 0x29086, offset: 0x3CC08, size: 0x8, addend: 0x0, symName: '__ZNSt3__15tupleIJONS_9allocatorIZN5Scene4initEiiE3$_1EEEEC1B7v160006IJS4_ELi0EEEDpOT_', symObjAddr: 0x42E8, symBinAddr: 0x100007C70, symSize: 0x34 }
  - { offsetInCU: 0x290D0, offset: 0x3CC52, size: 0x8, addend: 0x0, symName: '__ZNSt3__15tupleIJONS_9allocatorIZN5Scene4initEiiE3$_1EEEEC2B7v160006IJS4_ELi0EEEDpOT_', symObjAddr: 0x431C, symBinAddr: 0x100007CA4, symSize: 0x34 }
  - { offsetInCU: 0x2911A, offset: 0x3CC9C, size: 0x8, addend: 0x0, symName: '__ZNSt3__112__tuple_implINS_15__tuple_indicesIJLm0EEEEJONS_9allocatorIZN5Scene4initEiiE3$_1EEEEC1B7v160006IJLm0EEJS7_EJEJEJS6_EEENS1_IJXspT_EEEENS_13__tuple_typesIJDpT0_EEENS1_IJXspT1_EEEENSB_IJDpT2_EEEDpOT3_', symObjAddr: 0x4350, symBinAddr: 0x100007CD8, symSize: 0x34 }
  - { offsetInCU: 0x291AE, offset: 0x3CD30, size: 0x8, addend: 0x0, symName: '__ZNSt3__112__tuple_implINS_15__tuple_indicesIJLm0EEEEJONS_9allocatorIZN5Scene4initEiiE3$_1EEEEC2B7v160006IJLm0EEJS7_EJEJEJS6_EEENS1_IJXspT_EEEENS_13__tuple_typesIJDpT0_EEENS1_IJXspT1_EEEENSB_IJDpT2_EEEDpOT3_', symObjAddr: 0x4384, symBinAddr: 0x100007D0C, symSize: 0x34 }
  - { offsetInCU: 0x29242, offset: 0x3CDC4, size: 0x8, addend: 0x0, symName: '__ZNSt3__112__tuple_leafILm0EONS_9allocatorIZN5Scene4initEiiE3$_1EELb0EEC2B7v160006IS4_vEEOT_', symObjAddr: 0x43B8, symBinAddr: 0x100007D40, symSize: 0x20 }
  - { offsetInCU: 0x29284, offset: 0x3CE06, size: 0x8, addend: 0x0, symName: '__ZNSt3__117__compressed_pairIZN5Scene4initEiiE3$_1NS_9allocatorIS2_EEEC2B7v160006IJOS2_EJOS4_EEENS_21piecewise_construct_tENS_5tupleIJDpT_EEENSA_IJDpT0_EEE', symObjAddr: 0x43D8, symBinAddr: 0x100007D60, symSize: 0x54 }
  - { offsetInCU: 0x292ED, offset: 0x3CE6F, size: 0x8, addend: 0x0, symName: '__ZNSt3__122__compressed_pair_elemIZN5Scene4initEiiE3$_1Li0ELb0EEC2B7v160006IJOS2_EJLm0EEEENS_21piecewise_construct_tENS_5tupleIJDpT_EEENS_15__tuple_indicesIJXspT0_EEEE', symObjAddr: 0x442C, symBinAddr: 0x100007DB4, symSize: 0x44 }
  - { offsetInCU: 0x29351, offset: 0x3CED3, size: 0x8, addend: 0x0, symName: '__ZNSt3__122__compressed_pair_elemINS_9allocatorIZN5Scene4initEiiE3$_1EELi1ELb1EEC2B7v160006IJOS4_EJLm0EEEENS_21piecewise_construct_tENS_5tupleIJDpT_EEENS_15__tuple_indicesIJXspT0_EEEE', symObjAddr: 0x4470, symBinAddr: 0x100007DF8, symSize: 0x38 }
  - { offsetInCU: 0x293B5, offset: 0x3CF37, size: 0x8, addend: 0x0, symName: '__ZNSt3__112__tuple_leafILm0EOZN5Scene4initEiiE3$_1Lb0EE3getB7v160006Ev', symObjAddr: 0x44CC, symBinAddr: 0x100007E54, symSize: 0x18 }
  - { offsetInCU: 0x293DA, offset: 0x3CF5C, size: 0x8, addend: 0x0, symName: '__ZNSt3__112__tuple_leafILm0EONS_9allocatorIZN5Scene4initEiiE3$_1EELb0EE3getB7v160006Ev', symObjAddr: 0x4508, symBinAddr: 0x100007E90, symSize: 0x18 }
  - { offsetInCU: 0x293FF, offset: 0x3CF81, size: 0x8, addend: 0x0, symName: '__ZNSt3__110__function6__funcIZN5Scene4initEiiE3$_1NS_9allocatorIS3_EEFvvEED2Ev', symObjAddr: 0x4520, symBinAddr: 0x100007EA8, symSize: 0x2C }
  - { offsetInCU: 0x2942B, offset: 0x3CFAD, size: 0x8, addend: 0x0, symName: '__ZNKSt3__110__function12__alloc_funcIZN5Scene4initEiiE3$_1NS_9allocatorIS3_EEFvvEE15__get_allocatorB7v160006Ev', symObjAddr: 0x454C, symBinAddr: 0x100007ED4, symSize: 0x24 }
  - { offsetInCU: 0x2944F, offset: 0x3CFD1, size: 0x8, addend: 0x0, symName: '__ZNSt3__19allocatorINS_10__function6__funcIZN5Scene4initEiiE3$_1NS0_IS4_EEFvvEEEE8allocateB7v160006Em', symObjAddr: 0x4570, symBinAddr: 0x100007EF8, symSize: 0x58 }
  - { offsetInCU: 0x29490, offset: 0x3D012, size: 0x8, addend: 0x0, symName: '__ZNSt3__122__allocator_destructorINS_9allocatorINS_10__function6__funcIZN5Scene4initEiiE3$_1NS1_IS5_EEFvvEEEEEEC1B7v160006ERS9_m', symObjAddr: 0x45C8, symBinAddr: 0x100007F50, symSize: 0x3C }
  - { offsetInCU: 0x29561, offset: 0x3D0E3, size: 0x8, addend: 0x0, symName: '__ZNSt3__110unique_ptrINS_10__function6__funcIZN5Scene4initEiiE3$_1NS_9allocatorIS4_EEFvvEEENS_22__allocator_destructorINS5_IS8_EEEEEC1B7v160006ILb1EvEEPS8_NS_16__dependent_typeINS_27__unique_ptr_deleter_sfinaeISB_EEXT_EE20__good_rval_ref_typeE', symObjAddr: 0x4604, symBinAddr: 0x100007F8C, symSize: 0x3C }
  - { offsetInCU: 0x295B1, offset: 0x3D133, size: 0x8, addend: 0x0, symName: '__ZNKSt3__110unique_ptrINS_10__function6__funcIZN5Scene4initEiiE3$_1NS_9allocatorIS4_EEFvvEEENS_22__allocator_destructorINS5_IS8_EEEEE3getB7v160006Ev', symObjAddr: 0x4640, symBinAddr: 0x100007FC8, symSize: 0x28 }
  - { offsetInCU: 0x295D5, offset: 0x3D157, size: 0x8, addend: 0x0, symName: '__ZNKSt3__110__function12__alloc_funcIZN5Scene4initEiiE3$_1NS_9allocatorIS3_EEFvvEE8__targetB7v160006Ev', symObjAddr: 0x4668, symBinAddr: 0x100007FF0, symSize: 0x24 }
  - { offsetInCU: 0x295F9, offset: 0x3D17B, size: 0x8, addend: 0x0, symName: '__ZNSt3__110__function6__funcIZN5Scene4initEiiE3$_1NS_9allocatorIS3_EEFvvEEC1B7v160006ERKS3_OS5_', symObjAddr: 0x468C, symBinAddr: 0x100008014, symSize: 0x3C }
  - { offsetInCU: 0x29640, offset: 0x3D1C2, size: 0x8, addend: 0x0, symName: '__ZNSt3__110unique_ptrINS_10__function6__funcIZN5Scene4initEiiE3$_1NS_9allocatorIS4_EEFvvEEENS_22__allocator_destructorINS5_IS8_EEEEE7releaseB7v160006Ev', symObjAddr: 0x46C8, symBinAddr: 0x100008050, symSize: 0x44 }
  - { offsetInCU: 0x29673, offset: 0x3D1F5, size: 0x8, addend: 0x0, symName: '__ZNSt3__110unique_ptrINS_10__function6__funcIZN5Scene4initEiiE3$_1NS_9allocatorIS4_EEFvvEEENS_22__allocator_destructorINS5_IS8_EEEEED1B7v160006Ev', symObjAddr: 0x470C, symBinAddr: 0x100008094, symSize: 0x2C }
  - { offsetInCU: 0x2969C, offset: 0x3D21E, size: 0x8, addend: 0x0, symName: '__ZNKSt3__117__compressed_pairIZN5Scene4initEiiE3$_1NS_9allocatorIS2_EEE6secondB7v160006Ev', symObjAddr: 0x4738, symBinAddr: 0x1000080C0, symSize: 0x24 }
  - { offsetInCU: 0x296C0, offset: 0x3D242, size: 0x8, addend: 0x0, symName: '__ZNKSt3__122__compressed_pair_elemINS_9allocatorIZN5Scene4initEiiE3$_1EELi1ELb1EE5__getB7v160006Ev', symObjAddr: 0x475C, symBinAddr: 0x1000080E4, symSize: 0x14 }
  - { offsetInCU: 0x296EF, offset: 0x3D271, size: 0x8, addend: 0x0, symName: '__ZNSt3__116allocator_traitsINS_9allocatorINS_10__function6__funcIZN5Scene4initEiiE3$_1NS1_IS5_EEFvvEEEEEE8max_sizeB7v160006IS9_vEEmRKS9_', symObjAddr: 0x4770, symBinAddr: 0x1000080F8, symSize: 0x24 }
  - { offsetInCU: 0x2971D, offset: 0x3D29F, size: 0x8, addend: 0x0, symName: '__ZNKSt3__19allocatorINS_10__function6__funcIZN5Scene4initEiiE3$_1NS0_IS4_EEFvvEEEE8max_sizeB7v160006Ev', symObjAddr: 0x4794, symBinAddr: 0x10000811C, symSize: 0x14 }
  - { offsetInCU: 0x29742, offset: 0x3D2C4, size: 0x8, addend: 0x0, symName: '__ZNSt3__122__allocator_destructorINS_9allocatorINS_10__function6__funcIZN5Scene4initEiiE3$_1NS1_IS5_EEFvvEEEEEEC2B7v160006ERS9_m', symObjAddr: 0x47A8, symBinAddr: 0x100008130, symSize: 0x2C }
  - { offsetInCU: 0x29787, offset: 0x3D309, size: 0x8, addend: 0x0, symName: '__ZNSt3__110unique_ptrINS_10__function6__funcIZN5Scene4initEiiE3$_1NS_9allocatorIS4_EEFvvEEENS_22__allocator_destructorINS5_IS8_EEEEEC2B7v160006ILb1EvEEPS8_NS_16__dependent_typeINS_27__unique_ptr_deleter_sfinaeISB_EEXT_EE20__good_rval_ref_typeE', symObjAddr: 0x47D4, symBinAddr: 0x10000815C, symSize: 0x48 }
  - { offsetInCU: 0x297D7, offset: 0x3D359, size: 0x8, addend: 0x0, symName: '__ZNSt3__117__compressed_pairIPNS_10__function6__funcIZN5Scene4initEiiE3$_1NS_9allocatorIS4_EEFvvEEENS_22__allocator_destructorINS5_IS8_EEEEEC1B7v160006IRS9_SC_EEOT_OT0_', symObjAddr: 0x481C, symBinAddr: 0x1000081A4, symSize: 0x3C }
  - { offsetInCU: 0x2982E, offset: 0x3D3B0, size: 0x8, addend: 0x0, symName: '__ZNSt3__117__compressed_pairIPNS_10__function6__funcIZN5Scene4initEiiE3$_1NS_9allocatorIS4_EEFvvEEENS_22__allocator_destructorINS5_IS8_EEEEEC2B7v160006IRS9_SC_EEOT_OT0_', symObjAddr: 0x4858, symBinAddr: 0x1000081E0, symSize: 0x48 }
  - { offsetInCU: 0x29885, offset: 0x3D407, size: 0x8, addend: 0x0, symName: '__ZNSt3__122__compressed_pair_elemIPNS_10__function6__funcIZN5Scene4initEiiE3$_1NS_9allocatorIS4_EEFvvEEELi0ELb0EEC2B7v160006IRS9_vEEOT_', symObjAddr: 0x48A0, symBinAddr: 0x100008228, symSize: 0x24 }
  - { offsetInCU: 0x298C6, offset: 0x3D448, size: 0x8, addend: 0x0, symName: '__ZNSt3__122__compressed_pair_elemINS_22__allocator_destructorINS_9allocatorINS_10__function6__funcIZN5Scene4initEiiE3$_1NS2_IS6_EEFvvEEEEEEELi1ELb0EEC2B7v160006ISB_vEEOT_', symObjAddr: 0x48C4, symBinAddr: 0x10000824C, symSize: 0x24 }
  - { offsetInCU: 0x29907, offset: 0x3D489, size: 0x8, addend: 0x0, symName: '__ZNKSt3__117__compressed_pairIPNS_10__function6__funcIZN5Scene4initEiiE3$_1NS_9allocatorIS4_EEFvvEEENS_22__allocator_destructorINS5_IS8_EEEEE5firstB7v160006Ev', symObjAddr: 0x48E8, symBinAddr: 0x100008270, symSize: 0x24 }
  - { offsetInCU: 0x2992B, offset: 0x3D4AD, size: 0x8, addend: 0x0, symName: '__ZNKSt3__122__compressed_pair_elemIPNS_10__function6__funcIZN5Scene4initEiiE3$_1NS_9allocatorIS4_EEFvvEEELi0ELb0EE5__getB7v160006Ev', symObjAddr: 0x490C, symBinAddr: 0x100008294, symSize: 0x14 }
  - { offsetInCU: 0x29950, offset: 0x3D4D2, size: 0x8, addend: 0x0, symName: '__ZNKSt3__117__compressed_pairIZN5Scene4initEiiE3$_1NS_9allocatorIS2_EEE5firstB7v160006Ev', symObjAddr: 0x4920, symBinAddr: 0x1000082A8, symSize: 0x24 }
  - { offsetInCU: 0x29974, offset: 0x3D4F6, size: 0x8, addend: 0x0, symName: '__ZNKSt3__122__compressed_pair_elemIZN5Scene4initEiiE3$_1Li0ELb0EE5__getB7v160006Ev', symObjAddr: 0x4944, symBinAddr: 0x1000082CC, symSize: 0x14 }
  - { offsetInCU: 0x29999, offset: 0x3D51B, size: 0x8, addend: 0x0, symName: '__ZNSt3__110__function6__funcIZN5Scene4initEiiE3$_1NS_9allocatorIS3_EEFvvEEC2B7v160006ERKS3_OS5_', symObjAddr: 0x4958, symBinAddr: 0x1000082E0, symSize: 0x88 }
  - { offsetInCU: 0x299E0, offset: 0x3D562, size: 0x8, addend: 0x0, symName: '__ZNSt3__110__function12__alloc_funcIZN5Scene4initEiiE3$_1NS_9allocatorIS3_EEFvvEEC1B7v160006ERKS3_OS5_', symObjAddr: 0x49E0, symBinAddr: 0x100008368, symSize: 0x3C }
  - { offsetInCU: 0x29A25, offset: 0x3D5A7, size: 0x8, addend: 0x0, symName: '__ZNSt3__110__function12__alloc_funcIZN5Scene4initEiiE3$_1NS_9allocatorIS3_EEFvvEEC2B7v160006ERKS3_OS5_', symObjAddr: 0x4A1C, symBinAddr: 0x1000083A4, symSize: 0x5C }
  - { offsetInCU: 0x29A6A, offset: 0x3D5EC, size: 0x8, addend: 0x0, symName: '__ZNSt3__117__compressed_pairIZN5Scene4initEiiE3$_1NS_9allocatorIS2_EEEC1B7v160006IJRKS2_EJOS4_EEENS_21piecewise_construct_tENS_5tupleIJDpT_EEENSB_IJDpT0_EEE', symObjAddr: 0x4AA4, symBinAddr: 0x10000842C, symSize: 0x3C }
  - { offsetInCU: 0x29AD3, offset: 0x3D655, size: 0x8, addend: 0x0, symName: '__ZNSt3__15tupleIJRKZN5Scene4initEiiE3$_1EEC1B7v160006INS_4_AndELi0EEES4_', symObjAddr: 0x4AE0, symBinAddr: 0x100008468, symSize: 0x34 }
  - { offsetInCU: 0x29B1C, offset: 0x3D69E, size: 0x8, addend: 0x0, symName: '__ZNSt3__15tupleIJRKZN5Scene4initEiiE3$_1EEC2B7v160006INS_4_AndELi0EEES4_', symObjAddr: 0x4B14, symBinAddr: 0x10000849C, symSize: 0x34 }
  - { offsetInCU: 0x29B65, offset: 0x3D6E7, size: 0x8, addend: 0x0, symName: '__ZNSt3__112__tuple_implINS_15__tuple_indicesIJLm0EEEEJRKZN5Scene4initEiiE3$_1EEC1B7v160006IJLm0EEJS6_EJEJEJS6_EEENS1_IJXspT_EEEENS_13__tuple_typesIJDpT0_EEENS1_IJXspT1_EEEENSA_IJDpT2_EEEDpOT3_', symObjAddr: 0x4B48, symBinAddr: 0x1000084D0, symSize: 0x34 }
  - { offsetInCU: 0x29BF9, offset: 0x3D77B, size: 0x8, addend: 0x0, symName: '__ZNSt3__112__tuple_implINS_15__tuple_indicesIJLm0EEEEJRKZN5Scene4initEiiE3$_1EEC2B7v160006IJLm0EEJS6_EJEJEJS6_EEENS1_IJXspT_EEEENS_13__tuple_typesIJDpT0_EEENS1_IJXspT1_EEEENSA_IJDpT2_EEEDpOT3_', symObjAddr: 0x4B7C, symBinAddr: 0x100008504, symSize: 0x34 }
  - { offsetInCU: 0x29C8D, offset: 0x3D80F, size: 0x8, addend: 0x0, symName: '__ZNSt3__112__tuple_leafILm0ERKZN5Scene4initEiiE3$_1Lb0EEC2B7v160006IS4_vEEOT_', symObjAddr: 0x4BB0, symBinAddr: 0x100008538, symSize: 0x20 }
  - { offsetInCU: 0x29CCF, offset: 0x3D851, size: 0x8, addend: 0x0, symName: '__ZNSt3__117__compressed_pairIZN5Scene4initEiiE3$_1NS_9allocatorIS2_EEEC2B7v160006IJRKS2_EJOS4_EEENS_21piecewise_construct_tENS_5tupleIJDpT_EEENSB_IJDpT0_EEE', symObjAddr: 0x4BD0, symBinAddr: 0x100008558, symSize: 0x54 }
  - { offsetInCU: 0x29D38, offset: 0x3D8BA, size: 0x8, addend: 0x0, symName: '__ZNSt3__122__compressed_pair_elemIZN5Scene4initEiiE3$_1Li0ELb0EEC2B7v160006IJRKS2_EJLm0EEEENS_21piecewise_construct_tENS_5tupleIJDpT_EEENS_15__tuple_indicesIJXspT0_EEEE', symObjAddr: 0x4C24, symBinAddr: 0x1000085AC, symSize: 0x44 }
  - { offsetInCU: 0x29D9C, offset: 0x3D91E, size: 0x8, addend: 0x0, symName: '__ZNSt3__112__tuple_leafILm0ERKZN5Scene4initEiiE3$_1Lb0EE3getB7v160006Ev', symObjAddr: 0x4C8C, symBinAddr: 0x100008614, symSize: 0x18 }
  - { offsetInCU: 0x29DC1, offset: 0x3D943, size: 0x8, addend: 0x0, symName: '__ZNSt3__117__compressed_pairIPNS_10__function6__funcIZN5Scene4initEiiE3$_1NS_9allocatorIS4_EEFvvEEENS_22__allocator_destructorINS5_IS8_EEEEE5firstB7v160006Ev', symObjAddr: 0x4CA4, symBinAddr: 0x10000862C, symSize: 0x24 }
  - { offsetInCU: 0x29DE5, offset: 0x3D967, size: 0x8, addend: 0x0, symName: '__ZNSt3__122__compressed_pair_elemIPNS_10__function6__funcIZN5Scene4initEiiE3$_1NS_9allocatorIS4_EEFvvEEELi0ELb0EE5__getB7v160006Ev', symObjAddr: 0x4CC8, symBinAddr: 0x100008650, symSize: 0x14 }
  - { offsetInCU: 0x29E0A, offset: 0x3D98C, size: 0x8, addend: 0x0, symName: '__ZNSt3__110unique_ptrINS_10__function6__funcIZN5Scene4initEiiE3$_1NS_9allocatorIS4_EEFvvEEENS_22__allocator_destructorINS5_IS8_EEEEED2B7v160006Ev', symObjAddr: 0x4CDC, symBinAddr: 0x100008664, symSize: 0x30 }
  - { offsetInCU: 0x29E33, offset: 0x3D9B5, size: 0x8, addend: 0x0, symName: '__ZNSt3__110unique_ptrINS_10__function6__funcIZN5Scene4initEiiE3$_1NS_9allocatorIS4_EEFvvEEENS_22__allocator_destructorINS5_IS8_EEEEE5resetB7v160006EPS8_', symObjAddr: 0x4D0C, symBinAddr: 0x100008694, symSize: 0x78 }
  - { offsetInCU: 0x29E75, offset: 0x3D9F7, size: 0x8, addend: 0x0, symName: '__ZNSt3__117__compressed_pairIPNS_10__function6__funcIZN5Scene4initEiiE3$_1NS_9allocatorIS4_EEFvvEEENS_22__allocator_destructorINS5_IS8_EEEEE6secondB7v160006Ev', symObjAddr: 0x4D84, symBinAddr: 0x10000870C, symSize: 0x28 }
  - { offsetInCU: 0x29E99, offset: 0x3DA1B, size: 0x8, addend: 0x0, symName: '__ZNSt3__122__allocator_destructorINS_9allocatorINS_10__function6__funcIZN5Scene4initEiiE3$_1NS1_IS5_EEFvvEEEEEEclB7v160006EPS8_', symObjAddr: 0x4DAC, symBinAddr: 0x100008734, symSize: 0x34 }
  - { offsetInCU: 0x29ECB, offset: 0x3DA4D, size: 0x8, addend: 0x0, symName: '__ZNSt3__122__compressed_pair_elemINS_22__allocator_destructorINS_9allocatorINS_10__function6__funcIZN5Scene4initEiiE3$_1NS2_IS6_EEFvvEEEEEEELi1ELb0EE5__getB7v160006Ev', symObjAddr: 0x4DE0, symBinAddr: 0x100008768, symSize: 0x14 }
  - { offsetInCU: 0x29EF0, offset: 0x3DA72, size: 0x8, addend: 0x0, symName: '__ZNSt3__116allocator_traitsINS_9allocatorINS_10__function6__funcIZN5Scene4initEiiE3$_1NS1_IS5_EEFvvEEEEEE10deallocateB7v160006ERS9_PS8_m', symObjAddr: 0x4DF4, symBinAddr: 0x10000877C, symSize: 0x34 }
  - { offsetInCU: 0x29F32, offset: 0x3DAB4, size: 0x8, addend: 0x0, symName: '__ZNSt3__19allocatorINS_10__function6__funcIZN5Scene4initEiiE3$_1NS0_IS4_EEFvvEEEE10deallocateB7v160006EPS7_m', symObjAddr: 0x4E28, symBinAddr: 0x1000087B0, symSize: 0x40 }
  - { offsetInCU: 0x29F72, offset: 0x3DAF4, size: 0x8, addend: 0x0, symName: '__ZNSt3__110__function6__funcIZN5Scene4initEiiE3$_1NS_9allocatorIS3_EEFvvEEC1B7v160006ERKS3_RKS5_', symObjAddr: 0x4E68, symBinAddr: 0x1000087F0, symSize: 0x3C }
  - { offsetInCU: 0x29FB9, offset: 0x3DB3B, size: 0x8, addend: 0x0, symName: '__ZNSt3__110__function6__funcIZN5Scene4initEiiE3$_1NS_9allocatorIS3_EEFvvEEC2B7v160006ERKS3_RKS5_', symObjAddr: 0x4EA4, symBinAddr: 0x10000882C, symSize: 0x88 }
  - { offsetInCU: 0x2A000, offset: 0x3DB82, size: 0x8, addend: 0x0, symName: '__ZNSt3__110__function12__alloc_funcIZN5Scene4initEiiE3$_1NS_9allocatorIS3_EEFvvEEC1B7v160006ERKS3_RKS5_', symObjAddr: 0x4F2C, symBinAddr: 0x1000088B4, symSize: 0x3C }
  - { offsetInCU: 0x2A045, offset: 0x3DBC7, size: 0x8, addend: 0x0, symName: '__ZNSt3__110__function12__alloc_funcIZN5Scene4initEiiE3$_1NS_9allocatorIS3_EEFvvEEC2B7v160006ERKS3_RKS5_', symObjAddr: 0x4F68, symBinAddr: 0x1000088F0, symSize: 0x5C }
  - { offsetInCU: 0x2A08A, offset: 0x3DC0C, size: 0x8, addend: 0x0, symName: '__ZNSt3__117__compressed_pairIZN5Scene4initEiiE3$_1NS_9allocatorIS2_EEEC1B7v160006IJRKS2_EJRKS4_EEENS_21piecewise_construct_tENS_5tupleIJDpT_EEENSC_IJDpT0_EEE', symObjAddr: 0x4FF0, symBinAddr: 0x100008978, symSize: 0x3C }
  - { offsetInCU: 0x2A0F3, offset: 0x3DC75, size: 0x8, addend: 0x0, symName: '__ZNSt3__15tupleIJRKNS_9allocatorIZN5Scene4initEiiE3$_1EEEEC1B7v160006INS_4_AndELi0EEES6_', symObjAddr: 0x502C, symBinAddr: 0x1000089B4, symSize: 0x34 }
  - { offsetInCU: 0x2A13C, offset: 0x3DCBE, size: 0x8, addend: 0x0, symName: '__ZNSt3__15tupleIJRKNS_9allocatorIZN5Scene4initEiiE3$_1EEEEC2B7v160006INS_4_AndELi0EEES6_', symObjAddr: 0x5060, symBinAddr: 0x1000089E8, symSize: 0x34 }
  - { offsetInCU: 0x2A185, offset: 0x3DD07, size: 0x8, addend: 0x0, symName: '__ZNSt3__112__tuple_implINS_15__tuple_indicesIJLm0EEEEJRKNS_9allocatorIZN5Scene4initEiiE3$_1EEEEC1B7v160006IJLm0EEJS8_EJEJEJS8_EEENS1_IJXspT_EEEENS_13__tuple_typesIJDpT0_EEENS1_IJXspT1_EEEENSC_IJDpT2_EEEDpOT3_', symObjAddr: 0x5094, symBinAddr: 0x100008A1C, symSize: 0x34 }
  - { offsetInCU: 0x2A219, offset: 0x3DD9B, size: 0x8, addend: 0x0, symName: '__ZNSt3__112__tuple_implINS_15__tuple_indicesIJLm0EEEEJRKNS_9allocatorIZN5Scene4initEiiE3$_1EEEEC2B7v160006IJLm0EEJS8_EJEJEJS8_EEENS1_IJXspT_EEEENS_13__tuple_typesIJDpT0_EEENS1_IJXspT1_EEEENSC_IJDpT2_EEEDpOT3_', symObjAddr: 0x50C8, symBinAddr: 0x100008A50, symSize: 0x34 }
  - { offsetInCU: 0x2A2AD, offset: 0x3DE2F, size: 0x8, addend: 0x0, symName: '__ZNSt3__112__tuple_leafILm0ERKNS_9allocatorIZN5Scene4initEiiE3$_1EELb0EEC2B7v160006IS6_vEEOT_', symObjAddr: 0x50FC, symBinAddr: 0x100008A84, symSize: 0x20 }
  - { offsetInCU: 0x2A2EF, offset: 0x3DE71, size: 0x8, addend: 0x0, symName: '__ZNSt3__117__compressed_pairIZN5Scene4initEiiE3$_1NS_9allocatorIS2_EEEC2B7v160006IJRKS2_EJRKS4_EEENS_21piecewise_construct_tENS_5tupleIJDpT_EEENSC_IJDpT0_EEE', symObjAddr: 0x511C, symBinAddr: 0x100008AA4, symSize: 0x54 }
  - { offsetInCU: 0x2A358, offset: 0x3DEDA, size: 0x8, addend: 0x0, symName: '__ZNSt3__122__compressed_pair_elemINS_9allocatorIZN5Scene4initEiiE3$_1EELi1ELb1EEC2B7v160006IJRKS4_EJLm0EEEENS_21piecewise_construct_tENS_5tupleIJDpT_EEENS_15__tuple_indicesIJXspT0_EEEE', symObjAddr: 0x5170, symBinAddr: 0x100008AF8, symSize: 0x38 }
  - { offsetInCU: 0x2A3BC, offset: 0x3DF3E, size: 0x8, addend: 0x0, symName: '__ZNSt3__112__tuple_leafILm0ERKNS_9allocatorIZN5Scene4initEiiE3$_1EELb0EE3getB7v160006Ev', symObjAddr: 0x51CC, symBinAddr: 0x100008B54, symSize: 0x18 }
  - { offsetInCU: 0x2A3E1, offset: 0x3DF63, size: 0x8, addend: 0x0, symName: '__ZNSt3__110__function12__alloc_funcIZN5Scene4initEiiE3$_1NS_9allocatorIS3_EEFvvEE7destroyB7v160006Ev', symObjAddr: 0x51E4, symBinAddr: 0x100008B6C, symSize: 0x10 }
  - { offsetInCU: 0x2A406, offset: 0x3DF88, size: 0x8, addend: 0x0, symName: '__ZNSt3__110__function12__alloc_funcIZN5Scene4initEiiE3$_1NS_9allocatorIS3_EEFvvEEclB7v160006Ev', symObjAddr: 0x51F4, symBinAddr: 0x100008B7C, symSize: 0x28 }
  - { offsetInCU: 0x2A42A, offset: 0x3DFAC, size: 0x8, addend: 0x0, symName: '__ZNSt3__128__invoke_void_return_wrapperIvLb1EE6__callIJRZN5Scene4initEiiE3$_1EEEvDpOT_', symObjAddr: 0x521C, symBinAddr: 0x100008BA4, symSize: 0x24 }
  - { offsetInCU: 0x2A459, offset: 0x3DFDB, size: 0x8, addend: 0x0, symName: '__ZNSt3__117__compressed_pairIZN5Scene4initEiiE3$_1NS_9allocatorIS2_EEE5firstB7v160006Ev', symObjAddr: 0x5240, symBinAddr: 0x100008BC8, symSize: 0x24 }
  - { offsetInCU: 0x2A47D, offset: 0x3DFFF, size: 0x8, addend: 0x0, symName: '__ZZN5Scene4initEiiENK3$_1clEv', symObjAddr: 0x5288, symBinAddr: 0x100008C10, symSize: 0x74 }
  - { offsetInCU: 0x2A4A6, offset: 0x3E028, size: 0x8, addend: 0x0, symName: '__ZNSt3__122__compressed_pair_elemIZN5Scene4initEiiE3$_1Li0ELb0EE5__getB7v160006Ev', symObjAddr: 0x52FC, symBinAddr: 0x100008C84, symSize: 0x14 }
  - { offsetInCU: 0x2A4CB, offset: 0x3E04D, size: 0x8, addend: 0x0, symName: '__ZNSt3__18functionIFvvEEC2IZN5Scene4initEiiE3$_2vEET_', symObjAddr: 0x5310, symBinAddr: 0x100008C98, symSize: 0x38 }
  - { offsetInCU: 0x2A50F, offset: 0x3E091, size: 0x8, addend: 0x0, symName: '__ZNSt3__110__function12__value_funcIFvvEEC1B7v160006IZN5Scene4initEiiE3$_2vEEOT_', symObjAddr: 0x5348, symBinAddr: 0x100008CD0, symSize: 0x50 }
  - { offsetInCU: 0x2A551, offset: 0x3E0D3, size: 0x8, addend: 0x0, symName: '__ZNSt3__19allocatorIZN5Scene4initEiiE3$_2EC1B7v160006Ev', symObjAddr: 0x5398, symBinAddr: 0x100008D20, symSize: 0x2C }
  - { offsetInCU: 0x2A57A, offset: 0x3E0FC, size: 0x8, addend: 0x0, symName: '__ZNSt3__110__function12__value_funcIFvvEEC1B7v160006IZN5Scene4initEiiE3$_2NS_9allocatorIS6_EEEEOT_RKT0_', symObjAddr: 0x53C4, symBinAddr: 0x100008D4C, symSize: 0x3C }
  - { offsetInCU: 0x2A5D3, offset: 0x3E155, size: 0x8, addend: 0x0, symName: '__ZNSt3__19allocatorIZN5Scene4initEiiE3$_2EC2B7v160006Ev', symObjAddr: 0x5400, symBinAddr: 0x100008D88, symSize: 0x2C }
  - { offsetInCU: 0x2A5FC, offset: 0x3E17E, size: 0x8, addend: 0x0, symName: '__ZNSt3__116__non_trivial_ifILb1ENS_9allocatorIZN5Scene4initEiiE3$_2EEEC2B7v160006Ev', symObjAddr: 0x542C, symBinAddr: 0x100008DB4, symSize: 0x14 }
  - { offsetInCU: 0x2A625, offset: 0x3E1A7, size: 0x8, addend: 0x0, symName: '__ZNSt3__110__function12__value_funcIFvvEEC2B7v160006IZN5Scene4initEiiE3$_2NS_9allocatorIS6_EEEEOT_RKT0_', symObjAddr: 0x5440, symBinAddr: 0x100008DC8, symSize: 0x94 }
  - { offsetInCU: 0x2A6CB, offset: 0x3E24D, size: 0x8, addend: 0x0, symName: '__ZNSt3__19allocatorINS_10__function6__funcIZN5Scene4initEiiE3$_2NS0_IS4_EEFvvEEEEC1B7v160006IS4_EERKNS0_IT_EE', symObjAddr: 0x54EC, symBinAddr: 0x100008E74, symSize: 0x34 }
  - { offsetInCU: 0x2A70D, offset: 0x3E28F, size: 0x8, addend: 0x0, symName: '__ZNSt3__19allocatorIZN5Scene4initEiiE3$_2EC1B7v160006INS_10__function6__funcIS2_S3_FvvEEEEERKNS0_IT_EE', symObjAddr: 0x5520, symBinAddr: 0x100008EA8, symSize: 0x34 }
  - { offsetInCU: 0x2A74A, offset: 0x3E2CC, size: 0x8, addend: 0x0, symName: '__ZNSt3__110__function6__funcIZN5Scene4initEiiE3$_2NS_9allocatorIS3_EEFvvEEC1B7v160006EOS3_OS5_', symObjAddr: 0x5554, symBinAddr: 0x100008EDC, symSize: 0x3C }
  - { offsetInCU: 0x2A791, offset: 0x3E313, size: 0x8, addend: 0x0, symName: '__ZNSt3__19allocatorINS_10__function6__funcIZN5Scene4initEiiE3$_2NS0_IS4_EEFvvEEEEC2B7v160006IS4_EERKNS0_IT_EE', symObjAddr: 0x5590, symBinAddr: 0x100008F18, symSize: 0x30 }
  - { offsetInCU: 0x2A7CE, offset: 0x3E350, size: 0x8, addend: 0x0, symName: '__ZNSt3__116__non_trivial_ifILb1ENS_9allocatorINS_10__function6__funcIZN5Scene4initEiiE3$_2NS1_IS5_EEFvvEEEEEEC2B7v160006Ev', symObjAddr: 0x55C0, symBinAddr: 0x100008F48, symSize: 0x14 }
  - { offsetInCU: 0x2A7F7, offset: 0x3E379, size: 0x8, addend: 0x0, symName: '__ZNSt3__19allocatorIZN5Scene4initEiiE3$_2EC2B7v160006INS_10__function6__funcIS2_S3_FvvEEEEERKNS0_IT_EE', symObjAddr: 0x55D4, symBinAddr: 0x100008F5C, symSize: 0x30 }
  - { offsetInCU: 0x2A834, offset: 0x3E3B6, size: 0x8, addend: 0x0, symName: '__ZNSt3__110__function6__funcIZN5Scene4initEiiE3$_2NS_9allocatorIS3_EEFvvEEC2B7v160006EOS3_OS5_', symObjAddr: 0x5604, symBinAddr: 0x100008F8C, symSize: 0x88 }
  - { offsetInCU: 0x2A87B, offset: 0x3E3FD, size: 0x8, addend: 0x0, symName: '__ZNSt3__110__function12__alloc_funcIZN5Scene4initEiiE3$_2NS_9allocatorIS3_EEFvvEEC1B7v160006EOS3_OS5_', symObjAddr: 0x568C, symBinAddr: 0x100009014, symSize: 0x3C }
  - { offsetInCU: 0x2A8C0, offset: 0x3E442, size: 0x8, addend: 0x0, symName: '__ZNSt3__110__function6__funcIZN5Scene4initEiiE3$_2NS_9allocatorIS3_EEFvvEED1Ev', symObjAddr: 0x56C8, symBinAddr: 0x100009050, symSize: 0x2C }
  - { offsetInCU: 0x2A8EC, offset: 0x3E46E, size: 0x8, addend: 0x0, symName: '__ZNSt3__110__function6__funcIZN5Scene4initEiiE3$_2NS_9allocatorIS3_EEFvvEED0Ev', symObjAddr: 0x56F4, symBinAddr: 0x10000907C, symSize: 0x30 }
  - { offsetInCU: 0x2A918, offset: 0x3E49A, size: 0x8, addend: 0x0, symName: '__ZNKSt3__110__function6__funcIZN5Scene4initEiiE3$_2NS_9allocatorIS3_EEFvvEE7__cloneEv', symObjAddr: 0x5724, symBinAddr: 0x1000090AC, symSize: 0xFC }
  - { offsetInCU: 0x2A969, offset: 0x3E4EB, size: 0x8, addend: 0x0, symName: '__ZNKSt3__110__function6__funcIZN5Scene4initEiiE3$_2NS_9allocatorIS3_EEFvvEE7__cloneEPNS0_6__baseIS6_EE', symObjAddr: 0x5820, symBinAddr: 0x1000091A8, symSize: 0x58 }
  - { offsetInCU: 0x2A99F, offset: 0x3E521, size: 0x8, addend: 0x0, symName: '__ZNSt3__110__function6__funcIZN5Scene4initEiiE3$_2NS_9allocatorIS3_EEFvvEE7destroyEv', symObjAddr: 0x5878, symBinAddr: 0x100009200, symSize: 0x28 }
  - { offsetInCU: 0x2A9C6, offset: 0x3E548, size: 0x8, addend: 0x0, symName: '__ZNSt3__110__function6__funcIZN5Scene4initEiiE3$_2NS_9allocatorIS3_EEFvvEE18destroy_deallocateEv', symObjAddr: 0x58A0, symBinAddr: 0x100009228, symSize: 0x58 }
  - { offsetInCU: 0x2AA08, offset: 0x3E58A, size: 0x8, addend: 0x0, symName: '__ZNSt3__110__function6__funcIZN5Scene4initEiiE3$_2NS_9allocatorIS3_EEFvvEEclEv', symObjAddr: 0x58F8, symBinAddr: 0x100009280, symSize: 0x28 }
  - { offsetInCU: 0x2AA2F, offset: 0x3E5B1, size: 0x8, addend: 0x0, symName: '__ZNKSt3__110__function6__funcIZN5Scene4initEiiE3$_2NS_9allocatorIS3_EEFvvEE6targetERKSt9type_info', symObjAddr: 0x5920, symBinAddr: 0x1000092A8, symSize: 0x60 }
  - { offsetInCU: 0x2AA65, offset: 0x3E5E7, size: 0x8, addend: 0x0, symName: '__ZNKSt3__110__function6__funcIZN5Scene4initEiiE3$_2NS_9allocatorIS3_EEFvvEE11target_typeEv', symObjAddr: 0x5980, symBinAddr: 0x100009308, symSize: 0x18 }
  - { offsetInCU: 0x2AA8C, offset: 0x3E60E, size: 0x8, addend: 0x0, symName: '__ZNSt3__110__function12__alloc_funcIZN5Scene4initEiiE3$_2NS_9allocatorIS3_EEFvvEEC2B7v160006EOS3_OS5_', symObjAddr: 0x5998, symBinAddr: 0x100009320, symSize: 0x5C }
  - { offsetInCU: 0x2AAD1, offset: 0x3E653, size: 0x8, addend: 0x0, symName: '__ZNSt3__117__compressed_pairIZN5Scene4initEiiE3$_2NS_9allocatorIS2_EEEC1B7v160006IJOS2_EJOS4_EEENS_21piecewise_construct_tENS_5tupleIJDpT_EEENSA_IJDpT0_EEE', symObjAddr: 0x5A4C, symBinAddr: 0x1000093D4, symSize: 0x3C }
  - { offsetInCU: 0x2AB3A, offset: 0x3E6BC, size: 0x8, addend: 0x0, symName: '__ZNSt3__15tupleIJOZN5Scene4initEiiE3$_2EEC1B7v160006IJS2_ELi0EEEDpOT_', symObjAddr: 0x5A88, symBinAddr: 0x100009410, symSize: 0x34 }
  - { offsetInCU: 0x2AB84, offset: 0x3E706, size: 0x8, addend: 0x0, symName: '__ZNSt3__15tupleIJOZN5Scene4initEiiE3$_2EEC2B7v160006IJS2_ELi0EEEDpOT_', symObjAddr: 0x5ABC, symBinAddr: 0x100009444, symSize: 0x34 }
  - { offsetInCU: 0x2ABCE, offset: 0x3E750, size: 0x8, addend: 0x0, symName: '__ZNSt3__112__tuple_implINS_15__tuple_indicesIJLm0EEEEJOZN5Scene4initEiiE3$_2EEC1B7v160006IJLm0EEJS5_EJEJEJS4_EEENS1_IJXspT_EEEENS_13__tuple_typesIJDpT0_EEENS1_IJXspT1_EEEENS9_IJDpT2_EEEDpOT3_', symObjAddr: 0x5AF0, symBinAddr: 0x100009478, symSize: 0x34 }
  - { offsetInCU: 0x2AC62, offset: 0x3E7E4, size: 0x8, addend: 0x0, symName: '__ZNSt3__112__tuple_implINS_15__tuple_indicesIJLm0EEEEJOZN5Scene4initEiiE3$_2EEC2B7v160006IJLm0EEJS5_EJEJEJS4_EEENS1_IJXspT_EEEENS_13__tuple_typesIJDpT0_EEENS1_IJXspT1_EEEENS9_IJDpT2_EEEDpOT3_', symObjAddr: 0x5B24, symBinAddr: 0x1000094AC, symSize: 0x34 }
  - { offsetInCU: 0x2ACF6, offset: 0x3E878, size: 0x8, addend: 0x0, symName: '__ZNSt3__112__tuple_leafILm0EOZN5Scene4initEiiE3$_2Lb0EEC2B7v160006IS2_vEEOT_', symObjAddr: 0x5B58, symBinAddr: 0x1000094E0, symSize: 0x20 }
  - { offsetInCU: 0x2AD38, offset: 0x3E8BA, size: 0x8, addend: 0x0, symName: '__ZNSt3__15tupleIJONS_9allocatorIZN5Scene4initEiiE3$_2EEEEC1B7v160006IJS4_ELi0EEEDpOT_', symObjAddr: 0x5B78, symBinAddr: 0x100009500, symSize: 0x34 }
  - { offsetInCU: 0x2AD82, offset: 0x3E904, size: 0x8, addend: 0x0, symName: '__ZNSt3__15tupleIJONS_9allocatorIZN5Scene4initEiiE3$_2EEEEC2B7v160006IJS4_ELi0EEEDpOT_', symObjAddr: 0x5BAC, symBinAddr: 0x100009534, symSize: 0x34 }
  - { offsetInCU: 0x2ADCC, offset: 0x3E94E, size: 0x8, addend: 0x0, symName: '__ZNSt3__112__tuple_implINS_15__tuple_indicesIJLm0EEEEJONS_9allocatorIZN5Scene4initEiiE3$_2EEEEC1B7v160006IJLm0EEJS7_EJEJEJS6_EEENS1_IJXspT_EEEENS_13__tuple_typesIJDpT0_EEENS1_IJXspT1_EEEENSB_IJDpT2_EEEDpOT3_', symObjAddr: 0x5BE0, symBinAddr: 0x100009568, symSize: 0x34 }
  - { offsetInCU: 0x2AE60, offset: 0x3E9E2, size: 0x8, addend: 0x0, symName: '__ZNSt3__112__tuple_implINS_15__tuple_indicesIJLm0EEEEJONS_9allocatorIZN5Scene4initEiiE3$_2EEEEC2B7v160006IJLm0EEJS7_EJEJEJS6_EEENS1_IJXspT_EEEENS_13__tuple_typesIJDpT0_EEENS1_IJXspT1_EEEENSB_IJDpT2_EEEDpOT3_', symObjAddr: 0x5C14, symBinAddr: 0x10000959C, symSize: 0x34 }
  - { offsetInCU: 0x2AEF4, offset: 0x3EA76, size: 0x8, addend: 0x0, symName: '__ZNSt3__112__tuple_leafILm0EONS_9allocatorIZN5Scene4initEiiE3$_2EELb0EEC2B7v160006IS4_vEEOT_', symObjAddr: 0x5C48, symBinAddr: 0x1000095D0, symSize: 0x20 }
  - { offsetInCU: 0x2AF36, offset: 0x3EAB8, size: 0x8, addend: 0x0, symName: '__ZNSt3__117__compressed_pairIZN5Scene4initEiiE3$_2NS_9allocatorIS2_EEEC2B7v160006IJOS2_EJOS4_EEENS_21piecewise_construct_tENS_5tupleIJDpT_EEENSA_IJDpT0_EEE', symObjAddr: 0x5C68, symBinAddr: 0x1000095F0, symSize: 0x54 }
  - { offsetInCU: 0x2AF9F, offset: 0x3EB21, size: 0x8, addend: 0x0, symName: '__ZNSt3__122__compressed_pair_elemIZN5Scene4initEiiE3$_2Li0ELb0EEC2B7v160006IJOS2_EJLm0EEEENS_21piecewise_construct_tENS_5tupleIJDpT_EEENS_15__tuple_indicesIJXspT0_EEEE', symObjAddr: 0x5CBC, symBinAddr: 0x100009644, symSize: 0x44 }
  - { offsetInCU: 0x2B003, offset: 0x3EB85, size: 0x8, addend: 0x0, symName: '__ZNSt3__122__compressed_pair_elemINS_9allocatorIZN5Scene4initEiiE3$_2EELi1ELb1EEC2B7v160006IJOS4_EJLm0EEEENS_21piecewise_construct_tENS_5tupleIJDpT_EEENS_15__tuple_indicesIJXspT0_EEEE', symObjAddr: 0x5D00, symBinAddr: 0x100009688, symSize: 0x38 }
  - { offsetInCU: 0x2B067, offset: 0x3EBE9, size: 0x8, addend: 0x0, symName: '__ZNSt3__112__tuple_leafILm0EOZN5Scene4initEiiE3$_2Lb0EE3getB7v160006Ev', symObjAddr: 0x5D5C, symBinAddr: 0x1000096E4, symSize: 0x18 }
  - { offsetInCU: 0x2B08C, offset: 0x3EC0E, size: 0x8, addend: 0x0, symName: '__ZNSt3__112__tuple_leafILm0EONS_9allocatorIZN5Scene4initEiiE3$_2EELb0EE3getB7v160006Ev', symObjAddr: 0x5D98, symBinAddr: 0x100009720, symSize: 0x18 }
  - { offsetInCU: 0x2B0B1, offset: 0x3EC33, size: 0x8, addend: 0x0, symName: '__ZNSt3__110__function6__funcIZN5Scene4initEiiE3$_2NS_9allocatorIS3_EEFvvEED2Ev', symObjAddr: 0x5DB0, symBinAddr: 0x100009738, symSize: 0x2C }
  - { offsetInCU: 0x2B0DD, offset: 0x3EC5F, size: 0x8, addend: 0x0, symName: '__ZNKSt3__110__function12__alloc_funcIZN5Scene4initEiiE3$_2NS_9allocatorIS3_EEFvvEE15__get_allocatorB7v160006Ev', symObjAddr: 0x5DDC, symBinAddr: 0x100009764, symSize: 0x24 }
  - { offsetInCU: 0x2B101, offset: 0x3EC83, size: 0x8, addend: 0x0, symName: '__ZNSt3__19allocatorINS_10__function6__funcIZN5Scene4initEiiE3$_2NS0_IS4_EEFvvEEEE8allocateB7v160006Em', symObjAddr: 0x5E00, symBinAddr: 0x100009788, symSize: 0x58 }
  - { offsetInCU: 0x2B142, offset: 0x3ECC4, size: 0x8, addend: 0x0, symName: '__ZNSt3__122__allocator_destructorINS_9allocatorINS_10__function6__funcIZN5Scene4initEiiE3$_2NS1_IS5_EEFvvEEEEEEC1B7v160006ERS9_m', symObjAddr: 0x5E58, symBinAddr: 0x1000097E0, symSize: 0x3C }
  - { offsetInCU: 0x2B213, offset: 0x3ED95, size: 0x8, addend: 0x0, symName: '__ZNSt3__110unique_ptrINS_10__function6__funcIZN5Scene4initEiiE3$_2NS_9allocatorIS4_EEFvvEEENS_22__allocator_destructorINS5_IS8_EEEEEC1B7v160006ILb1EvEEPS8_NS_16__dependent_typeINS_27__unique_ptr_deleter_sfinaeISB_EEXT_EE20__good_rval_ref_typeE', symObjAddr: 0x5E94, symBinAddr: 0x10000981C, symSize: 0x3C }
  - { offsetInCU: 0x2B263, offset: 0x3EDE5, size: 0x8, addend: 0x0, symName: '__ZNKSt3__110unique_ptrINS_10__function6__funcIZN5Scene4initEiiE3$_2NS_9allocatorIS4_EEFvvEEENS_22__allocator_destructorINS5_IS8_EEEEE3getB7v160006Ev', symObjAddr: 0x5ED0, symBinAddr: 0x100009858, symSize: 0x28 }
  - { offsetInCU: 0x2B287, offset: 0x3EE09, size: 0x8, addend: 0x0, symName: '__ZNKSt3__110__function12__alloc_funcIZN5Scene4initEiiE3$_2NS_9allocatorIS3_EEFvvEE8__targetB7v160006Ev', symObjAddr: 0x5EF8, symBinAddr: 0x100009880, symSize: 0x24 }
  - { offsetInCU: 0x2B2AB, offset: 0x3EE2D, size: 0x8, addend: 0x0, symName: '__ZNSt3__110__function6__funcIZN5Scene4initEiiE3$_2NS_9allocatorIS3_EEFvvEEC1B7v160006ERKS3_OS5_', symObjAddr: 0x5F1C, symBinAddr: 0x1000098A4, symSize: 0x3C }
  - { offsetInCU: 0x2B2F2, offset: 0x3EE74, size: 0x8, addend: 0x0, symName: '__ZNSt3__110unique_ptrINS_10__function6__funcIZN5Scene4initEiiE3$_2NS_9allocatorIS4_EEFvvEEENS_22__allocator_destructorINS5_IS8_EEEEE7releaseB7v160006Ev', symObjAddr: 0x5F58, symBinAddr: 0x1000098E0, symSize: 0x44 }
  - { offsetInCU: 0x2B325, offset: 0x3EEA7, size: 0x8, addend: 0x0, symName: '__ZNSt3__110unique_ptrINS_10__function6__funcIZN5Scene4initEiiE3$_2NS_9allocatorIS4_EEFvvEEENS_22__allocator_destructorINS5_IS8_EEEEED1B7v160006Ev', symObjAddr: 0x5F9C, symBinAddr: 0x100009924, symSize: 0x2C }
  - { offsetInCU: 0x2B34E, offset: 0x3EED0, size: 0x8, addend: 0x0, symName: '__ZNKSt3__117__compressed_pairIZN5Scene4initEiiE3$_2NS_9allocatorIS2_EEE6secondB7v160006Ev', symObjAddr: 0x5FC8, symBinAddr: 0x100009950, symSize: 0x24 }
  - { offsetInCU: 0x2B372, offset: 0x3EEF4, size: 0x8, addend: 0x0, symName: '__ZNKSt3__122__compressed_pair_elemINS_9allocatorIZN5Scene4initEiiE3$_2EELi1ELb1EE5__getB7v160006Ev', symObjAddr: 0x5FEC, symBinAddr: 0x100009974, symSize: 0x14 }
  - { offsetInCU: 0x2B3A1, offset: 0x3EF23, size: 0x8, addend: 0x0, symName: '__ZNSt3__116allocator_traitsINS_9allocatorINS_10__function6__funcIZN5Scene4initEiiE3$_2NS1_IS5_EEFvvEEEEEE8max_sizeB7v160006IS9_vEEmRKS9_', symObjAddr: 0x6000, symBinAddr: 0x100009988, symSize: 0x24 }
  - { offsetInCU: 0x2B3CF, offset: 0x3EF51, size: 0x8, addend: 0x0, symName: '__ZNKSt3__19allocatorINS_10__function6__funcIZN5Scene4initEiiE3$_2NS0_IS4_EEFvvEEEE8max_sizeB7v160006Ev', symObjAddr: 0x6024, symBinAddr: 0x1000099AC, symSize: 0x14 }
  - { offsetInCU: 0x2B3F4, offset: 0x3EF76, size: 0x8, addend: 0x0, symName: '__ZNSt3__122__allocator_destructorINS_9allocatorINS_10__function6__funcIZN5Scene4initEiiE3$_2NS1_IS5_EEFvvEEEEEEC2B7v160006ERS9_m', symObjAddr: 0x6038, symBinAddr: 0x1000099C0, symSize: 0x2C }
  - { offsetInCU: 0x2B439, offset: 0x3EFBB, size: 0x8, addend: 0x0, symName: '__ZNSt3__110unique_ptrINS_10__function6__funcIZN5Scene4initEiiE3$_2NS_9allocatorIS4_EEFvvEEENS_22__allocator_destructorINS5_IS8_EEEEEC2B7v160006ILb1EvEEPS8_NS_16__dependent_typeINS_27__unique_ptr_deleter_sfinaeISB_EEXT_EE20__good_rval_ref_typeE', symObjAddr: 0x6064, symBinAddr: 0x1000099EC, symSize: 0x48 }
  - { offsetInCU: 0x2B489, offset: 0x3F00B, size: 0x8, addend: 0x0, symName: '__ZNSt3__117__compressed_pairIPNS_10__function6__funcIZN5Scene4initEiiE3$_2NS_9allocatorIS4_EEFvvEEENS_22__allocator_destructorINS5_IS8_EEEEEC1B7v160006IRS9_SC_EEOT_OT0_', symObjAddr: 0x60AC, symBinAddr: 0x100009A34, symSize: 0x3C }
  - { offsetInCU: 0x2B4E0, offset: 0x3F062, size: 0x8, addend: 0x0, symName: '__ZNSt3__117__compressed_pairIPNS_10__function6__funcIZN5Scene4initEiiE3$_2NS_9allocatorIS4_EEFvvEEENS_22__allocator_destructorINS5_IS8_EEEEEC2B7v160006IRS9_SC_EEOT_OT0_', symObjAddr: 0x60E8, symBinAddr: 0x100009A70, symSize: 0x48 }
  - { offsetInCU: 0x2B537, offset: 0x3F0B9, size: 0x8, addend: 0x0, symName: '__ZNSt3__122__compressed_pair_elemIPNS_10__function6__funcIZN5Scene4initEiiE3$_2NS_9allocatorIS4_EEFvvEEELi0ELb0EEC2B7v160006IRS9_vEEOT_', symObjAddr: 0x6130, symBinAddr: 0x100009AB8, symSize: 0x24 }
  - { offsetInCU: 0x2B578, offset: 0x3F0FA, size: 0x8, addend: 0x0, symName: '__ZNSt3__122__compressed_pair_elemINS_22__allocator_destructorINS_9allocatorINS_10__function6__funcIZN5Scene4initEiiE3$_2NS2_IS6_EEFvvEEEEEEELi1ELb0EEC2B7v160006ISB_vEEOT_', symObjAddr: 0x6154, symBinAddr: 0x100009ADC, symSize: 0x24 }
  - { offsetInCU: 0x2B5B9, offset: 0x3F13B, size: 0x8, addend: 0x0, symName: '__ZNKSt3__117__compressed_pairIPNS_10__function6__funcIZN5Scene4initEiiE3$_2NS_9allocatorIS4_EEFvvEEENS_22__allocator_destructorINS5_IS8_EEEEE5firstB7v160006Ev', symObjAddr: 0x6178, symBinAddr: 0x100009B00, symSize: 0x24 }
  - { offsetInCU: 0x2B5DD, offset: 0x3F15F, size: 0x8, addend: 0x0, symName: '__ZNKSt3__122__compressed_pair_elemIPNS_10__function6__funcIZN5Scene4initEiiE3$_2NS_9allocatorIS4_EEFvvEEELi0ELb0EE5__getB7v160006Ev', symObjAddr: 0x619C, symBinAddr: 0x100009B24, symSize: 0x14 }
  - { offsetInCU: 0x2B602, offset: 0x3F184, size: 0x8, addend: 0x0, symName: '__ZNKSt3__117__compressed_pairIZN5Scene4initEiiE3$_2NS_9allocatorIS2_EEE5firstB7v160006Ev', symObjAddr: 0x61B0, symBinAddr: 0x100009B38, symSize: 0x24 }
  - { offsetInCU: 0x2B626, offset: 0x3F1A8, size: 0x8, addend: 0x0, symName: '__ZNKSt3__122__compressed_pair_elemIZN5Scene4initEiiE3$_2Li0ELb0EE5__getB7v160006Ev', symObjAddr: 0x61D4, symBinAddr: 0x100009B5C, symSize: 0x14 }
  - { offsetInCU: 0x2B64B, offset: 0x3F1CD, size: 0x8, addend: 0x0, symName: '__ZNSt3__110__function6__funcIZN5Scene4initEiiE3$_2NS_9allocatorIS3_EEFvvEEC2B7v160006ERKS3_OS5_', symObjAddr: 0x61E8, symBinAddr: 0x100009B70, symSize: 0x88 }
  - { offsetInCU: 0x2B692, offset: 0x3F214, size: 0x8, addend: 0x0, symName: '__ZNSt3__110__function12__alloc_funcIZN5Scene4initEiiE3$_2NS_9allocatorIS3_EEFvvEEC1B7v160006ERKS3_OS5_', symObjAddr: 0x6270, symBinAddr: 0x100009BF8, symSize: 0x3C }
  - { offsetInCU: 0x2B6D7, offset: 0x3F259, size: 0x8, addend: 0x0, symName: '__ZNSt3__110__function12__alloc_funcIZN5Scene4initEiiE3$_2NS_9allocatorIS3_EEFvvEEC2B7v160006ERKS3_OS5_', symObjAddr: 0x62AC, symBinAddr: 0x100009C34, symSize: 0x5C }
  - { offsetInCU: 0x2B71C, offset: 0x3F29E, size: 0x8, addend: 0x0, symName: '__ZNSt3__117__compressed_pairIZN5Scene4initEiiE3$_2NS_9allocatorIS2_EEEC1B7v160006IJRKS2_EJOS4_EEENS_21piecewise_construct_tENS_5tupleIJDpT_EEENSB_IJDpT0_EEE', symObjAddr: 0x6334, symBinAddr: 0x100009CBC, symSize: 0x3C }
  - { offsetInCU: 0x2B785, offset: 0x3F307, size: 0x8, addend: 0x0, symName: '__ZNSt3__15tupleIJRKZN5Scene4initEiiE3$_2EEC1B7v160006INS_4_AndELi0EEES4_', symObjAddr: 0x6370, symBinAddr: 0x100009CF8, symSize: 0x34 }
  - { offsetInCU: 0x2B7CE, offset: 0x3F350, size: 0x8, addend: 0x0, symName: '__ZNSt3__15tupleIJRKZN5Scene4initEiiE3$_2EEC2B7v160006INS_4_AndELi0EEES4_', symObjAddr: 0x63A4, symBinAddr: 0x100009D2C, symSize: 0x34 }
  - { offsetInCU: 0x2B817, offset: 0x3F399, size: 0x8, addend: 0x0, symName: '__ZNSt3__112__tuple_implINS_15__tuple_indicesIJLm0EEEEJRKZN5Scene4initEiiE3$_2EEC1B7v160006IJLm0EEJS6_EJEJEJS6_EEENS1_IJXspT_EEEENS_13__tuple_typesIJDpT0_EEENS1_IJXspT1_EEEENSA_IJDpT2_EEEDpOT3_', symObjAddr: 0x63D8, symBinAddr: 0x100009D60, symSize: 0x34 }
  - { offsetInCU: 0x2B8AB, offset: 0x3F42D, size: 0x8, addend: 0x0, symName: '__ZNSt3__112__tuple_implINS_15__tuple_indicesIJLm0EEEEJRKZN5Scene4initEiiE3$_2EEC2B7v160006IJLm0EEJS6_EJEJEJS6_EEENS1_IJXspT_EEEENS_13__tuple_typesIJDpT0_EEENS1_IJXspT1_EEEENSA_IJDpT2_EEEDpOT3_', symObjAddr: 0x640C, symBinAddr: 0x100009D94, symSize: 0x34 }
  - { offsetInCU: 0x2B93F, offset: 0x3F4C1, size: 0x8, addend: 0x0, symName: '__ZNSt3__112__tuple_leafILm0ERKZN5Scene4initEiiE3$_2Lb0EEC2B7v160006IS4_vEEOT_', symObjAddr: 0x6440, symBinAddr: 0x100009DC8, symSize: 0x20 }
  - { offsetInCU: 0x2B981, offset: 0x3F503, size: 0x8, addend: 0x0, symName: '__ZNSt3__117__compressed_pairIZN5Scene4initEiiE3$_2NS_9allocatorIS2_EEEC2B7v160006IJRKS2_EJOS4_EEENS_21piecewise_construct_tENS_5tupleIJDpT_EEENSB_IJDpT0_EEE', symObjAddr: 0x6460, symBinAddr: 0x100009DE8, symSize: 0x54 }
  - { offsetInCU: 0x2B9EA, offset: 0x3F56C, size: 0x8, addend: 0x0, symName: '__ZNSt3__122__compressed_pair_elemIZN5Scene4initEiiE3$_2Li0ELb0EEC2B7v160006IJRKS2_EJLm0EEEENS_21piecewise_construct_tENS_5tupleIJDpT_EEENS_15__tuple_indicesIJXspT0_EEEE', symObjAddr: 0x64B4, symBinAddr: 0x100009E3C, symSize: 0x44 }
  - { offsetInCU: 0x2BA4E, offset: 0x3F5D0, size: 0x8, addend: 0x0, symName: '__ZNSt3__112__tuple_leafILm0ERKZN5Scene4initEiiE3$_2Lb0EE3getB7v160006Ev', symObjAddr: 0x651C, symBinAddr: 0x100009EA4, symSize: 0x18 }
  - { offsetInCU: 0x2BA73, offset: 0x3F5F5, size: 0x8, addend: 0x0, symName: '__ZNSt3__117__compressed_pairIPNS_10__function6__funcIZN5Scene4initEiiE3$_2NS_9allocatorIS4_EEFvvEEENS_22__allocator_destructorINS5_IS8_EEEEE5firstB7v160006Ev', symObjAddr: 0x6534, symBinAddr: 0x100009EBC, symSize: 0x24 }
  - { offsetInCU: 0x2BA97, offset: 0x3F619, size: 0x8, addend: 0x0, symName: '__ZNSt3__122__compressed_pair_elemIPNS_10__function6__funcIZN5Scene4initEiiE3$_2NS_9allocatorIS4_EEFvvEEELi0ELb0EE5__getB7v160006Ev', symObjAddr: 0x6558, symBinAddr: 0x100009EE0, symSize: 0x14 }
  - { offsetInCU: 0x2BABC, offset: 0x3F63E, size: 0x8, addend: 0x0, symName: '__ZNSt3__110unique_ptrINS_10__function6__funcIZN5Scene4initEiiE3$_2NS_9allocatorIS4_EEFvvEEENS_22__allocator_destructorINS5_IS8_EEEEED2B7v160006Ev', symObjAddr: 0x656C, symBinAddr: 0x100009EF4, symSize: 0x30 }
  - { offsetInCU: 0x2BAE5, offset: 0x3F667, size: 0x8, addend: 0x0, symName: '__ZNSt3__110unique_ptrINS_10__function6__funcIZN5Scene4initEiiE3$_2NS_9allocatorIS4_EEFvvEEENS_22__allocator_destructorINS5_IS8_EEEEE5resetB7v160006EPS8_', symObjAddr: 0x659C, symBinAddr: 0x100009F24, symSize: 0x78 }
  - { offsetInCU: 0x2BB27, offset: 0x3F6A9, size: 0x8, addend: 0x0, symName: '__ZNSt3__117__compressed_pairIPNS_10__function6__funcIZN5Scene4initEiiE3$_2NS_9allocatorIS4_EEFvvEEENS_22__allocator_destructorINS5_IS8_EEEEE6secondB7v160006Ev', symObjAddr: 0x6614, symBinAddr: 0x100009F9C, symSize: 0x28 }
  - { offsetInCU: 0x2BB4B, offset: 0x3F6CD, size: 0x8, addend: 0x0, symName: '__ZNSt3__122__allocator_destructorINS_9allocatorINS_10__function6__funcIZN5Scene4initEiiE3$_2NS1_IS5_EEFvvEEEEEEclB7v160006EPS8_', symObjAddr: 0x663C, symBinAddr: 0x100009FC4, symSize: 0x34 }
  - { offsetInCU: 0x2BB7D, offset: 0x3F6FF, size: 0x8, addend: 0x0, symName: '__ZNSt3__122__compressed_pair_elemINS_22__allocator_destructorINS_9allocatorINS_10__function6__funcIZN5Scene4initEiiE3$_2NS2_IS6_EEFvvEEEEEEELi1ELb0EE5__getB7v160006Ev', symObjAddr: 0x6670, symBinAddr: 0x100009FF8, symSize: 0x14 }
  - { offsetInCU: 0x2BBA2, offset: 0x3F724, size: 0x8, addend: 0x0, symName: '__ZNSt3__116allocator_traitsINS_9allocatorINS_10__function6__funcIZN5Scene4initEiiE3$_2NS1_IS5_EEFvvEEEEEE10deallocateB7v160006ERS9_PS8_m', symObjAddr: 0x6684, symBinAddr: 0x10000A00C, symSize: 0x34 }
  - { offsetInCU: 0x2BBE4, offset: 0x3F766, size: 0x8, addend: 0x0, symName: '__ZNSt3__19allocatorINS_10__function6__funcIZN5Scene4initEiiE3$_2NS0_IS4_EEFvvEEEE10deallocateB7v160006EPS7_m', symObjAddr: 0x66B8, symBinAddr: 0x10000A040, symSize: 0x40 }
  - { offsetInCU: 0x2BC24, offset: 0x3F7A6, size: 0x8, addend: 0x0, symName: '__ZNSt3__110__function6__funcIZN5Scene4initEiiE3$_2NS_9allocatorIS3_EEFvvEEC1B7v160006ERKS3_RKS5_', symObjAddr: 0x66F8, symBinAddr: 0x10000A080, symSize: 0x3C }
  - { offsetInCU: 0x2BC6B, offset: 0x3F7ED, size: 0x8, addend: 0x0, symName: '__ZNSt3__110__function6__funcIZN5Scene4initEiiE3$_2NS_9allocatorIS3_EEFvvEEC2B7v160006ERKS3_RKS5_', symObjAddr: 0x6734, symBinAddr: 0x10000A0BC, symSize: 0x88 }
  - { offsetInCU: 0x2BCB2, offset: 0x3F834, size: 0x8, addend: 0x0, symName: '__ZNSt3__110__function12__alloc_funcIZN5Scene4initEiiE3$_2NS_9allocatorIS3_EEFvvEEC1B7v160006ERKS3_RKS5_', symObjAddr: 0x67BC, symBinAddr: 0x10000A144, symSize: 0x3C }
  - { offsetInCU: 0x2BCF7, offset: 0x3F879, size: 0x8, addend: 0x0, symName: '__ZNSt3__110__function12__alloc_funcIZN5Scene4initEiiE3$_2NS_9allocatorIS3_EEFvvEEC2B7v160006ERKS3_RKS5_', symObjAddr: 0x67F8, symBinAddr: 0x10000A180, symSize: 0x5C }
  - { offsetInCU: 0x2BD3C, offset: 0x3F8BE, size: 0x8, addend: 0x0, symName: '__ZNSt3__117__compressed_pairIZN5Scene4initEiiE3$_2NS_9allocatorIS2_EEEC1B7v160006IJRKS2_EJRKS4_EEENS_21piecewise_construct_tENS_5tupleIJDpT_EEENSC_IJDpT0_EEE', symObjAddr: 0x6880, symBinAddr: 0x10000A208, symSize: 0x3C }
  - { offsetInCU: 0x2BDA5, offset: 0x3F927, size: 0x8, addend: 0x0, symName: '__ZNSt3__15tupleIJRKNS_9allocatorIZN5Scene4initEiiE3$_2EEEEC1B7v160006INS_4_AndELi0EEES6_', symObjAddr: 0x68BC, symBinAddr: 0x10000A244, symSize: 0x34 }
  - { offsetInCU: 0x2BDEE, offset: 0x3F970, size: 0x8, addend: 0x0, symName: '__ZNSt3__15tupleIJRKNS_9allocatorIZN5Scene4initEiiE3$_2EEEEC2B7v160006INS_4_AndELi0EEES6_', symObjAddr: 0x68F0, symBinAddr: 0x10000A278, symSize: 0x34 }
  - { offsetInCU: 0x2BE37, offset: 0x3F9B9, size: 0x8, addend: 0x0, symName: '__ZNSt3__112__tuple_implINS_15__tuple_indicesIJLm0EEEEJRKNS_9allocatorIZN5Scene4initEiiE3$_2EEEEC1B7v160006IJLm0EEJS8_EJEJEJS8_EEENS1_IJXspT_EEEENS_13__tuple_typesIJDpT0_EEENS1_IJXspT1_EEEENSC_IJDpT2_EEEDpOT3_', symObjAddr: 0x6924, symBinAddr: 0x10000A2AC, symSize: 0x34 }
  - { offsetInCU: 0x2BECB, offset: 0x3FA4D, size: 0x8, addend: 0x0, symName: '__ZNSt3__112__tuple_implINS_15__tuple_indicesIJLm0EEEEJRKNS_9allocatorIZN5Scene4initEiiE3$_2EEEEC2B7v160006IJLm0EEJS8_EJEJEJS8_EEENS1_IJXspT_EEEENS_13__tuple_typesIJDpT0_EEENS1_IJXspT1_EEEENSC_IJDpT2_EEEDpOT3_', symObjAddr: 0x6958, symBinAddr: 0x10000A2E0, symSize: 0x34 }
  - { offsetInCU: 0x2BF5F, offset: 0x3FAE1, size: 0x8, addend: 0x0, symName: '__ZNSt3__112__tuple_leafILm0ERKNS_9allocatorIZN5Scene4initEiiE3$_2EELb0EEC2B7v160006IS6_vEEOT_', symObjAddr: 0x698C, symBinAddr: 0x10000A314, symSize: 0x20 }
  - { offsetInCU: 0x2BFA1, offset: 0x3FB23, size: 0x8, addend: 0x0, symName: '__ZNSt3__117__compressed_pairIZN5Scene4initEiiE3$_2NS_9allocatorIS2_EEEC2B7v160006IJRKS2_EJRKS4_EEENS_21piecewise_construct_tENS_5tupleIJDpT_EEENSC_IJDpT0_EEE', symObjAddr: 0x69AC, symBinAddr: 0x10000A334, symSize: 0x54 }
  - { offsetInCU: 0x2C00A, offset: 0x3FB8C, size: 0x8, addend: 0x0, symName: '__ZNSt3__122__compressed_pair_elemINS_9allocatorIZN5Scene4initEiiE3$_2EELi1ELb1EEC2B7v160006IJRKS4_EJLm0EEEENS_21piecewise_construct_tENS_5tupleIJDpT_EEENS_15__tuple_indicesIJXspT0_EEEE', symObjAddr: 0x6A00, symBinAddr: 0x10000A388, symSize: 0x38 }
  - { offsetInCU: 0x2C06E, offset: 0x3FBF0, size: 0x8, addend: 0x0, symName: '__ZNSt3__112__tuple_leafILm0ERKNS_9allocatorIZN5Scene4initEiiE3$_2EELb0EE3getB7v160006Ev', symObjAddr: 0x6A5C, symBinAddr: 0x10000A3E4, symSize: 0x18 }
  - { offsetInCU: 0x2C093, offset: 0x3FC15, size: 0x8, addend: 0x0, symName: '__ZNSt3__110__function12__alloc_funcIZN5Scene4initEiiE3$_2NS_9allocatorIS3_EEFvvEE7destroyB7v160006Ev', symObjAddr: 0x6A74, symBinAddr: 0x10000A3FC, symSize: 0x10 }
  - { offsetInCU: 0x2C0B8, offset: 0x3FC3A, size: 0x8, addend: 0x0, symName: '__ZNSt3__110__function12__alloc_funcIZN5Scene4initEiiE3$_2NS_9allocatorIS3_EEFvvEEclB7v160006Ev', symObjAddr: 0x6A84, symBinAddr: 0x10000A40C, symSize: 0x28 }
  - { offsetInCU: 0x2C0DC, offset: 0x3FC5E, size: 0x8, addend: 0x0, symName: '__ZNSt3__128__invoke_void_return_wrapperIvLb1EE6__callIJRZN5Scene4initEiiE3$_2EEEvDpOT_', symObjAddr: 0x6AAC, symBinAddr: 0x10000A434, symSize: 0x24 }
  - { offsetInCU: 0x2C10B, offset: 0x3FC8D, size: 0x8, addend: 0x0, symName: '__ZNSt3__117__compressed_pairIZN5Scene4initEiiE3$_2NS_9allocatorIS2_EEE5firstB7v160006Ev', symObjAddr: 0x6AD0, symBinAddr: 0x10000A458, symSize: 0x24 }
  - { offsetInCU: 0x2C12F, offset: 0x3FCB1, size: 0x8, addend: 0x0, symName: '__ZZN5Scene4initEiiENK3$_2clEv', symObjAddr: 0x6B18, symBinAddr: 0x10000A4A0, symSize: 0x38 }
  - { offsetInCU: 0x2C158, offset: 0x3FCDA, size: 0x8, addend: 0x0, symName: '__ZNSt3__122__compressed_pair_elemIZN5Scene4initEiiE3$_2Li0ELb0EE5__getB7v160006Ev', symObjAddr: 0x6B50, symBinAddr: 0x10000A4D8, symSize: 0x14 }
  - { offsetInCU: 0x2C17D, offset: 0x3FCFF, size: 0x8, addend: 0x0, symName: '__ZNSt3__18functionIFvvEEC2IZN5Scene4initEiiE3$_3vEET_', symObjAddr: 0x6B64, symBinAddr: 0x10000A4EC, symSize: 0x38 }
  - { offsetInCU: 0x2C1C1, offset: 0x3FD43, size: 0x8, addend: 0x0, symName: '__ZNSt3__110__function12__value_funcIFvvEEC1B7v160006IZN5Scene4initEiiE3$_3vEEOT_', symObjAddr: 0x6B9C, symBinAddr: 0x10000A524, symSize: 0x50 }
  - { offsetInCU: 0x2C203, offset: 0x3FD85, size: 0x8, addend: 0x0, symName: '__ZNSt3__19allocatorIZN5Scene4initEiiE3$_3EC1B7v160006Ev', symObjAddr: 0x6BEC, symBinAddr: 0x10000A574, symSize: 0x2C }
  - { offsetInCU: 0x2C22C, offset: 0x3FDAE, size: 0x8, addend: 0x0, symName: '__ZNSt3__110__function12__value_funcIFvvEEC1B7v160006IZN5Scene4initEiiE3$_3NS_9allocatorIS6_EEEEOT_RKT0_', symObjAddr: 0x6C18, symBinAddr: 0x10000A5A0, symSize: 0x3C }
  - { offsetInCU: 0x2C285, offset: 0x3FE07, size: 0x8, addend: 0x0, symName: '__ZNSt3__19allocatorIZN5Scene4initEiiE3$_3EC2B7v160006Ev', symObjAddr: 0x6C54, symBinAddr: 0x10000A5DC, symSize: 0x2C }
  - { offsetInCU: 0x2C2AE, offset: 0x3FE30, size: 0x8, addend: 0x0, symName: '__ZNSt3__116__non_trivial_ifILb1ENS_9allocatorIZN5Scene4initEiiE3$_3EEEC2B7v160006Ev', symObjAddr: 0x6C80, symBinAddr: 0x10000A608, symSize: 0x14 }
  - { offsetInCU: 0x2C2D7, offset: 0x3FE59, size: 0x8, addend: 0x0, symName: '__ZNSt3__110__function12__value_funcIFvvEEC2B7v160006IZN5Scene4initEiiE3$_3NS_9allocatorIS6_EEEEOT_RKT0_', symObjAddr: 0x6C94, symBinAddr: 0x10000A61C, symSize: 0x94 }
  - { offsetInCU: 0x2C37D, offset: 0x3FEFF, size: 0x8, addend: 0x0, symName: '__ZNSt3__19allocatorINS_10__function6__funcIZN5Scene4initEiiE3$_3NS0_IS4_EEFvvEEEEC1B7v160006IS4_EERKNS0_IT_EE', symObjAddr: 0x6D40, symBinAddr: 0x10000A6C8, symSize: 0x34 }
  - { offsetInCU: 0x2C3BF, offset: 0x3FF41, size: 0x8, addend: 0x0, symName: '__ZNSt3__19allocatorIZN5Scene4initEiiE3$_3EC1B7v160006INS_10__function6__funcIS2_S3_FvvEEEEERKNS0_IT_EE', symObjAddr: 0x6D74, symBinAddr: 0x10000A6FC, symSize: 0x34 }
  - { offsetInCU: 0x2C3FC, offset: 0x3FF7E, size: 0x8, addend: 0x0, symName: '__ZNSt3__110__function6__funcIZN5Scene4initEiiE3$_3NS_9allocatorIS3_EEFvvEEC1B7v160006EOS3_OS5_', symObjAddr: 0x6DA8, symBinAddr: 0x10000A730, symSize: 0x3C }
  - { offsetInCU: 0x2C443, offset: 0x3FFC5, size: 0x8, addend: 0x0, symName: '__ZNSt3__19allocatorINS_10__function6__funcIZN5Scene4initEiiE3$_3NS0_IS4_EEFvvEEEEC2B7v160006IS4_EERKNS0_IT_EE', symObjAddr: 0x6DE4, symBinAddr: 0x10000A76C, symSize: 0x30 }
  - { offsetInCU: 0x2C480, offset: 0x40002, size: 0x8, addend: 0x0, symName: '__ZNSt3__116__non_trivial_ifILb1ENS_9allocatorINS_10__function6__funcIZN5Scene4initEiiE3$_3NS1_IS5_EEFvvEEEEEEC2B7v160006Ev', symObjAddr: 0x6E14, symBinAddr: 0x10000A79C, symSize: 0x14 }
  - { offsetInCU: 0x2C4A9, offset: 0x4002B, size: 0x8, addend: 0x0, symName: '__ZNSt3__19allocatorIZN5Scene4initEiiE3$_3EC2B7v160006INS_10__function6__funcIS2_S3_FvvEEEEERKNS0_IT_EE', symObjAddr: 0x6E28, symBinAddr: 0x10000A7B0, symSize: 0x30 }
  - { offsetInCU: 0x2C4E6, offset: 0x40068, size: 0x8, addend: 0x0, symName: '__ZNSt3__110__function6__funcIZN5Scene4initEiiE3$_3NS_9allocatorIS3_EEFvvEEC2B7v160006EOS3_OS5_', symObjAddr: 0x6E58, symBinAddr: 0x10000A7E0, symSize: 0x88 }
  - { offsetInCU: 0x2C52D, offset: 0x400AF, size: 0x8, addend: 0x0, symName: '__ZNSt3__110__function12__alloc_funcIZN5Scene4initEiiE3$_3NS_9allocatorIS3_EEFvvEEC1B7v160006EOS3_OS5_', symObjAddr: 0x6EE0, symBinAddr: 0x10000A868, symSize: 0x3C }
  - { offsetInCU: 0x2C572, offset: 0x400F4, size: 0x8, addend: 0x0, symName: '__ZNSt3__110__function6__funcIZN5Scene4initEiiE3$_3NS_9allocatorIS3_EEFvvEED1Ev', symObjAddr: 0x6F1C, symBinAddr: 0x10000A8A4, symSize: 0x2C }
  - { offsetInCU: 0x2C59E, offset: 0x40120, size: 0x8, addend: 0x0, symName: '__ZNSt3__110__function6__funcIZN5Scene4initEiiE3$_3NS_9allocatorIS3_EEFvvEED0Ev', symObjAddr: 0x6F48, symBinAddr: 0x10000A8D0, symSize: 0x30 }
  - { offsetInCU: 0x2C5CA, offset: 0x4014C, size: 0x8, addend: 0x0, symName: '__ZNKSt3__110__function6__funcIZN5Scene4initEiiE3$_3NS_9allocatorIS3_EEFvvEE7__cloneEv', symObjAddr: 0x6F78, symBinAddr: 0x10000A900, symSize: 0xFC }
  - { offsetInCU: 0x2C61B, offset: 0x4019D, size: 0x8, addend: 0x0, symName: '__ZNKSt3__110__function6__funcIZN5Scene4initEiiE3$_3NS_9allocatorIS3_EEFvvEE7__cloneEPNS0_6__baseIS6_EE', symObjAddr: 0x7074, symBinAddr: 0x10000A9FC, symSize: 0x58 }
  - { offsetInCU: 0x2C651, offset: 0x401D3, size: 0x8, addend: 0x0, symName: '__ZNSt3__110__function6__funcIZN5Scene4initEiiE3$_3NS_9allocatorIS3_EEFvvEE7destroyEv', symObjAddr: 0x70CC, symBinAddr: 0x10000AA54, symSize: 0x28 }
  - { offsetInCU: 0x2C678, offset: 0x401FA, size: 0x8, addend: 0x0, symName: '__ZNSt3__110__function6__funcIZN5Scene4initEiiE3$_3NS_9allocatorIS3_EEFvvEE18destroy_deallocateEv', symObjAddr: 0x70F4, symBinAddr: 0x10000AA7C, symSize: 0x58 }
  - { offsetInCU: 0x2C6BA, offset: 0x4023C, size: 0x8, addend: 0x0, symName: '__ZNSt3__110__function6__funcIZN5Scene4initEiiE3$_3NS_9allocatorIS3_EEFvvEEclEv', symObjAddr: 0x714C, symBinAddr: 0x10000AAD4, symSize: 0x28 }
  - { offsetInCU: 0x2C6E1, offset: 0x40263, size: 0x8, addend: 0x0, symName: '__ZNKSt3__110__function6__funcIZN5Scene4initEiiE3$_3NS_9allocatorIS3_EEFvvEE6targetERKSt9type_info', symObjAddr: 0x7174, symBinAddr: 0x10000AAFC, symSize: 0x60 }
  - { offsetInCU: 0x2C717, offset: 0x40299, size: 0x8, addend: 0x0, symName: '__ZNKSt3__110__function6__funcIZN5Scene4initEiiE3$_3NS_9allocatorIS3_EEFvvEE11target_typeEv', symObjAddr: 0x71D4, symBinAddr: 0x10000AB5C, symSize: 0x18 }
  - { offsetInCU: 0x2C73E, offset: 0x402C0, size: 0x8, addend: 0x0, symName: '__ZNSt3__110__function12__alloc_funcIZN5Scene4initEiiE3$_3NS_9allocatorIS3_EEFvvEEC2B7v160006EOS3_OS5_', symObjAddr: 0x71EC, symBinAddr: 0x10000AB74, symSize: 0x5C }
  - { offsetInCU: 0x2C783, offset: 0x40305, size: 0x8, addend: 0x0, symName: '__ZNSt3__117__compressed_pairIZN5Scene4initEiiE3$_3NS_9allocatorIS2_EEEC1B7v160006IJOS2_EJOS4_EEENS_21piecewise_construct_tENS_5tupleIJDpT_EEENSA_IJDpT0_EEE', symObjAddr: 0x72A0, symBinAddr: 0x10000AC28, symSize: 0x3C }
  - { offsetInCU: 0x2C7EC, offset: 0x4036E, size: 0x8, addend: 0x0, symName: '__ZNSt3__15tupleIJOZN5Scene4initEiiE3$_3EEC1B7v160006IJS2_ELi0EEEDpOT_', symObjAddr: 0x72DC, symBinAddr: 0x10000AC64, symSize: 0x34 }
  - { offsetInCU: 0x2C836, offset: 0x403B8, size: 0x8, addend: 0x0, symName: '__ZNSt3__15tupleIJOZN5Scene4initEiiE3$_3EEC2B7v160006IJS2_ELi0EEEDpOT_', symObjAddr: 0x7310, symBinAddr: 0x10000AC98, symSize: 0x34 }
  - { offsetInCU: 0x2C880, offset: 0x40402, size: 0x8, addend: 0x0, symName: '__ZNSt3__112__tuple_implINS_15__tuple_indicesIJLm0EEEEJOZN5Scene4initEiiE3$_3EEC1B7v160006IJLm0EEJS5_EJEJEJS4_EEENS1_IJXspT_EEEENS_13__tuple_typesIJDpT0_EEENS1_IJXspT1_EEEENS9_IJDpT2_EEEDpOT3_', symObjAddr: 0x7344, symBinAddr: 0x10000ACCC, symSize: 0x34 }
  - { offsetInCU: 0x2C914, offset: 0x40496, size: 0x8, addend: 0x0, symName: '__ZNSt3__112__tuple_implINS_15__tuple_indicesIJLm0EEEEJOZN5Scene4initEiiE3$_3EEC2B7v160006IJLm0EEJS5_EJEJEJS4_EEENS1_IJXspT_EEEENS_13__tuple_typesIJDpT0_EEENS1_IJXspT1_EEEENS9_IJDpT2_EEEDpOT3_', symObjAddr: 0x7378, symBinAddr: 0x10000AD00, symSize: 0x34 }
  - { offsetInCU: 0x2C9A8, offset: 0x4052A, size: 0x8, addend: 0x0, symName: '__ZNSt3__112__tuple_leafILm0EOZN5Scene4initEiiE3$_3Lb0EEC2B7v160006IS2_vEEOT_', symObjAddr: 0x73AC, symBinAddr: 0x10000AD34, symSize: 0x20 }
  - { offsetInCU: 0x2C9EA, offset: 0x4056C, size: 0x8, addend: 0x0, symName: '__ZNSt3__15tupleIJONS_9allocatorIZN5Scene4initEiiE3$_3EEEEC1B7v160006IJS4_ELi0EEEDpOT_', symObjAddr: 0x73CC, symBinAddr: 0x10000AD54, symSize: 0x34 }
  - { offsetInCU: 0x2CA34, offset: 0x405B6, size: 0x8, addend: 0x0, symName: '__ZNSt3__15tupleIJONS_9allocatorIZN5Scene4initEiiE3$_3EEEEC2B7v160006IJS4_ELi0EEEDpOT_', symObjAddr: 0x7400, symBinAddr: 0x10000AD88, symSize: 0x34 }
  - { offsetInCU: 0x2CA7E, offset: 0x40600, size: 0x8, addend: 0x0, symName: '__ZNSt3__112__tuple_implINS_15__tuple_indicesIJLm0EEEEJONS_9allocatorIZN5Scene4initEiiE3$_3EEEEC1B7v160006IJLm0EEJS7_EJEJEJS6_EEENS1_IJXspT_EEEENS_13__tuple_typesIJDpT0_EEENS1_IJXspT1_EEEENSB_IJDpT2_EEEDpOT3_', symObjAddr: 0x7434, symBinAddr: 0x10000ADBC, symSize: 0x34 }
  - { offsetInCU: 0x2CB12, offset: 0x40694, size: 0x8, addend: 0x0, symName: '__ZNSt3__112__tuple_implINS_15__tuple_indicesIJLm0EEEEJONS_9allocatorIZN5Scene4initEiiE3$_3EEEEC2B7v160006IJLm0EEJS7_EJEJEJS6_EEENS1_IJXspT_EEEENS_13__tuple_typesIJDpT0_EEENS1_IJXspT1_EEEENSB_IJDpT2_EEEDpOT3_', symObjAddr: 0x7468, symBinAddr: 0x10000ADF0, symSize: 0x34 }
  - { offsetInCU: 0x2CBA6, offset: 0x40728, size: 0x8, addend: 0x0, symName: '__ZNSt3__112__tuple_leafILm0EONS_9allocatorIZN5Scene4initEiiE3$_3EELb0EEC2B7v160006IS4_vEEOT_', symObjAddr: 0x749C, symBinAddr: 0x10000AE24, symSize: 0x20 }
  - { offsetInCU: 0x2CBE8, offset: 0x4076A, size: 0x8, addend: 0x0, symName: '__ZNSt3__117__compressed_pairIZN5Scene4initEiiE3$_3NS_9allocatorIS2_EEEC2B7v160006IJOS2_EJOS4_EEENS_21piecewise_construct_tENS_5tupleIJDpT_EEENSA_IJDpT0_EEE', symObjAddr: 0x74BC, symBinAddr: 0x10000AE44, symSize: 0x54 }
  - { offsetInCU: 0x2CC51, offset: 0x407D3, size: 0x8, addend: 0x0, symName: '__ZNSt3__122__compressed_pair_elemIZN5Scene4initEiiE3$_3Li0ELb0EEC2B7v160006IJOS2_EJLm0EEEENS_21piecewise_construct_tENS_5tupleIJDpT_EEENS_15__tuple_indicesIJXspT0_EEEE', symObjAddr: 0x7510, symBinAddr: 0x10000AE98, symSize: 0x44 }
  - { offsetInCU: 0x2CCB5, offset: 0x40837, size: 0x8, addend: 0x0, symName: '__ZNSt3__122__compressed_pair_elemINS_9allocatorIZN5Scene4initEiiE3$_3EELi1ELb1EEC2B7v160006IJOS4_EJLm0EEEENS_21piecewise_construct_tENS_5tupleIJDpT_EEENS_15__tuple_indicesIJXspT0_EEEE', symObjAddr: 0x7554, symBinAddr: 0x10000AEDC, symSize: 0x38 }
  - { offsetInCU: 0x2CD19, offset: 0x4089B, size: 0x8, addend: 0x0, symName: '__ZNSt3__112__tuple_leafILm0EOZN5Scene4initEiiE3$_3Lb0EE3getB7v160006Ev', symObjAddr: 0x75B0, symBinAddr: 0x10000AF38, symSize: 0x18 }
  - { offsetInCU: 0x2CD3E, offset: 0x408C0, size: 0x8, addend: 0x0, symName: '__ZNSt3__112__tuple_leafILm0EONS_9allocatorIZN5Scene4initEiiE3$_3EELb0EE3getB7v160006Ev', symObjAddr: 0x75EC, symBinAddr: 0x10000AF74, symSize: 0x18 }
  - { offsetInCU: 0x2CD63, offset: 0x408E5, size: 0x8, addend: 0x0, symName: '__ZNSt3__110__function6__funcIZN5Scene4initEiiE3$_3NS_9allocatorIS3_EEFvvEED2Ev', symObjAddr: 0x7604, symBinAddr: 0x10000AF8C, symSize: 0x2C }
  - { offsetInCU: 0x2CD8F, offset: 0x40911, size: 0x8, addend: 0x0, symName: '__ZNKSt3__110__function12__alloc_funcIZN5Scene4initEiiE3$_3NS_9allocatorIS3_EEFvvEE15__get_allocatorB7v160006Ev', symObjAddr: 0x7630, symBinAddr: 0x10000AFB8, symSize: 0x24 }
  - { offsetInCU: 0x2CDB3, offset: 0x40935, size: 0x8, addend: 0x0, symName: '__ZNSt3__19allocatorINS_10__function6__funcIZN5Scene4initEiiE3$_3NS0_IS4_EEFvvEEEE8allocateB7v160006Em', symObjAddr: 0x7654, symBinAddr: 0x10000AFDC, symSize: 0x58 }
  - { offsetInCU: 0x2CDF4, offset: 0x40976, size: 0x8, addend: 0x0, symName: '__ZNSt3__122__allocator_destructorINS_9allocatorINS_10__function6__funcIZN5Scene4initEiiE3$_3NS1_IS5_EEFvvEEEEEEC1B7v160006ERS9_m', symObjAddr: 0x76AC, symBinAddr: 0x10000B034, symSize: 0x3C }
  - { offsetInCU: 0x2CEC5, offset: 0x40A47, size: 0x8, addend: 0x0, symName: '__ZNSt3__110unique_ptrINS_10__function6__funcIZN5Scene4initEiiE3$_3NS_9allocatorIS4_EEFvvEEENS_22__allocator_destructorINS5_IS8_EEEEEC1B7v160006ILb1EvEEPS8_NS_16__dependent_typeINS_27__unique_ptr_deleter_sfinaeISB_EEXT_EE20__good_rval_ref_typeE', symObjAddr: 0x76E8, symBinAddr: 0x10000B070, symSize: 0x3C }
  - { offsetInCU: 0x2CF15, offset: 0x40A97, size: 0x8, addend: 0x0, symName: '__ZNKSt3__110unique_ptrINS_10__function6__funcIZN5Scene4initEiiE3$_3NS_9allocatorIS4_EEFvvEEENS_22__allocator_destructorINS5_IS8_EEEEE3getB7v160006Ev', symObjAddr: 0x7724, symBinAddr: 0x10000B0AC, symSize: 0x28 }
  - { offsetInCU: 0x2CF39, offset: 0x40ABB, size: 0x8, addend: 0x0, symName: '__ZNKSt3__110__function12__alloc_funcIZN5Scene4initEiiE3$_3NS_9allocatorIS3_EEFvvEE8__targetB7v160006Ev', symObjAddr: 0x774C, symBinAddr: 0x10000B0D4, symSize: 0x24 }
  - { offsetInCU: 0x2CF5D, offset: 0x40ADF, size: 0x8, addend: 0x0, symName: '__ZNSt3__110__function6__funcIZN5Scene4initEiiE3$_3NS_9allocatorIS3_EEFvvEEC1B7v160006ERKS3_OS5_', symObjAddr: 0x7770, symBinAddr: 0x10000B0F8, symSize: 0x3C }
  - { offsetInCU: 0x2CFA4, offset: 0x40B26, size: 0x8, addend: 0x0, symName: '__ZNSt3__110unique_ptrINS_10__function6__funcIZN5Scene4initEiiE3$_3NS_9allocatorIS4_EEFvvEEENS_22__allocator_destructorINS5_IS8_EEEEE7releaseB7v160006Ev', symObjAddr: 0x77AC, symBinAddr: 0x10000B134, symSize: 0x44 }
  - { offsetInCU: 0x2CFD7, offset: 0x40B59, size: 0x8, addend: 0x0, symName: '__ZNSt3__110unique_ptrINS_10__function6__funcIZN5Scene4initEiiE3$_3NS_9allocatorIS4_EEFvvEEENS_22__allocator_destructorINS5_IS8_EEEEED1B7v160006Ev', symObjAddr: 0x77F0, symBinAddr: 0x10000B178, symSize: 0x2C }
  - { offsetInCU: 0x2D000, offset: 0x40B82, size: 0x8, addend: 0x0, symName: '__ZNKSt3__117__compressed_pairIZN5Scene4initEiiE3$_3NS_9allocatorIS2_EEE6secondB7v160006Ev', symObjAddr: 0x781C, symBinAddr: 0x10000B1A4, symSize: 0x24 }
  - { offsetInCU: 0x2D024, offset: 0x40BA6, size: 0x8, addend: 0x0, symName: '__ZNKSt3__122__compressed_pair_elemINS_9allocatorIZN5Scene4initEiiE3$_3EELi1ELb1EE5__getB7v160006Ev', symObjAddr: 0x7840, symBinAddr: 0x10000B1C8, symSize: 0x14 }
  - { offsetInCU: 0x2D053, offset: 0x40BD5, size: 0x8, addend: 0x0, symName: '__ZNSt3__116allocator_traitsINS_9allocatorINS_10__function6__funcIZN5Scene4initEiiE3$_3NS1_IS5_EEFvvEEEEEE8max_sizeB7v160006IS9_vEEmRKS9_', symObjAddr: 0x7854, symBinAddr: 0x10000B1DC, symSize: 0x24 }
  - { offsetInCU: 0x2D081, offset: 0x40C03, size: 0x8, addend: 0x0, symName: '__ZNKSt3__19allocatorINS_10__function6__funcIZN5Scene4initEiiE3$_3NS0_IS4_EEFvvEEEE8max_sizeB7v160006Ev', symObjAddr: 0x7878, symBinAddr: 0x10000B200, symSize: 0x14 }
  - { offsetInCU: 0x2D0A6, offset: 0x40C28, size: 0x8, addend: 0x0, symName: '__ZNSt3__122__allocator_destructorINS_9allocatorINS_10__function6__funcIZN5Scene4initEiiE3$_3NS1_IS5_EEFvvEEEEEEC2B7v160006ERS9_m', symObjAddr: 0x788C, symBinAddr: 0x10000B214, symSize: 0x2C }
  - { offsetInCU: 0x2D0EB, offset: 0x40C6D, size: 0x8, addend: 0x0, symName: '__ZNSt3__110unique_ptrINS_10__function6__funcIZN5Scene4initEiiE3$_3NS_9allocatorIS4_EEFvvEEENS_22__allocator_destructorINS5_IS8_EEEEEC2B7v160006ILb1EvEEPS8_NS_16__dependent_typeINS_27__unique_ptr_deleter_sfinaeISB_EEXT_EE20__good_rval_ref_typeE', symObjAddr: 0x78B8, symBinAddr: 0x10000B240, symSize: 0x48 }
  - { offsetInCU: 0x2D13B, offset: 0x40CBD, size: 0x8, addend: 0x0, symName: '__ZNSt3__117__compressed_pairIPNS_10__function6__funcIZN5Scene4initEiiE3$_3NS_9allocatorIS4_EEFvvEEENS_22__allocator_destructorINS5_IS8_EEEEEC1B7v160006IRS9_SC_EEOT_OT0_', symObjAddr: 0x7900, symBinAddr: 0x10000B288, symSize: 0x3C }
  - { offsetInCU: 0x2D192, offset: 0x40D14, size: 0x8, addend: 0x0, symName: '__ZNSt3__117__compressed_pairIPNS_10__function6__funcIZN5Scene4initEiiE3$_3NS_9allocatorIS4_EEFvvEEENS_22__allocator_destructorINS5_IS8_EEEEEC2B7v160006IRS9_SC_EEOT_OT0_', symObjAddr: 0x793C, symBinAddr: 0x10000B2C4, symSize: 0x48 }
  - { offsetInCU: 0x2D1E9, offset: 0x40D6B, size: 0x8, addend: 0x0, symName: '__ZNSt3__122__compressed_pair_elemIPNS_10__function6__funcIZN5Scene4initEiiE3$_3NS_9allocatorIS4_EEFvvEEELi0ELb0EEC2B7v160006IRS9_vEEOT_', symObjAddr: 0x7984, symBinAddr: 0x10000B30C, symSize: 0x24 }
  - { offsetInCU: 0x2D22A, offset: 0x40DAC, size: 0x8, addend: 0x0, symName: '__ZNSt3__122__compressed_pair_elemINS_22__allocator_destructorINS_9allocatorINS_10__function6__funcIZN5Scene4initEiiE3$_3NS2_IS6_EEFvvEEEEEEELi1ELb0EEC2B7v160006ISB_vEEOT_', symObjAddr: 0x79A8, symBinAddr: 0x10000B330, symSize: 0x24 }
  - { offsetInCU: 0x2D26B, offset: 0x40DED, size: 0x8, addend: 0x0, symName: '__ZNKSt3__117__compressed_pairIPNS_10__function6__funcIZN5Scene4initEiiE3$_3NS_9allocatorIS4_EEFvvEEENS_22__allocator_destructorINS5_IS8_EEEEE5firstB7v160006Ev', symObjAddr: 0x79CC, symBinAddr: 0x10000B354, symSize: 0x24 }
  - { offsetInCU: 0x2D28F, offset: 0x40E11, size: 0x8, addend: 0x0, symName: '__ZNKSt3__122__compressed_pair_elemIPNS_10__function6__funcIZN5Scene4initEiiE3$_3NS_9allocatorIS4_EEFvvEEELi0ELb0EE5__getB7v160006Ev', symObjAddr: 0x79F0, symBinAddr: 0x10000B378, symSize: 0x14 }
  - { offsetInCU: 0x2D2B4, offset: 0x40E36, size: 0x8, addend: 0x0, symName: '__ZNKSt3__117__compressed_pairIZN5Scene4initEiiE3$_3NS_9allocatorIS2_EEE5firstB7v160006Ev', symObjAddr: 0x7A04, symBinAddr: 0x10000B38C, symSize: 0x24 }
  - { offsetInCU: 0x2D2D8, offset: 0x40E5A, size: 0x8, addend: 0x0, symName: '__ZNKSt3__122__compressed_pair_elemIZN5Scene4initEiiE3$_3Li0ELb0EE5__getB7v160006Ev', symObjAddr: 0x7A28, symBinAddr: 0x10000B3B0, symSize: 0x14 }
  - { offsetInCU: 0x2D2FD, offset: 0x40E7F, size: 0x8, addend: 0x0, symName: '__ZNSt3__110__function6__funcIZN5Scene4initEiiE3$_3NS_9allocatorIS3_EEFvvEEC2B7v160006ERKS3_OS5_', symObjAddr: 0x7A3C, symBinAddr: 0x10000B3C4, symSize: 0x88 }
  - { offsetInCU: 0x2D344, offset: 0x40EC6, size: 0x8, addend: 0x0, symName: '__ZNSt3__110__function12__alloc_funcIZN5Scene4initEiiE3$_3NS_9allocatorIS3_EEFvvEEC1B7v160006ERKS3_OS5_', symObjAddr: 0x7AC4, symBinAddr: 0x10000B44C, symSize: 0x3C }
  - { offsetInCU: 0x2D389, offset: 0x40F0B, size: 0x8, addend: 0x0, symName: '__ZNSt3__110__function12__alloc_funcIZN5Scene4initEiiE3$_3NS_9allocatorIS3_EEFvvEEC2B7v160006ERKS3_OS5_', symObjAddr: 0x7B00, symBinAddr: 0x10000B488, symSize: 0x5C }
  - { offsetInCU: 0x2D3CE, offset: 0x40F50, size: 0x8, addend: 0x0, symName: '__ZNSt3__117__compressed_pairIZN5Scene4initEiiE3$_3NS_9allocatorIS2_EEEC1B7v160006IJRKS2_EJOS4_EEENS_21piecewise_construct_tENS_5tupleIJDpT_EEENSB_IJDpT0_EEE', symObjAddr: 0x7B88, symBinAddr: 0x10000B510, symSize: 0x3C }
  - { offsetInCU: 0x2D437, offset: 0x40FB9, size: 0x8, addend: 0x0, symName: '__ZNSt3__15tupleIJRKZN5Scene4initEiiE3$_3EEC1B7v160006INS_4_AndELi0EEES4_', symObjAddr: 0x7BC4, symBinAddr: 0x10000B54C, symSize: 0x34 }
  - { offsetInCU: 0x2D480, offset: 0x41002, size: 0x8, addend: 0x0, symName: '__ZNSt3__15tupleIJRKZN5Scene4initEiiE3$_3EEC2B7v160006INS_4_AndELi0EEES4_', symObjAddr: 0x7BF8, symBinAddr: 0x10000B580, symSize: 0x34 }
  - { offsetInCU: 0x2D4C9, offset: 0x4104B, size: 0x8, addend: 0x0, symName: '__ZNSt3__112__tuple_implINS_15__tuple_indicesIJLm0EEEEJRKZN5Scene4initEiiE3$_3EEC1B7v160006IJLm0EEJS6_EJEJEJS6_EEENS1_IJXspT_EEEENS_13__tuple_typesIJDpT0_EEENS1_IJXspT1_EEEENSA_IJDpT2_EEEDpOT3_', symObjAddr: 0x7C2C, symBinAddr: 0x10000B5B4, symSize: 0x34 }
  - { offsetInCU: 0x2D55D, offset: 0x410DF, size: 0x8, addend: 0x0, symName: '__ZNSt3__112__tuple_implINS_15__tuple_indicesIJLm0EEEEJRKZN5Scene4initEiiE3$_3EEC2B7v160006IJLm0EEJS6_EJEJEJS6_EEENS1_IJXspT_EEEENS_13__tuple_typesIJDpT0_EEENS1_IJXspT1_EEEENSA_IJDpT2_EEEDpOT3_', symObjAddr: 0x7C60, symBinAddr: 0x10000B5E8, symSize: 0x34 }
  - { offsetInCU: 0x2D5F1, offset: 0x41173, size: 0x8, addend: 0x0, symName: '__ZNSt3__112__tuple_leafILm0ERKZN5Scene4initEiiE3$_3Lb0EEC2B7v160006IS4_vEEOT_', symObjAddr: 0x7C94, symBinAddr: 0x10000B61C, symSize: 0x20 }
  - { offsetInCU: 0x2D633, offset: 0x411B5, size: 0x8, addend: 0x0, symName: '__ZNSt3__117__compressed_pairIZN5Scene4initEiiE3$_3NS_9allocatorIS2_EEEC2B7v160006IJRKS2_EJOS4_EEENS_21piecewise_construct_tENS_5tupleIJDpT_EEENSB_IJDpT0_EEE', symObjAddr: 0x7CB4, symBinAddr: 0x10000B63C, symSize: 0x54 }
  - { offsetInCU: 0x2D69C, offset: 0x4121E, size: 0x8, addend: 0x0, symName: '__ZNSt3__122__compressed_pair_elemIZN5Scene4initEiiE3$_3Li0ELb0EEC2B7v160006IJRKS2_EJLm0EEEENS_21piecewise_construct_tENS_5tupleIJDpT_EEENS_15__tuple_indicesIJXspT0_EEEE', symObjAddr: 0x7D08, symBinAddr: 0x10000B690, symSize: 0x44 }
  - { offsetInCU: 0x2D700, offset: 0x41282, size: 0x8, addend: 0x0, symName: '__ZNSt3__112__tuple_leafILm0ERKZN5Scene4initEiiE3$_3Lb0EE3getB7v160006Ev', symObjAddr: 0x7D70, symBinAddr: 0x10000B6F8, symSize: 0x18 }
  - { offsetInCU: 0x2D725, offset: 0x412A7, size: 0x8, addend: 0x0, symName: '__ZNSt3__117__compressed_pairIPNS_10__function6__funcIZN5Scene4initEiiE3$_3NS_9allocatorIS4_EEFvvEEENS_22__allocator_destructorINS5_IS8_EEEEE5firstB7v160006Ev', symObjAddr: 0x7D88, symBinAddr: 0x10000B710, symSize: 0x24 }
  - { offsetInCU: 0x2D749, offset: 0x412CB, size: 0x8, addend: 0x0, symName: '__ZNSt3__122__compressed_pair_elemIPNS_10__function6__funcIZN5Scene4initEiiE3$_3NS_9allocatorIS4_EEFvvEEELi0ELb0EE5__getB7v160006Ev', symObjAddr: 0x7DAC, symBinAddr: 0x10000B734, symSize: 0x14 }
  - { offsetInCU: 0x2D76E, offset: 0x412F0, size: 0x8, addend: 0x0, symName: '__ZNSt3__110unique_ptrINS_10__function6__funcIZN5Scene4initEiiE3$_3NS_9allocatorIS4_EEFvvEEENS_22__allocator_destructorINS5_IS8_EEEEED2B7v160006Ev', symObjAddr: 0x7DC0, symBinAddr: 0x10000B748, symSize: 0x30 }
  - { offsetInCU: 0x2D797, offset: 0x41319, size: 0x8, addend: 0x0, symName: '__ZNSt3__110unique_ptrINS_10__function6__funcIZN5Scene4initEiiE3$_3NS_9allocatorIS4_EEFvvEEENS_22__allocator_destructorINS5_IS8_EEEEE5resetB7v160006EPS8_', symObjAddr: 0x7DF0, symBinAddr: 0x10000B778, symSize: 0x78 }
  - { offsetInCU: 0x2D7D9, offset: 0x4135B, size: 0x8, addend: 0x0, symName: '__ZNSt3__117__compressed_pairIPNS_10__function6__funcIZN5Scene4initEiiE3$_3NS_9allocatorIS4_EEFvvEEENS_22__allocator_destructorINS5_IS8_EEEEE6secondB7v160006Ev', symObjAddr: 0x7E68, symBinAddr: 0x10000B7F0, symSize: 0x28 }
  - { offsetInCU: 0x2D7FD, offset: 0x4137F, size: 0x8, addend: 0x0, symName: '__ZNSt3__122__allocator_destructorINS_9allocatorINS_10__function6__funcIZN5Scene4initEiiE3$_3NS1_IS5_EEFvvEEEEEEclB7v160006EPS8_', symObjAddr: 0x7E90, symBinAddr: 0x10000B818, symSize: 0x34 }
  - { offsetInCU: 0x2D82F, offset: 0x413B1, size: 0x8, addend: 0x0, symName: '__ZNSt3__122__compressed_pair_elemINS_22__allocator_destructorINS_9allocatorINS_10__function6__funcIZN5Scene4initEiiE3$_3NS2_IS6_EEFvvEEEEEEELi1ELb0EE5__getB7v160006Ev', symObjAddr: 0x7EC4, symBinAddr: 0x10000B84C, symSize: 0x14 }
  - { offsetInCU: 0x2D854, offset: 0x413D6, size: 0x8, addend: 0x0, symName: '__ZNSt3__116allocator_traitsINS_9allocatorINS_10__function6__funcIZN5Scene4initEiiE3$_3NS1_IS5_EEFvvEEEEEE10deallocateB7v160006ERS9_PS8_m', symObjAddr: 0x7ED8, symBinAddr: 0x10000B860, symSize: 0x34 }
  - { offsetInCU: 0x2D896, offset: 0x41418, size: 0x8, addend: 0x0, symName: '__ZNSt3__19allocatorINS_10__function6__funcIZN5Scene4initEiiE3$_3NS0_IS4_EEFvvEEEE10deallocateB7v160006EPS7_m', symObjAddr: 0x7F0C, symBinAddr: 0x10000B894, symSize: 0x40 }
  - { offsetInCU: 0x2D8D6, offset: 0x41458, size: 0x8, addend: 0x0, symName: '__ZNSt3__110__function6__funcIZN5Scene4initEiiE3$_3NS_9allocatorIS3_EEFvvEEC1B7v160006ERKS3_RKS5_', symObjAddr: 0x7F4C, symBinAddr: 0x10000B8D4, symSize: 0x3C }
  - { offsetInCU: 0x2D91D, offset: 0x4149F, size: 0x8, addend: 0x0, symName: '__ZNSt3__110__function6__funcIZN5Scene4initEiiE3$_3NS_9allocatorIS3_EEFvvEEC2B7v160006ERKS3_RKS5_', symObjAddr: 0x7F88, symBinAddr: 0x10000B910, symSize: 0x88 }
  - { offsetInCU: 0x2D964, offset: 0x414E6, size: 0x8, addend: 0x0, symName: '__ZNSt3__110__function12__alloc_funcIZN5Scene4initEiiE3$_3NS_9allocatorIS3_EEFvvEEC1B7v160006ERKS3_RKS5_', symObjAddr: 0x8010, symBinAddr: 0x10000B998, symSize: 0x3C }
  - { offsetInCU: 0x2D9A9, offset: 0x4152B, size: 0x8, addend: 0x0, symName: '__ZNSt3__110__function12__alloc_funcIZN5Scene4initEiiE3$_3NS_9allocatorIS3_EEFvvEEC2B7v160006ERKS3_RKS5_', symObjAddr: 0x804C, symBinAddr: 0x10000B9D4, symSize: 0x5C }
  - { offsetInCU: 0x2D9EE, offset: 0x41570, size: 0x8, addend: 0x0, symName: '__ZNSt3__117__compressed_pairIZN5Scene4initEiiE3$_3NS_9allocatorIS2_EEEC1B7v160006IJRKS2_EJRKS4_EEENS_21piecewise_construct_tENS_5tupleIJDpT_EEENSC_IJDpT0_EEE', symObjAddr: 0x80D4, symBinAddr: 0x10000BA5C, symSize: 0x3C }
  - { offsetInCU: 0x2DA57, offset: 0x415D9, size: 0x8, addend: 0x0, symName: '__ZNSt3__15tupleIJRKNS_9allocatorIZN5Scene4initEiiE3$_3EEEEC1B7v160006INS_4_AndELi0EEES6_', symObjAddr: 0x8110, symBinAddr: 0x10000BA98, symSize: 0x34 }
  - { offsetInCU: 0x2DAA0, offset: 0x41622, size: 0x8, addend: 0x0, symName: '__ZNSt3__15tupleIJRKNS_9allocatorIZN5Scene4initEiiE3$_3EEEEC2B7v160006INS_4_AndELi0EEES6_', symObjAddr: 0x8144, symBinAddr: 0x10000BACC, symSize: 0x34 }
  - { offsetInCU: 0x2DAE9, offset: 0x4166B, size: 0x8, addend: 0x0, symName: '__ZNSt3__112__tuple_implINS_15__tuple_indicesIJLm0EEEEJRKNS_9allocatorIZN5Scene4initEiiE3$_3EEEEC1B7v160006IJLm0EEJS8_EJEJEJS8_EEENS1_IJXspT_EEEENS_13__tuple_typesIJDpT0_EEENS1_IJXspT1_EEEENSC_IJDpT2_EEEDpOT3_', symObjAddr: 0x8178, symBinAddr: 0x10000BB00, symSize: 0x34 }
  - { offsetInCU: 0x2DB7D, offset: 0x416FF, size: 0x8, addend: 0x0, symName: '__ZNSt3__112__tuple_implINS_15__tuple_indicesIJLm0EEEEJRKNS_9allocatorIZN5Scene4initEiiE3$_3EEEEC2B7v160006IJLm0EEJS8_EJEJEJS8_EEENS1_IJXspT_EEEENS_13__tuple_typesIJDpT0_EEENS1_IJXspT1_EEEENSC_IJDpT2_EEEDpOT3_', symObjAddr: 0x81AC, symBinAddr: 0x10000BB34, symSize: 0x34 }
  - { offsetInCU: 0x2DC11, offset: 0x41793, size: 0x8, addend: 0x0, symName: '__ZNSt3__112__tuple_leafILm0ERKNS_9allocatorIZN5Scene4initEiiE3$_3EELb0EEC2B7v160006IS6_vEEOT_', symObjAddr: 0x81E0, symBinAddr: 0x10000BB68, symSize: 0x20 }
  - { offsetInCU: 0x2DC53, offset: 0x417D5, size: 0x8, addend: 0x0, symName: '__ZNSt3__117__compressed_pairIZN5Scene4initEiiE3$_3NS_9allocatorIS2_EEEC2B7v160006IJRKS2_EJRKS4_EEENS_21piecewise_construct_tENS_5tupleIJDpT_EEENSC_IJDpT0_EEE', symObjAddr: 0x8200, symBinAddr: 0x10000BB88, symSize: 0x54 }
  - { offsetInCU: 0x2DCBC, offset: 0x4183E, size: 0x8, addend: 0x0, symName: '__ZNSt3__122__compressed_pair_elemINS_9allocatorIZN5Scene4initEiiE3$_3EELi1ELb1EEC2B7v160006IJRKS4_EJLm0EEEENS_21piecewise_construct_tENS_5tupleIJDpT_EEENS_15__tuple_indicesIJXspT0_EEEE', symObjAddr: 0x8254, symBinAddr: 0x10000BBDC, symSize: 0x38 }
  - { offsetInCU: 0x2DD20, offset: 0x418A2, size: 0x8, addend: 0x0, symName: '__ZNSt3__112__tuple_leafILm0ERKNS_9allocatorIZN5Scene4initEiiE3$_3EELb0EE3getB7v160006Ev', symObjAddr: 0x82B0, symBinAddr: 0x10000BC38, symSize: 0x18 }
  - { offsetInCU: 0x2DD45, offset: 0x418C7, size: 0x8, addend: 0x0, symName: '__ZNSt3__110__function12__alloc_funcIZN5Scene4initEiiE3$_3NS_9allocatorIS3_EEFvvEE7destroyB7v160006Ev', symObjAddr: 0x82C8, symBinAddr: 0x10000BC50, symSize: 0x10 }
  - { offsetInCU: 0x2DD6A, offset: 0x418EC, size: 0x8, addend: 0x0, symName: '__ZNSt3__110__function12__alloc_funcIZN5Scene4initEiiE3$_3NS_9allocatorIS3_EEFvvEEclB7v160006Ev', symObjAddr: 0x82D8, symBinAddr: 0x10000BC60, symSize: 0x28 }
  - { offsetInCU: 0x2DD8E, offset: 0x41910, size: 0x8, addend: 0x0, symName: '__ZNSt3__128__invoke_void_return_wrapperIvLb1EE6__callIJRZN5Scene4initEiiE3$_3EEEvDpOT_', symObjAddr: 0x8300, symBinAddr: 0x10000BC88, symSize: 0x24 }
  - { offsetInCU: 0x2DDBD, offset: 0x4193F, size: 0x8, addend: 0x0, symName: '__ZNSt3__117__compressed_pairIZN5Scene4initEiiE3$_3NS_9allocatorIS2_EEE5firstB7v160006Ev', symObjAddr: 0x8324, symBinAddr: 0x10000BCAC, symSize: 0x24 }
  - { offsetInCU: 0x2DDE1, offset: 0x41963, size: 0x8, addend: 0x0, symName: '__ZZN5Scene4initEiiENK3$_3clEv', symObjAddr: 0x836C, symBinAddr: 0x10000BCF4, symSize: 0x38 }
  - { offsetInCU: 0x2DE0A, offset: 0x4198C, size: 0x8, addend: 0x0, symName: '__ZNSt3__122__compressed_pair_elemIZN5Scene4initEiiE3$_3Li0ELb0EE5__getB7v160006Ev', symObjAddr: 0x83A4, symBinAddr: 0x10000BD2C, symSize: 0x14 }
  - { offsetInCU: 0x2DE2F, offset: 0x419B1, size: 0x8, addend: 0x0, symName: '__ZNSt3__18functionIFvvEEC2IZN5Scene4initEiiE3$_4vEET_', symObjAddr: 0x83B8, symBinAddr: 0x10000BD40, symSize: 0x38 }
  - { offsetInCU: 0x2DE73, offset: 0x419F5, size: 0x8, addend: 0x0, symName: '__ZNSt3__110__function12__value_funcIFvvEEC1B7v160006IZN5Scene4initEiiE3$_4vEEOT_', symObjAddr: 0x83F0, symBinAddr: 0x10000BD78, symSize: 0x50 }
  - { offsetInCU: 0x2DEB5, offset: 0x41A37, size: 0x8, addend: 0x0, symName: '__ZNSt3__19allocatorIZN5Scene4initEiiE3$_4EC1B7v160006Ev', symObjAddr: 0x8440, symBinAddr: 0x10000BDC8, symSize: 0x2C }
  - { offsetInCU: 0x2DEDE, offset: 0x41A60, size: 0x8, addend: 0x0, symName: '__ZNSt3__110__function12__value_funcIFvvEEC1B7v160006IZN5Scene4initEiiE3$_4NS_9allocatorIS6_EEEEOT_RKT0_', symObjAddr: 0x846C, symBinAddr: 0x10000BDF4, symSize: 0x3C }
  - { offsetInCU: 0x2DF37, offset: 0x41AB9, size: 0x8, addend: 0x0, symName: '__ZNSt3__19allocatorIZN5Scene4initEiiE3$_4EC2B7v160006Ev', symObjAddr: 0x84A8, symBinAddr: 0x10000BE30, symSize: 0x2C }
  - { offsetInCU: 0x2DF60, offset: 0x41AE2, size: 0x8, addend: 0x0, symName: '__ZNSt3__116__non_trivial_ifILb1ENS_9allocatorIZN5Scene4initEiiE3$_4EEEC2B7v160006Ev', symObjAddr: 0x84D4, symBinAddr: 0x10000BE5C, symSize: 0x14 }
  - { offsetInCU: 0x2DF89, offset: 0x41B0B, size: 0x8, addend: 0x0, symName: '__ZNSt3__110__function12__value_funcIFvvEEC2B7v160006IZN5Scene4initEiiE3$_4NS_9allocatorIS6_EEEEOT_RKT0_', symObjAddr: 0x84E8, symBinAddr: 0x10000BE70, symSize: 0x94 }
  - { offsetInCU: 0x2E02F, offset: 0x41BB1, size: 0x8, addend: 0x0, symName: '__ZNSt3__19allocatorINS_10__function6__funcIZN5Scene4initEiiE3$_4NS0_IS4_EEFvvEEEEC1B7v160006IS4_EERKNS0_IT_EE', symObjAddr: 0x8594, symBinAddr: 0x10000BF1C, symSize: 0x34 }
  - { offsetInCU: 0x2E071, offset: 0x41BF3, size: 0x8, addend: 0x0, symName: '__ZNSt3__19allocatorIZN5Scene4initEiiE3$_4EC1B7v160006INS_10__function6__funcIS2_S3_FvvEEEEERKNS0_IT_EE', symObjAddr: 0x85C8, symBinAddr: 0x10000BF50, symSize: 0x34 }
  - { offsetInCU: 0x2E0AE, offset: 0x41C30, size: 0x8, addend: 0x0, symName: '__ZNSt3__110__function6__funcIZN5Scene4initEiiE3$_4NS_9allocatorIS3_EEFvvEEC1B7v160006EOS3_OS5_', symObjAddr: 0x85FC, symBinAddr: 0x10000BF84, symSize: 0x3C }
  - { offsetInCU: 0x2E0F5, offset: 0x41C77, size: 0x8, addend: 0x0, symName: '__ZNSt3__19allocatorINS_10__function6__funcIZN5Scene4initEiiE3$_4NS0_IS4_EEFvvEEEEC2B7v160006IS4_EERKNS0_IT_EE', symObjAddr: 0x8638, symBinAddr: 0x10000BFC0, symSize: 0x30 }
  - { offsetInCU: 0x2E132, offset: 0x41CB4, size: 0x8, addend: 0x0, symName: '__ZNSt3__116__non_trivial_ifILb1ENS_9allocatorINS_10__function6__funcIZN5Scene4initEiiE3$_4NS1_IS5_EEFvvEEEEEEC2B7v160006Ev', symObjAddr: 0x8668, symBinAddr: 0x10000BFF0, symSize: 0x14 }
  - { offsetInCU: 0x2E15B, offset: 0x41CDD, size: 0x8, addend: 0x0, symName: '__ZNSt3__19allocatorIZN5Scene4initEiiE3$_4EC2B7v160006INS_10__function6__funcIS2_S3_FvvEEEEERKNS0_IT_EE', symObjAddr: 0x867C, symBinAddr: 0x10000C004, symSize: 0x30 }
  - { offsetInCU: 0x2E198, offset: 0x41D1A, size: 0x8, addend: 0x0, symName: '__ZNSt3__110__function6__funcIZN5Scene4initEiiE3$_4NS_9allocatorIS3_EEFvvEEC2B7v160006EOS3_OS5_', symObjAddr: 0x86AC, symBinAddr: 0x10000C034, symSize: 0x88 }
  - { offsetInCU: 0x2E1DF, offset: 0x41D61, size: 0x8, addend: 0x0, symName: '__ZNSt3__110__function12__alloc_funcIZN5Scene4initEiiE3$_4NS_9allocatorIS3_EEFvvEEC1B7v160006EOS3_OS5_', symObjAddr: 0x8734, symBinAddr: 0x10000C0BC, symSize: 0x3C }
  - { offsetInCU: 0x2E224, offset: 0x41DA6, size: 0x8, addend: 0x0, symName: '__ZNSt3__110__function6__funcIZN5Scene4initEiiE3$_4NS_9allocatorIS3_EEFvvEED1Ev', symObjAddr: 0x8770, symBinAddr: 0x10000C0F8, symSize: 0x2C }
  - { offsetInCU: 0x2E250, offset: 0x41DD2, size: 0x8, addend: 0x0, symName: '__ZNSt3__110__function6__funcIZN5Scene4initEiiE3$_4NS_9allocatorIS3_EEFvvEED0Ev', symObjAddr: 0x879C, symBinAddr: 0x10000C124, symSize: 0x30 }
  - { offsetInCU: 0x2E27C, offset: 0x41DFE, size: 0x8, addend: 0x0, symName: '__ZNKSt3__110__function6__funcIZN5Scene4initEiiE3$_4NS_9allocatorIS3_EEFvvEE7__cloneEv', symObjAddr: 0x87CC, symBinAddr: 0x10000C154, symSize: 0xFC }
  - { offsetInCU: 0x2E2CD, offset: 0x41E4F, size: 0x8, addend: 0x0, symName: '__ZNKSt3__110__function6__funcIZN5Scene4initEiiE3$_4NS_9allocatorIS3_EEFvvEE7__cloneEPNS0_6__baseIS6_EE', symObjAddr: 0x88C8, symBinAddr: 0x10000C250, symSize: 0x58 }
  - { offsetInCU: 0x2E303, offset: 0x41E85, size: 0x8, addend: 0x0, symName: '__ZNSt3__110__function6__funcIZN5Scene4initEiiE3$_4NS_9allocatorIS3_EEFvvEE7destroyEv', symObjAddr: 0x8920, symBinAddr: 0x10000C2A8, symSize: 0x28 }
  - { offsetInCU: 0x2E32A, offset: 0x41EAC, size: 0x8, addend: 0x0, symName: '__ZNSt3__110__function6__funcIZN5Scene4initEiiE3$_4NS_9allocatorIS3_EEFvvEE18destroy_deallocateEv', symObjAddr: 0x8948, symBinAddr: 0x10000C2D0, symSize: 0x58 }
  - { offsetInCU: 0x2E36C, offset: 0x41EEE, size: 0x8, addend: 0x0, symName: '__ZNSt3__110__function6__funcIZN5Scene4initEiiE3$_4NS_9allocatorIS3_EEFvvEEclEv', symObjAddr: 0x89A0, symBinAddr: 0x10000C328, symSize: 0x28 }
  - { offsetInCU: 0x2E393, offset: 0x41F15, size: 0x8, addend: 0x0, symName: '__ZNKSt3__110__function6__funcIZN5Scene4initEiiE3$_4NS_9allocatorIS3_EEFvvEE6targetERKSt9type_info', symObjAddr: 0x89C8, symBinAddr: 0x10000C350, symSize: 0x60 }
  - { offsetInCU: 0x2E3C9, offset: 0x41F4B, size: 0x8, addend: 0x0, symName: '__ZNKSt3__110__function6__funcIZN5Scene4initEiiE3$_4NS_9allocatorIS3_EEFvvEE11target_typeEv', symObjAddr: 0x8A28, symBinAddr: 0x10000C3B0, symSize: 0x18 }
  - { offsetInCU: 0x2E3F0, offset: 0x41F72, size: 0x8, addend: 0x0, symName: '__ZNSt3__110__function12__alloc_funcIZN5Scene4initEiiE3$_4NS_9allocatorIS3_EEFvvEEC2B7v160006EOS3_OS5_', symObjAddr: 0x8A40, symBinAddr: 0x10000C3C8, symSize: 0x5C }
  - { offsetInCU: 0x2E435, offset: 0x41FB7, size: 0x8, addend: 0x0, symName: '__ZNSt3__117__compressed_pairIZN5Scene4initEiiE3$_4NS_9allocatorIS2_EEEC1B7v160006IJOS2_EJOS4_EEENS_21piecewise_construct_tENS_5tupleIJDpT_EEENSA_IJDpT0_EEE', symObjAddr: 0x8AF4, symBinAddr: 0x10000C47C, symSize: 0x3C }
  - { offsetInCU: 0x2E49E, offset: 0x42020, size: 0x8, addend: 0x0, symName: '__ZNSt3__15tupleIJOZN5Scene4initEiiE3$_4EEC1B7v160006IJS2_ELi0EEEDpOT_', symObjAddr: 0x8B30, symBinAddr: 0x10000C4B8, symSize: 0x34 }
  - { offsetInCU: 0x2E4E8, offset: 0x4206A, size: 0x8, addend: 0x0, symName: '__ZNSt3__15tupleIJOZN5Scene4initEiiE3$_4EEC2B7v160006IJS2_ELi0EEEDpOT_', symObjAddr: 0x8B64, symBinAddr: 0x10000C4EC, symSize: 0x34 }
  - { offsetInCU: 0x2E532, offset: 0x420B4, size: 0x8, addend: 0x0, symName: '__ZNSt3__112__tuple_implINS_15__tuple_indicesIJLm0EEEEJOZN5Scene4initEiiE3$_4EEC1B7v160006IJLm0EEJS5_EJEJEJS4_EEENS1_IJXspT_EEEENS_13__tuple_typesIJDpT0_EEENS1_IJXspT1_EEEENS9_IJDpT2_EEEDpOT3_', symObjAddr: 0x8B98, symBinAddr: 0x10000C520, symSize: 0x34 }
  - { offsetInCU: 0x2E5C6, offset: 0x42148, size: 0x8, addend: 0x0, symName: '__ZNSt3__112__tuple_implINS_15__tuple_indicesIJLm0EEEEJOZN5Scene4initEiiE3$_4EEC2B7v160006IJLm0EEJS5_EJEJEJS4_EEENS1_IJXspT_EEEENS_13__tuple_typesIJDpT0_EEENS1_IJXspT1_EEEENS9_IJDpT2_EEEDpOT3_', symObjAddr: 0x8BCC, symBinAddr: 0x10000C554, symSize: 0x34 }
  - { offsetInCU: 0x2E65A, offset: 0x421DC, size: 0x8, addend: 0x0, symName: '__ZNSt3__112__tuple_leafILm0EOZN5Scene4initEiiE3$_4Lb0EEC2B7v160006IS2_vEEOT_', symObjAddr: 0x8C00, symBinAddr: 0x10000C588, symSize: 0x20 }
  - { offsetInCU: 0x2E69C, offset: 0x4221E, size: 0x8, addend: 0x0, symName: '__ZNSt3__15tupleIJONS_9allocatorIZN5Scene4initEiiE3$_4EEEEC1B7v160006IJS4_ELi0EEEDpOT_', symObjAddr: 0x8C20, symBinAddr: 0x10000C5A8, symSize: 0x34 }
  - { offsetInCU: 0x2E6E6, offset: 0x42268, size: 0x8, addend: 0x0, symName: '__ZNSt3__15tupleIJONS_9allocatorIZN5Scene4initEiiE3$_4EEEEC2B7v160006IJS4_ELi0EEEDpOT_', symObjAddr: 0x8C54, symBinAddr: 0x10000C5DC, symSize: 0x34 }
  - { offsetInCU: 0x2E730, offset: 0x422B2, size: 0x8, addend: 0x0, symName: '__ZNSt3__112__tuple_implINS_15__tuple_indicesIJLm0EEEEJONS_9allocatorIZN5Scene4initEiiE3$_4EEEEC1B7v160006IJLm0EEJS7_EJEJEJS6_EEENS1_IJXspT_EEEENS_13__tuple_typesIJDpT0_EEENS1_IJXspT1_EEEENSB_IJDpT2_EEEDpOT3_', symObjAddr: 0x8C88, symBinAddr: 0x10000C610, symSize: 0x34 }
  - { offsetInCU: 0x2E7C4, offset: 0x42346, size: 0x8, addend: 0x0, symName: '__ZNSt3__112__tuple_implINS_15__tuple_indicesIJLm0EEEEJONS_9allocatorIZN5Scene4initEiiE3$_4EEEEC2B7v160006IJLm0EEJS7_EJEJEJS6_EEENS1_IJXspT_EEEENS_13__tuple_typesIJDpT0_EEENS1_IJXspT1_EEEENSB_IJDpT2_EEEDpOT3_', symObjAddr: 0x8CBC, symBinAddr: 0x10000C644, symSize: 0x34 }
  - { offsetInCU: 0x2E858, offset: 0x423DA, size: 0x8, addend: 0x0, symName: '__ZNSt3__112__tuple_leafILm0EONS_9allocatorIZN5Scene4initEiiE3$_4EELb0EEC2B7v160006IS4_vEEOT_', symObjAddr: 0x8CF0, symBinAddr: 0x10000C678, symSize: 0x20 }
  - { offsetInCU: 0x2E89A, offset: 0x4241C, size: 0x8, addend: 0x0, symName: '__ZNSt3__117__compressed_pairIZN5Scene4initEiiE3$_4NS_9allocatorIS2_EEEC2B7v160006IJOS2_EJOS4_EEENS_21piecewise_construct_tENS_5tupleIJDpT_EEENSA_IJDpT0_EEE', symObjAddr: 0x8D10, symBinAddr: 0x10000C698, symSize: 0x54 }
  - { offsetInCU: 0x2E903, offset: 0x42485, size: 0x8, addend: 0x0, symName: '__ZNSt3__122__compressed_pair_elemIZN5Scene4initEiiE3$_4Li0ELb0EEC2B7v160006IJOS2_EJLm0EEEENS_21piecewise_construct_tENS_5tupleIJDpT_EEENS_15__tuple_indicesIJXspT0_EEEE', symObjAddr: 0x8D64, symBinAddr: 0x10000C6EC, symSize: 0x44 }
  - { offsetInCU: 0x2E967, offset: 0x424E9, size: 0x8, addend: 0x0, symName: '__ZNSt3__122__compressed_pair_elemINS_9allocatorIZN5Scene4initEiiE3$_4EELi1ELb1EEC2B7v160006IJOS4_EJLm0EEEENS_21piecewise_construct_tENS_5tupleIJDpT_EEENS_15__tuple_indicesIJXspT0_EEEE', symObjAddr: 0x8DA8, symBinAddr: 0x10000C730, symSize: 0x38 }
  - { offsetInCU: 0x2E9CB, offset: 0x4254D, size: 0x8, addend: 0x0, symName: '__ZNSt3__112__tuple_leafILm0EOZN5Scene4initEiiE3$_4Lb0EE3getB7v160006Ev', symObjAddr: 0x8E04, symBinAddr: 0x10000C78C, symSize: 0x18 }
  - { offsetInCU: 0x2E9F0, offset: 0x42572, size: 0x8, addend: 0x0, symName: '__ZNSt3__112__tuple_leafILm0EONS_9allocatorIZN5Scene4initEiiE3$_4EELb0EE3getB7v160006Ev', symObjAddr: 0x8E40, symBinAddr: 0x10000C7C8, symSize: 0x18 }
  - { offsetInCU: 0x2EA15, offset: 0x42597, size: 0x8, addend: 0x0, symName: '__ZNSt3__110__function6__funcIZN5Scene4initEiiE3$_4NS_9allocatorIS3_EEFvvEED2Ev', symObjAddr: 0x8E58, symBinAddr: 0x10000C7E0, symSize: 0x2C }
  - { offsetInCU: 0x2EA41, offset: 0x425C3, size: 0x8, addend: 0x0, symName: '__ZNKSt3__110__function12__alloc_funcIZN5Scene4initEiiE3$_4NS_9allocatorIS3_EEFvvEE15__get_allocatorB7v160006Ev', symObjAddr: 0x8E84, symBinAddr: 0x10000C80C, symSize: 0x24 }
  - { offsetInCU: 0x2EA65, offset: 0x425E7, size: 0x8, addend: 0x0, symName: '__ZNSt3__19allocatorINS_10__function6__funcIZN5Scene4initEiiE3$_4NS0_IS4_EEFvvEEEE8allocateB7v160006Em', symObjAddr: 0x8EA8, symBinAddr: 0x10000C830, symSize: 0x58 }
  - { offsetInCU: 0x2EAA6, offset: 0x42628, size: 0x8, addend: 0x0, symName: '__ZNSt3__122__allocator_destructorINS_9allocatorINS_10__function6__funcIZN5Scene4initEiiE3$_4NS1_IS5_EEFvvEEEEEEC1B7v160006ERS9_m', symObjAddr: 0x8F00, symBinAddr: 0x10000C888, symSize: 0x3C }
  - { offsetInCU: 0x2EB77, offset: 0x426F9, size: 0x8, addend: 0x0, symName: '__ZNSt3__110unique_ptrINS_10__function6__funcIZN5Scene4initEiiE3$_4NS_9allocatorIS4_EEFvvEEENS_22__allocator_destructorINS5_IS8_EEEEEC1B7v160006ILb1EvEEPS8_NS_16__dependent_typeINS_27__unique_ptr_deleter_sfinaeISB_EEXT_EE20__good_rval_ref_typeE', symObjAddr: 0x8F3C, symBinAddr: 0x10000C8C4, symSize: 0x3C }
  - { offsetInCU: 0x2EBC7, offset: 0x42749, size: 0x8, addend: 0x0, symName: '__ZNKSt3__110unique_ptrINS_10__function6__funcIZN5Scene4initEiiE3$_4NS_9allocatorIS4_EEFvvEEENS_22__allocator_destructorINS5_IS8_EEEEE3getB7v160006Ev', symObjAddr: 0x8F78, symBinAddr: 0x10000C900, symSize: 0x28 }
  - { offsetInCU: 0x2EBEB, offset: 0x4276D, size: 0x8, addend: 0x0, symName: '__ZNKSt3__110__function12__alloc_funcIZN5Scene4initEiiE3$_4NS_9allocatorIS3_EEFvvEE8__targetB7v160006Ev', symObjAddr: 0x8FA0, symBinAddr: 0x10000C928, symSize: 0x24 }
  - { offsetInCU: 0x2EC0F, offset: 0x42791, size: 0x8, addend: 0x0, symName: '__ZNSt3__110__function6__funcIZN5Scene4initEiiE3$_4NS_9allocatorIS3_EEFvvEEC1B7v160006ERKS3_OS5_', symObjAddr: 0x8FC4, symBinAddr: 0x10000C94C, symSize: 0x3C }
  - { offsetInCU: 0x2EC56, offset: 0x427D8, size: 0x8, addend: 0x0, symName: '__ZNSt3__110unique_ptrINS_10__function6__funcIZN5Scene4initEiiE3$_4NS_9allocatorIS4_EEFvvEEENS_22__allocator_destructorINS5_IS8_EEEEE7releaseB7v160006Ev', symObjAddr: 0x9000, symBinAddr: 0x10000C988, symSize: 0x44 }
  - { offsetInCU: 0x2EC89, offset: 0x4280B, size: 0x8, addend: 0x0, symName: '__ZNSt3__110unique_ptrINS_10__function6__funcIZN5Scene4initEiiE3$_4NS_9allocatorIS4_EEFvvEEENS_22__allocator_destructorINS5_IS8_EEEEED1B7v160006Ev', symObjAddr: 0x9044, symBinAddr: 0x10000C9CC, symSize: 0x2C }
  - { offsetInCU: 0x2ECB2, offset: 0x42834, size: 0x8, addend: 0x0, symName: '__ZNKSt3__117__compressed_pairIZN5Scene4initEiiE3$_4NS_9allocatorIS2_EEE6secondB7v160006Ev', symObjAddr: 0x9070, symBinAddr: 0x10000C9F8, symSize: 0x24 }
  - { offsetInCU: 0x2ECD6, offset: 0x42858, size: 0x8, addend: 0x0, symName: '__ZNKSt3__122__compressed_pair_elemINS_9allocatorIZN5Scene4initEiiE3$_4EELi1ELb1EE5__getB7v160006Ev', symObjAddr: 0x9094, symBinAddr: 0x10000CA1C, symSize: 0x14 }
  - { offsetInCU: 0x2ED05, offset: 0x42887, size: 0x8, addend: 0x0, symName: '__ZNSt3__116allocator_traitsINS_9allocatorINS_10__function6__funcIZN5Scene4initEiiE3$_4NS1_IS5_EEFvvEEEEEE8max_sizeB7v160006IS9_vEEmRKS9_', symObjAddr: 0x90A8, symBinAddr: 0x10000CA30, symSize: 0x24 }
  - { offsetInCU: 0x2ED33, offset: 0x428B5, size: 0x8, addend: 0x0, symName: '__ZNKSt3__19allocatorINS_10__function6__funcIZN5Scene4initEiiE3$_4NS0_IS4_EEFvvEEEE8max_sizeB7v160006Ev', symObjAddr: 0x90CC, symBinAddr: 0x10000CA54, symSize: 0x14 }
  - { offsetInCU: 0x2ED58, offset: 0x428DA, size: 0x8, addend: 0x0, symName: '__ZNSt3__122__allocator_destructorINS_9allocatorINS_10__function6__funcIZN5Scene4initEiiE3$_4NS1_IS5_EEFvvEEEEEEC2B7v160006ERS9_m', symObjAddr: 0x90E0, symBinAddr: 0x10000CA68, symSize: 0x2C }
  - { offsetInCU: 0x2ED9D, offset: 0x4291F, size: 0x8, addend: 0x0, symName: '__ZNSt3__110unique_ptrINS_10__function6__funcIZN5Scene4initEiiE3$_4NS_9allocatorIS4_EEFvvEEENS_22__allocator_destructorINS5_IS8_EEEEEC2B7v160006ILb1EvEEPS8_NS_16__dependent_typeINS_27__unique_ptr_deleter_sfinaeISB_EEXT_EE20__good_rval_ref_typeE', symObjAddr: 0x910C, symBinAddr: 0x10000CA94, symSize: 0x48 }
  - { offsetInCU: 0x2EDED, offset: 0x4296F, size: 0x8, addend: 0x0, symName: '__ZNSt3__117__compressed_pairIPNS_10__function6__funcIZN5Scene4initEiiE3$_4NS_9allocatorIS4_EEFvvEEENS_22__allocator_destructorINS5_IS8_EEEEEC1B7v160006IRS9_SC_EEOT_OT0_', symObjAddr: 0x9154, symBinAddr: 0x10000CADC, symSize: 0x3C }
  - { offsetInCU: 0x2EE44, offset: 0x429C6, size: 0x8, addend: 0x0, symName: '__ZNSt3__117__compressed_pairIPNS_10__function6__funcIZN5Scene4initEiiE3$_4NS_9allocatorIS4_EEFvvEEENS_22__allocator_destructorINS5_IS8_EEEEEC2B7v160006IRS9_SC_EEOT_OT0_', symObjAddr: 0x9190, symBinAddr: 0x10000CB18, symSize: 0x48 }
  - { offsetInCU: 0x2EE9B, offset: 0x42A1D, size: 0x8, addend: 0x0, symName: '__ZNSt3__122__compressed_pair_elemIPNS_10__function6__funcIZN5Scene4initEiiE3$_4NS_9allocatorIS4_EEFvvEEELi0ELb0EEC2B7v160006IRS9_vEEOT_', symObjAddr: 0x91D8, symBinAddr: 0x10000CB60, symSize: 0x24 }
  - { offsetInCU: 0x2EEDC, offset: 0x42A5E, size: 0x8, addend: 0x0, symName: '__ZNSt3__122__compressed_pair_elemINS_22__allocator_destructorINS_9allocatorINS_10__function6__funcIZN5Scene4initEiiE3$_4NS2_IS6_EEFvvEEEEEEELi1ELb0EEC2B7v160006ISB_vEEOT_', symObjAddr: 0x91FC, symBinAddr: 0x10000CB84, symSize: 0x24 }
  - { offsetInCU: 0x2EF1D, offset: 0x42A9F, size: 0x8, addend: 0x0, symName: '__ZNKSt3__117__compressed_pairIPNS_10__function6__funcIZN5Scene4initEiiE3$_4NS_9allocatorIS4_EEFvvEEENS_22__allocator_destructorINS5_IS8_EEEEE5firstB7v160006Ev', symObjAddr: 0x9220, symBinAddr: 0x10000CBA8, symSize: 0x24 }
  - { offsetInCU: 0x2EF41, offset: 0x42AC3, size: 0x8, addend: 0x0, symName: '__ZNKSt3__122__compressed_pair_elemIPNS_10__function6__funcIZN5Scene4initEiiE3$_4NS_9allocatorIS4_EEFvvEEELi0ELb0EE5__getB7v160006Ev', symObjAddr: 0x9244, symBinAddr: 0x10000CBCC, symSize: 0x14 }
  - { offsetInCU: 0x2EF66, offset: 0x42AE8, size: 0x8, addend: 0x0, symName: '__ZNKSt3__117__compressed_pairIZN5Scene4initEiiE3$_4NS_9allocatorIS2_EEE5firstB7v160006Ev', symObjAddr: 0x9258, symBinAddr: 0x10000CBE0, symSize: 0x24 }
  - { offsetInCU: 0x2EF8A, offset: 0x42B0C, size: 0x8, addend: 0x0, symName: '__ZNKSt3__122__compressed_pair_elemIZN5Scene4initEiiE3$_4Li0ELb0EE5__getB7v160006Ev', symObjAddr: 0x927C, symBinAddr: 0x10000CC04, symSize: 0x14 }
  - { offsetInCU: 0x2EFAF, offset: 0x42B31, size: 0x8, addend: 0x0, symName: '__ZNSt3__110__function6__funcIZN5Scene4initEiiE3$_4NS_9allocatorIS3_EEFvvEEC2B7v160006ERKS3_OS5_', symObjAddr: 0x9290, symBinAddr: 0x10000CC18, symSize: 0x88 }
  - { offsetInCU: 0x2EFF6, offset: 0x42B78, size: 0x8, addend: 0x0, symName: '__ZNSt3__110__function12__alloc_funcIZN5Scene4initEiiE3$_4NS_9allocatorIS3_EEFvvEEC1B7v160006ERKS3_OS5_', symObjAddr: 0x9318, symBinAddr: 0x10000CCA0, symSize: 0x3C }
  - { offsetInCU: 0x2F03B, offset: 0x42BBD, size: 0x8, addend: 0x0, symName: '__ZNSt3__110__function12__alloc_funcIZN5Scene4initEiiE3$_4NS_9allocatorIS3_EEFvvEEC2B7v160006ERKS3_OS5_', symObjAddr: 0x9354, symBinAddr: 0x10000CCDC, symSize: 0x5C }
  - { offsetInCU: 0x2F080, offset: 0x42C02, size: 0x8, addend: 0x0, symName: '__ZNSt3__117__compressed_pairIZN5Scene4initEiiE3$_4NS_9allocatorIS2_EEEC1B7v160006IJRKS2_EJOS4_EEENS_21piecewise_construct_tENS_5tupleIJDpT_EEENSB_IJDpT0_EEE', symObjAddr: 0x93DC, symBinAddr: 0x10000CD64, symSize: 0x3C }
  - { offsetInCU: 0x2F0E9, offset: 0x42C6B, size: 0x8, addend: 0x0, symName: '__ZNSt3__15tupleIJRKZN5Scene4initEiiE3$_4EEC1B7v160006INS_4_AndELi0EEES4_', symObjAddr: 0x9418, symBinAddr: 0x10000CDA0, symSize: 0x34 }
  - { offsetInCU: 0x2F132, offset: 0x42CB4, size: 0x8, addend: 0x0, symName: '__ZNSt3__15tupleIJRKZN5Scene4initEiiE3$_4EEC2B7v160006INS_4_AndELi0EEES4_', symObjAddr: 0x944C, symBinAddr: 0x10000CDD4, symSize: 0x34 }
  - { offsetInCU: 0x2F17B, offset: 0x42CFD, size: 0x8, addend: 0x0, symName: '__ZNSt3__112__tuple_implINS_15__tuple_indicesIJLm0EEEEJRKZN5Scene4initEiiE3$_4EEC1B7v160006IJLm0EEJS6_EJEJEJS6_EEENS1_IJXspT_EEEENS_13__tuple_typesIJDpT0_EEENS1_IJXspT1_EEEENSA_IJDpT2_EEEDpOT3_', symObjAddr: 0x9480, symBinAddr: 0x10000CE08, symSize: 0x34 }
  - { offsetInCU: 0x2F20F, offset: 0x42D91, size: 0x8, addend: 0x0, symName: '__ZNSt3__112__tuple_implINS_15__tuple_indicesIJLm0EEEEJRKZN5Scene4initEiiE3$_4EEC2B7v160006IJLm0EEJS6_EJEJEJS6_EEENS1_IJXspT_EEEENS_13__tuple_typesIJDpT0_EEENS1_IJXspT1_EEEENSA_IJDpT2_EEEDpOT3_', symObjAddr: 0x94B4, symBinAddr: 0x10000CE3C, symSize: 0x34 }
  - { offsetInCU: 0x2F2A3, offset: 0x42E25, size: 0x8, addend: 0x0, symName: '__ZNSt3__112__tuple_leafILm0ERKZN5Scene4initEiiE3$_4Lb0EEC2B7v160006IS4_vEEOT_', symObjAddr: 0x94E8, symBinAddr: 0x10000CE70, symSize: 0x20 }
  - { offsetInCU: 0x2F2E5, offset: 0x42E67, size: 0x8, addend: 0x0, symName: '__ZNSt3__117__compressed_pairIZN5Scene4initEiiE3$_4NS_9allocatorIS2_EEEC2B7v160006IJRKS2_EJOS4_EEENS_21piecewise_construct_tENS_5tupleIJDpT_EEENSB_IJDpT0_EEE', symObjAddr: 0x9508, symBinAddr: 0x10000CE90, symSize: 0x54 }
  - { offsetInCU: 0x2F34E, offset: 0x42ED0, size: 0x8, addend: 0x0, symName: '__ZNSt3__122__compressed_pair_elemIZN5Scene4initEiiE3$_4Li0ELb0EEC2B7v160006IJRKS2_EJLm0EEEENS_21piecewise_construct_tENS_5tupleIJDpT_EEENS_15__tuple_indicesIJXspT0_EEEE', symObjAddr: 0x955C, symBinAddr: 0x10000CEE4, symSize: 0x44 }
  - { offsetInCU: 0x2F3B2, offset: 0x42F34, size: 0x8, addend: 0x0, symName: '__ZNSt3__112__tuple_leafILm0ERKZN5Scene4initEiiE3$_4Lb0EE3getB7v160006Ev', symObjAddr: 0x95C4, symBinAddr: 0x10000CF4C, symSize: 0x18 }
  - { offsetInCU: 0x2F3D7, offset: 0x42F59, size: 0x8, addend: 0x0, symName: '__ZNSt3__117__compressed_pairIPNS_10__function6__funcIZN5Scene4initEiiE3$_4NS_9allocatorIS4_EEFvvEEENS_22__allocator_destructorINS5_IS8_EEEEE5firstB7v160006Ev', symObjAddr: 0x95DC, symBinAddr: 0x10000CF64, symSize: 0x24 }
  - { offsetInCU: 0x2F3FB, offset: 0x42F7D, size: 0x8, addend: 0x0, symName: '__ZNSt3__122__compressed_pair_elemIPNS_10__function6__funcIZN5Scene4initEiiE3$_4NS_9allocatorIS4_EEFvvEEELi0ELb0EE5__getB7v160006Ev', symObjAddr: 0x9600, symBinAddr: 0x10000CF88, symSize: 0x14 }
  - { offsetInCU: 0x2F420, offset: 0x42FA2, size: 0x8, addend: 0x0, symName: '__ZNSt3__110unique_ptrINS_10__function6__funcIZN5Scene4initEiiE3$_4NS_9allocatorIS4_EEFvvEEENS_22__allocator_destructorINS5_IS8_EEEEED2B7v160006Ev', symObjAddr: 0x9614, symBinAddr: 0x10000CF9C, symSize: 0x30 }
  - { offsetInCU: 0x2F449, offset: 0x42FCB, size: 0x8, addend: 0x0, symName: '__ZNSt3__110unique_ptrINS_10__function6__funcIZN5Scene4initEiiE3$_4NS_9allocatorIS4_EEFvvEEENS_22__allocator_destructorINS5_IS8_EEEEE5resetB7v160006EPS8_', symObjAddr: 0x9644, symBinAddr: 0x10000CFCC, symSize: 0x78 }
  - { offsetInCU: 0x2F48B, offset: 0x4300D, size: 0x8, addend: 0x0, symName: '__ZNSt3__117__compressed_pairIPNS_10__function6__funcIZN5Scene4initEiiE3$_4NS_9allocatorIS4_EEFvvEEENS_22__allocator_destructorINS5_IS8_EEEEE6secondB7v160006Ev', symObjAddr: 0x96BC, symBinAddr: 0x10000D044, symSize: 0x28 }
  - { offsetInCU: 0x2F4AF, offset: 0x43031, size: 0x8, addend: 0x0, symName: '__ZNSt3__122__allocator_destructorINS_9allocatorINS_10__function6__funcIZN5Scene4initEiiE3$_4NS1_IS5_EEFvvEEEEEEclB7v160006EPS8_', symObjAddr: 0x96E4, symBinAddr: 0x10000D06C, symSize: 0x34 }
  - { offsetInCU: 0x2F4E1, offset: 0x43063, size: 0x8, addend: 0x0, symName: '__ZNSt3__122__compressed_pair_elemINS_22__allocator_destructorINS_9allocatorINS_10__function6__funcIZN5Scene4initEiiE3$_4NS2_IS6_EEFvvEEEEEEELi1ELb0EE5__getB7v160006Ev', symObjAddr: 0x9718, symBinAddr: 0x10000D0A0, symSize: 0x14 }
  - { offsetInCU: 0x2F506, offset: 0x43088, size: 0x8, addend: 0x0, symName: '__ZNSt3__116allocator_traitsINS_9allocatorINS_10__function6__funcIZN5Scene4initEiiE3$_4NS1_IS5_EEFvvEEEEEE10deallocateB7v160006ERS9_PS8_m', symObjAddr: 0x972C, symBinAddr: 0x10000D0B4, symSize: 0x34 }
  - { offsetInCU: 0x2F548, offset: 0x430CA, size: 0x8, addend: 0x0, symName: '__ZNSt3__19allocatorINS_10__function6__funcIZN5Scene4initEiiE3$_4NS0_IS4_EEFvvEEEE10deallocateB7v160006EPS7_m', symObjAddr: 0x9760, symBinAddr: 0x10000D0E8, symSize: 0x40 }
  - { offsetInCU: 0x2F588, offset: 0x4310A, size: 0x8, addend: 0x0, symName: '__ZNSt3__110__function6__funcIZN5Scene4initEiiE3$_4NS_9allocatorIS3_EEFvvEEC1B7v160006ERKS3_RKS5_', symObjAddr: 0x97A0, symBinAddr: 0x10000D128, symSize: 0x3C }
  - { offsetInCU: 0x2F5CF, offset: 0x43151, size: 0x8, addend: 0x0, symName: '__ZNSt3__110__function6__funcIZN5Scene4initEiiE3$_4NS_9allocatorIS3_EEFvvEEC2B7v160006ERKS3_RKS5_', symObjAddr: 0x97DC, symBinAddr: 0x10000D164, symSize: 0x88 }
  - { offsetInCU: 0x2F616, offset: 0x43198, size: 0x8, addend: 0x0, symName: '__ZNSt3__110__function12__alloc_funcIZN5Scene4initEiiE3$_4NS_9allocatorIS3_EEFvvEEC1B7v160006ERKS3_RKS5_', symObjAddr: 0x9864, symBinAddr: 0x10000D1EC, symSize: 0x3C }
  - { offsetInCU: 0x2F65B, offset: 0x431DD, size: 0x8, addend: 0x0, symName: '__ZNSt3__110__function12__alloc_funcIZN5Scene4initEiiE3$_4NS_9allocatorIS3_EEFvvEEC2B7v160006ERKS3_RKS5_', symObjAddr: 0x98A0, symBinAddr: 0x10000D228, symSize: 0x5C }
  - { offsetInCU: 0x2F6A0, offset: 0x43222, size: 0x8, addend: 0x0, symName: '__ZNSt3__117__compressed_pairIZN5Scene4initEiiE3$_4NS_9allocatorIS2_EEEC1B7v160006IJRKS2_EJRKS4_EEENS_21piecewise_construct_tENS_5tupleIJDpT_EEENSC_IJDpT0_EEE', symObjAddr: 0x9928, symBinAddr: 0x10000D2B0, symSize: 0x3C }
  - { offsetInCU: 0x2F709, offset: 0x4328B, size: 0x8, addend: 0x0, symName: '__ZNSt3__15tupleIJRKNS_9allocatorIZN5Scene4initEiiE3$_4EEEEC1B7v160006INS_4_AndELi0EEES6_', symObjAddr: 0x9964, symBinAddr: 0x10000D2EC, symSize: 0x34 }
  - { offsetInCU: 0x2F752, offset: 0x432D4, size: 0x8, addend: 0x0, symName: '__ZNSt3__15tupleIJRKNS_9allocatorIZN5Scene4initEiiE3$_4EEEEC2B7v160006INS_4_AndELi0EEES6_', symObjAddr: 0x9998, symBinAddr: 0x10000D320, symSize: 0x34 }
  - { offsetInCU: 0x2F79B, offset: 0x4331D, size: 0x8, addend: 0x0, symName: '__ZNSt3__112__tuple_implINS_15__tuple_indicesIJLm0EEEEJRKNS_9allocatorIZN5Scene4initEiiE3$_4EEEEC1B7v160006IJLm0EEJS8_EJEJEJS8_EEENS1_IJXspT_EEEENS_13__tuple_typesIJDpT0_EEENS1_IJXspT1_EEEENSC_IJDpT2_EEEDpOT3_', symObjAddr: 0x99CC, symBinAddr: 0x10000D354, symSize: 0x34 }
  - { offsetInCU: 0x2F82F, offset: 0x433B1, size: 0x8, addend: 0x0, symName: '__ZNSt3__112__tuple_implINS_15__tuple_indicesIJLm0EEEEJRKNS_9allocatorIZN5Scene4initEiiE3$_4EEEEC2B7v160006IJLm0EEJS8_EJEJEJS8_EEENS1_IJXspT_EEEENS_13__tuple_typesIJDpT0_EEENS1_IJXspT1_EEEENSC_IJDpT2_EEEDpOT3_', symObjAddr: 0x9A00, symBinAddr: 0x10000D388, symSize: 0x34 }
  - { offsetInCU: 0x2F8C3, offset: 0x43445, size: 0x8, addend: 0x0, symName: '__ZNSt3__112__tuple_leafILm0ERKNS_9allocatorIZN5Scene4initEiiE3$_4EELb0EEC2B7v160006IS6_vEEOT_', symObjAddr: 0x9A34, symBinAddr: 0x10000D3BC, symSize: 0x20 }
  - { offsetInCU: 0x2F905, offset: 0x43487, size: 0x8, addend: 0x0, symName: '__ZNSt3__117__compressed_pairIZN5Scene4initEiiE3$_4NS_9allocatorIS2_EEEC2B7v160006IJRKS2_EJRKS4_EEENS_21piecewise_construct_tENS_5tupleIJDpT_EEENSC_IJDpT0_EEE', symObjAddr: 0x9A54, symBinAddr: 0x10000D3DC, symSize: 0x54 }
  - { offsetInCU: 0x2F96E, offset: 0x434F0, size: 0x8, addend: 0x0, symName: '__ZNSt3__122__compressed_pair_elemINS_9allocatorIZN5Scene4initEiiE3$_4EELi1ELb1EEC2B7v160006IJRKS4_EJLm0EEEENS_21piecewise_construct_tENS_5tupleIJDpT_EEENS_15__tuple_indicesIJXspT0_EEEE', symObjAddr: 0x9AA8, symBinAddr: 0x10000D430, symSize: 0x38 }
  - { offsetInCU: 0x2F9D2, offset: 0x43554, size: 0x8, addend: 0x0, symName: '__ZNSt3__112__tuple_leafILm0ERKNS_9allocatorIZN5Scene4initEiiE3$_4EELb0EE3getB7v160006Ev', symObjAddr: 0x9B04, symBinAddr: 0x10000D48C, symSize: 0x18 }
  - { offsetInCU: 0x2F9F7, offset: 0x43579, size: 0x8, addend: 0x0, symName: '__ZNSt3__110__function12__alloc_funcIZN5Scene4initEiiE3$_4NS_9allocatorIS3_EEFvvEE7destroyB7v160006Ev', symObjAddr: 0x9B1C, symBinAddr: 0x10000D4A4, symSize: 0x10 }
  - { offsetInCU: 0x2FA1C, offset: 0x4359E, size: 0x8, addend: 0x0, symName: '__ZNSt3__110__function12__alloc_funcIZN5Scene4initEiiE3$_4NS_9allocatorIS3_EEFvvEEclB7v160006Ev', symObjAddr: 0x9B2C, symBinAddr: 0x10000D4B4, symSize: 0x28 }
  - { offsetInCU: 0x2FA40, offset: 0x435C2, size: 0x8, addend: 0x0, symName: '__ZNSt3__128__invoke_void_return_wrapperIvLb1EE6__callIJRZN5Scene4initEiiE3$_4EEEvDpOT_', symObjAddr: 0x9B54, symBinAddr: 0x10000D4DC, symSize: 0x24 }
  - { offsetInCU: 0x2FA6F, offset: 0x435F1, size: 0x8, addend: 0x0, symName: '__ZNSt3__117__compressed_pairIZN5Scene4initEiiE3$_4NS_9allocatorIS2_EEE5firstB7v160006Ev', symObjAddr: 0x9B78, symBinAddr: 0x10000D500, symSize: 0x24 }
  - { offsetInCU: 0x2FA93, offset: 0x43615, size: 0x8, addend: 0x0, symName: '__ZZN5Scene4initEiiENK3$_4clEv', symObjAddr: 0x9BC0, symBinAddr: 0x10000D548, symSize: 0x38 }
  - { offsetInCU: 0x2FABC, offset: 0x4363E, size: 0x8, addend: 0x0, symName: '__ZNSt3__122__compressed_pair_elemIZN5Scene4initEiiE3$_4Li0ELb0EE5__getB7v160006Ev', symObjAddr: 0x9BF8, symBinAddr: 0x10000D580, symSize: 0x14 }
  - { offsetInCU: 0x2FAE1, offset: 0x43663, size: 0x8, addend: 0x0, symName: '__ZNSt3__18functionIFvvEEC2IZN5Scene4initEiiE3$_5vEET_', symObjAddr: 0x9C0C, symBinAddr: 0x10000D594, symSize: 0x38 }
  - { offsetInCU: 0x2FB25, offset: 0x436A7, size: 0x8, addend: 0x0, symName: '__ZNSt3__110__function12__value_funcIFvvEEC1B7v160006IZN5Scene4initEiiE3$_5vEEOT_', symObjAddr: 0x9C44, symBinAddr: 0x10000D5CC, symSize: 0x50 }
  - { offsetInCU: 0x2FB67, offset: 0x436E9, size: 0x8, addend: 0x0, symName: '__ZNSt3__19allocatorIZN5Scene4initEiiE3$_5EC1B7v160006Ev', symObjAddr: 0x9C94, symBinAddr: 0x10000D61C, symSize: 0x2C }
  - { offsetInCU: 0x2FB90, offset: 0x43712, size: 0x8, addend: 0x0, symName: '__ZNSt3__110__function12__value_funcIFvvEEC1B7v160006IZN5Scene4initEiiE3$_5NS_9allocatorIS6_EEEEOT_RKT0_', symObjAddr: 0x9CC0, symBinAddr: 0x10000D648, symSize: 0x3C }
  - { offsetInCU: 0x2FBE9, offset: 0x4376B, size: 0x8, addend: 0x0, symName: '__ZNSt3__19allocatorIZN5Scene4initEiiE3$_5EC2B7v160006Ev', symObjAddr: 0x9CFC, symBinAddr: 0x10000D684, symSize: 0x2C }
  - { offsetInCU: 0x2FC12, offset: 0x43794, size: 0x8, addend: 0x0, symName: '__ZNSt3__116__non_trivial_ifILb1ENS_9allocatorIZN5Scene4initEiiE3$_5EEEC2B7v160006Ev', symObjAddr: 0x9D28, symBinAddr: 0x10000D6B0, symSize: 0x14 }
  - { offsetInCU: 0x2FC3B, offset: 0x437BD, size: 0x8, addend: 0x0, symName: '__ZNSt3__110__function12__value_funcIFvvEEC2B7v160006IZN5Scene4initEiiE3$_5NS_9allocatorIS6_EEEEOT_RKT0_', symObjAddr: 0x9D3C, symBinAddr: 0x10000D6C4, symSize: 0x94 }
  - { offsetInCU: 0x2FCE1, offset: 0x43863, size: 0x8, addend: 0x0, symName: '__ZNSt3__19allocatorINS_10__function6__funcIZN5Scene4initEiiE3$_5NS0_IS4_EEFvvEEEEC1B7v160006IS4_EERKNS0_IT_EE', symObjAddr: 0x9DE8, symBinAddr: 0x10000D770, symSize: 0x34 }
  - { offsetInCU: 0x2FD23, offset: 0x438A5, size: 0x8, addend: 0x0, symName: '__ZNSt3__19allocatorIZN5Scene4initEiiE3$_5EC1B7v160006INS_10__function6__funcIS2_S3_FvvEEEEERKNS0_IT_EE', symObjAddr: 0x9E1C, symBinAddr: 0x10000D7A4, symSize: 0x34 }
  - { offsetInCU: 0x2FD60, offset: 0x438E2, size: 0x8, addend: 0x0, symName: '__ZNSt3__110__function6__funcIZN5Scene4initEiiE3$_5NS_9allocatorIS3_EEFvvEEC1B7v160006EOS3_OS5_', symObjAddr: 0x9E50, symBinAddr: 0x10000D7D8, symSize: 0x3C }
  - { offsetInCU: 0x2FDA7, offset: 0x43929, size: 0x8, addend: 0x0, symName: '__ZNSt3__19allocatorINS_10__function6__funcIZN5Scene4initEiiE3$_5NS0_IS4_EEFvvEEEEC2B7v160006IS4_EERKNS0_IT_EE', symObjAddr: 0x9E8C, symBinAddr: 0x10000D814, symSize: 0x30 }
  - { offsetInCU: 0x2FDE4, offset: 0x43966, size: 0x8, addend: 0x0, symName: '__ZNSt3__116__non_trivial_ifILb1ENS_9allocatorINS_10__function6__funcIZN5Scene4initEiiE3$_5NS1_IS5_EEFvvEEEEEEC2B7v160006Ev', symObjAddr: 0x9EBC, symBinAddr: 0x10000D844, symSize: 0x14 }
  - { offsetInCU: 0x2FE0D, offset: 0x4398F, size: 0x8, addend: 0x0, symName: '__ZNSt3__19allocatorIZN5Scene4initEiiE3$_5EC2B7v160006INS_10__function6__funcIS2_S3_FvvEEEEERKNS0_IT_EE', symObjAddr: 0x9ED0, symBinAddr: 0x10000D858, symSize: 0x30 }
  - { offsetInCU: 0x2FE4A, offset: 0x439CC, size: 0x8, addend: 0x0, symName: '__ZNSt3__110__function6__funcIZN5Scene4initEiiE3$_5NS_9allocatorIS3_EEFvvEEC2B7v160006EOS3_OS5_', symObjAddr: 0x9F00, symBinAddr: 0x10000D888, symSize: 0x88 }
  - { offsetInCU: 0x2FE91, offset: 0x43A13, size: 0x8, addend: 0x0, symName: '__ZNSt3__110__function12__alloc_funcIZN5Scene4initEiiE3$_5NS_9allocatorIS3_EEFvvEEC1B7v160006EOS3_OS5_', symObjAddr: 0x9F88, symBinAddr: 0x10000D910, symSize: 0x3C }
  - { offsetInCU: 0x2FED6, offset: 0x43A58, size: 0x8, addend: 0x0, symName: '__ZNSt3__110__function6__funcIZN5Scene4initEiiE3$_5NS_9allocatorIS3_EEFvvEED1Ev', symObjAddr: 0x9FC4, symBinAddr: 0x10000D94C, symSize: 0x2C }
  - { offsetInCU: 0x2FF02, offset: 0x43A84, size: 0x8, addend: 0x0, symName: '__ZNSt3__110__function6__funcIZN5Scene4initEiiE3$_5NS_9allocatorIS3_EEFvvEED0Ev', symObjAddr: 0x9FF0, symBinAddr: 0x10000D978, symSize: 0x30 }
  - { offsetInCU: 0x2FF2E, offset: 0x43AB0, size: 0x8, addend: 0x0, symName: '__ZNKSt3__110__function6__funcIZN5Scene4initEiiE3$_5NS_9allocatorIS3_EEFvvEE7__cloneEv', symObjAddr: 0xA020, symBinAddr: 0x10000D9A8, symSize: 0xFC }
  - { offsetInCU: 0x2FF7F, offset: 0x43B01, size: 0x8, addend: 0x0, symName: '__ZNKSt3__110__function6__funcIZN5Scene4initEiiE3$_5NS_9allocatorIS3_EEFvvEE7__cloneEPNS0_6__baseIS6_EE', symObjAddr: 0xA11C, symBinAddr: 0x10000DAA4, symSize: 0x58 }
  - { offsetInCU: 0x2FFB5, offset: 0x43B37, size: 0x8, addend: 0x0, symName: '__ZNSt3__110__function6__funcIZN5Scene4initEiiE3$_5NS_9allocatorIS3_EEFvvEE7destroyEv', symObjAddr: 0xA174, symBinAddr: 0x10000DAFC, symSize: 0x28 }
  - { offsetInCU: 0x2FFDC, offset: 0x43B5E, size: 0x8, addend: 0x0, symName: '__ZNSt3__110__function6__funcIZN5Scene4initEiiE3$_5NS_9allocatorIS3_EEFvvEE18destroy_deallocateEv', symObjAddr: 0xA19C, symBinAddr: 0x10000DB24, symSize: 0x58 }
  - { offsetInCU: 0x3001E, offset: 0x43BA0, size: 0x8, addend: 0x0, symName: '__ZNSt3__110__function6__funcIZN5Scene4initEiiE3$_5NS_9allocatorIS3_EEFvvEEclEv', symObjAddr: 0xA1F4, symBinAddr: 0x10000DB7C, symSize: 0x28 }
  - { offsetInCU: 0x30045, offset: 0x43BC7, size: 0x8, addend: 0x0, symName: '__ZNKSt3__110__function6__funcIZN5Scene4initEiiE3$_5NS_9allocatorIS3_EEFvvEE6targetERKSt9type_info', symObjAddr: 0xA21C, symBinAddr: 0x10000DBA4, symSize: 0x60 }
  - { offsetInCU: 0x3007B, offset: 0x43BFD, size: 0x8, addend: 0x0, symName: '__ZNKSt3__110__function6__funcIZN5Scene4initEiiE3$_5NS_9allocatorIS3_EEFvvEE11target_typeEv', symObjAddr: 0xA27C, symBinAddr: 0x10000DC04, symSize: 0x18 }
  - { offsetInCU: 0x300A2, offset: 0x43C24, size: 0x8, addend: 0x0, symName: '__ZNSt3__110__function12__alloc_funcIZN5Scene4initEiiE3$_5NS_9allocatorIS3_EEFvvEEC2B7v160006EOS3_OS5_', symObjAddr: 0xA294, symBinAddr: 0x10000DC1C, symSize: 0x5C }
  - { offsetInCU: 0x300E7, offset: 0x43C69, size: 0x8, addend: 0x0, symName: '__ZNSt3__117__compressed_pairIZN5Scene4initEiiE3$_5NS_9allocatorIS2_EEEC1B7v160006IJOS2_EJOS4_EEENS_21piecewise_construct_tENS_5tupleIJDpT_EEENSA_IJDpT0_EEE', symObjAddr: 0xA348, symBinAddr: 0x10000DCD0, symSize: 0x3C }
  - { offsetInCU: 0x30150, offset: 0x43CD2, size: 0x8, addend: 0x0, symName: '__ZNSt3__15tupleIJOZN5Scene4initEiiE3$_5EEC1B7v160006IJS2_ELi0EEEDpOT_', symObjAddr: 0xA384, symBinAddr: 0x10000DD0C, symSize: 0x34 }
  - { offsetInCU: 0x3019A, offset: 0x43D1C, size: 0x8, addend: 0x0, symName: '__ZNSt3__15tupleIJOZN5Scene4initEiiE3$_5EEC2B7v160006IJS2_ELi0EEEDpOT_', symObjAddr: 0xA3B8, symBinAddr: 0x10000DD40, symSize: 0x34 }
  - { offsetInCU: 0x301E4, offset: 0x43D66, size: 0x8, addend: 0x0, symName: '__ZNSt3__112__tuple_implINS_15__tuple_indicesIJLm0EEEEJOZN5Scene4initEiiE3$_5EEC1B7v160006IJLm0EEJS5_EJEJEJS4_EEENS1_IJXspT_EEEENS_13__tuple_typesIJDpT0_EEENS1_IJXspT1_EEEENS9_IJDpT2_EEEDpOT3_', symObjAddr: 0xA3EC, symBinAddr: 0x10000DD74, symSize: 0x34 }
  - { offsetInCU: 0x30278, offset: 0x43DFA, size: 0x8, addend: 0x0, symName: '__ZNSt3__112__tuple_implINS_15__tuple_indicesIJLm0EEEEJOZN5Scene4initEiiE3$_5EEC2B7v160006IJLm0EEJS5_EJEJEJS4_EEENS1_IJXspT_EEEENS_13__tuple_typesIJDpT0_EEENS1_IJXspT1_EEEENS9_IJDpT2_EEEDpOT3_', symObjAddr: 0xA420, symBinAddr: 0x10000DDA8, symSize: 0x34 }
  - { offsetInCU: 0x3030C, offset: 0x43E8E, size: 0x8, addend: 0x0, symName: '__ZNSt3__112__tuple_leafILm0EOZN5Scene4initEiiE3$_5Lb0EEC2B7v160006IS2_vEEOT_', symObjAddr: 0xA454, symBinAddr: 0x10000DDDC, symSize: 0x20 }
  - { offsetInCU: 0x3034E, offset: 0x43ED0, size: 0x8, addend: 0x0, symName: '__ZNSt3__15tupleIJONS_9allocatorIZN5Scene4initEiiE3$_5EEEEC1B7v160006IJS4_ELi0EEEDpOT_', symObjAddr: 0xA474, symBinAddr: 0x10000DDFC, symSize: 0x34 }
  - { offsetInCU: 0x30398, offset: 0x43F1A, size: 0x8, addend: 0x0, symName: '__ZNSt3__15tupleIJONS_9allocatorIZN5Scene4initEiiE3$_5EEEEC2B7v160006IJS4_ELi0EEEDpOT_', symObjAddr: 0xA4A8, symBinAddr: 0x10000DE30, symSize: 0x34 }
  - { offsetInCU: 0x303E2, offset: 0x43F64, size: 0x8, addend: 0x0, symName: '__ZNSt3__112__tuple_implINS_15__tuple_indicesIJLm0EEEEJONS_9allocatorIZN5Scene4initEiiE3$_5EEEEC1B7v160006IJLm0EEJS7_EJEJEJS6_EEENS1_IJXspT_EEEENS_13__tuple_typesIJDpT0_EEENS1_IJXspT1_EEEENSB_IJDpT2_EEEDpOT3_', symObjAddr: 0xA4DC, symBinAddr: 0x10000DE64, symSize: 0x34 }
  - { offsetInCU: 0x30476, offset: 0x43FF8, size: 0x8, addend: 0x0, symName: '__ZNSt3__112__tuple_implINS_15__tuple_indicesIJLm0EEEEJONS_9allocatorIZN5Scene4initEiiE3$_5EEEEC2B7v160006IJLm0EEJS7_EJEJEJS6_EEENS1_IJXspT_EEEENS_13__tuple_typesIJDpT0_EEENS1_IJXspT1_EEEENSB_IJDpT2_EEEDpOT3_', symObjAddr: 0xA510, symBinAddr: 0x10000DE98, symSize: 0x34 }
  - { offsetInCU: 0x3050A, offset: 0x4408C, size: 0x8, addend: 0x0, symName: '__ZNSt3__112__tuple_leafILm0EONS_9allocatorIZN5Scene4initEiiE3$_5EELb0EEC2B7v160006IS4_vEEOT_', symObjAddr: 0xA544, symBinAddr: 0x10000DECC, symSize: 0x20 }
  - { offsetInCU: 0x3054C, offset: 0x440CE, size: 0x8, addend: 0x0, symName: '__ZNSt3__117__compressed_pairIZN5Scene4initEiiE3$_5NS_9allocatorIS2_EEEC2B7v160006IJOS2_EJOS4_EEENS_21piecewise_construct_tENS_5tupleIJDpT_EEENSA_IJDpT0_EEE', symObjAddr: 0xA564, symBinAddr: 0x10000DEEC, symSize: 0x54 }
  - { offsetInCU: 0x305B5, offset: 0x44137, size: 0x8, addend: 0x0, symName: '__ZNSt3__122__compressed_pair_elemIZN5Scene4initEiiE3$_5Li0ELb0EEC2B7v160006IJOS2_EJLm0EEEENS_21piecewise_construct_tENS_5tupleIJDpT_EEENS_15__tuple_indicesIJXspT0_EEEE', symObjAddr: 0xA5B8, symBinAddr: 0x10000DF40, symSize: 0x44 }
  - { offsetInCU: 0x30619, offset: 0x4419B, size: 0x8, addend: 0x0, symName: '__ZNSt3__122__compressed_pair_elemINS_9allocatorIZN5Scene4initEiiE3$_5EELi1ELb1EEC2B7v160006IJOS4_EJLm0EEEENS_21piecewise_construct_tENS_5tupleIJDpT_EEENS_15__tuple_indicesIJXspT0_EEEE', symObjAddr: 0xA5FC, symBinAddr: 0x10000DF84, symSize: 0x38 }
  - { offsetInCU: 0x3067D, offset: 0x441FF, size: 0x8, addend: 0x0, symName: '__ZNSt3__112__tuple_leafILm0EOZN5Scene4initEiiE3$_5Lb0EE3getB7v160006Ev', symObjAddr: 0xA658, symBinAddr: 0x10000DFE0, symSize: 0x18 }
  - { offsetInCU: 0x306A2, offset: 0x44224, size: 0x8, addend: 0x0, symName: '__ZNSt3__112__tuple_leafILm0EONS_9allocatorIZN5Scene4initEiiE3$_5EELb0EE3getB7v160006Ev', symObjAddr: 0xA694, symBinAddr: 0x10000E01C, symSize: 0x18 }
  - { offsetInCU: 0x306C7, offset: 0x44249, size: 0x8, addend: 0x0, symName: '__ZNSt3__110__function6__funcIZN5Scene4initEiiE3$_5NS_9allocatorIS3_EEFvvEED2Ev', symObjAddr: 0xA6AC, symBinAddr: 0x10000E034, symSize: 0x2C }
  - { offsetInCU: 0x306F3, offset: 0x44275, size: 0x8, addend: 0x0, symName: '__ZNKSt3__110__function12__alloc_funcIZN5Scene4initEiiE3$_5NS_9allocatorIS3_EEFvvEE15__get_allocatorB7v160006Ev', symObjAddr: 0xA6D8, symBinAddr: 0x10000E060, symSize: 0x24 }
  - { offsetInCU: 0x30717, offset: 0x44299, size: 0x8, addend: 0x0, symName: '__ZNSt3__19allocatorINS_10__function6__funcIZN5Scene4initEiiE3$_5NS0_IS4_EEFvvEEEE8allocateB7v160006Em', symObjAddr: 0xA6FC, symBinAddr: 0x10000E084, symSize: 0x58 }
  - { offsetInCU: 0x30758, offset: 0x442DA, size: 0x8, addend: 0x0, symName: '__ZNSt3__122__allocator_destructorINS_9allocatorINS_10__function6__funcIZN5Scene4initEiiE3$_5NS1_IS5_EEFvvEEEEEEC1B7v160006ERS9_m', symObjAddr: 0xA754, symBinAddr: 0x10000E0DC, symSize: 0x3C }
  - { offsetInCU: 0x30829, offset: 0x443AB, size: 0x8, addend: 0x0, symName: '__ZNSt3__110unique_ptrINS_10__function6__funcIZN5Scene4initEiiE3$_5NS_9allocatorIS4_EEFvvEEENS_22__allocator_destructorINS5_IS8_EEEEEC1B7v160006ILb1EvEEPS8_NS_16__dependent_typeINS_27__unique_ptr_deleter_sfinaeISB_EEXT_EE20__good_rval_ref_typeE', symObjAddr: 0xA790, symBinAddr: 0x10000E118, symSize: 0x3C }
  - { offsetInCU: 0x30879, offset: 0x443FB, size: 0x8, addend: 0x0, symName: '__ZNKSt3__110unique_ptrINS_10__function6__funcIZN5Scene4initEiiE3$_5NS_9allocatorIS4_EEFvvEEENS_22__allocator_destructorINS5_IS8_EEEEE3getB7v160006Ev', symObjAddr: 0xA7CC, symBinAddr: 0x10000E154, symSize: 0x28 }
  - { offsetInCU: 0x3089D, offset: 0x4441F, size: 0x8, addend: 0x0, symName: '__ZNKSt3__110__function12__alloc_funcIZN5Scene4initEiiE3$_5NS_9allocatorIS3_EEFvvEE8__targetB7v160006Ev', symObjAddr: 0xA7F4, symBinAddr: 0x10000E17C, symSize: 0x24 }
  - { offsetInCU: 0x308C1, offset: 0x44443, size: 0x8, addend: 0x0, symName: '__ZNSt3__110__function6__funcIZN5Scene4initEiiE3$_5NS_9allocatorIS3_EEFvvEEC1B7v160006ERKS3_OS5_', symObjAddr: 0xA818, symBinAddr: 0x10000E1A0, symSize: 0x3C }
  - { offsetInCU: 0x30908, offset: 0x4448A, size: 0x8, addend: 0x0, symName: '__ZNSt3__110unique_ptrINS_10__function6__funcIZN5Scene4initEiiE3$_5NS_9allocatorIS4_EEFvvEEENS_22__allocator_destructorINS5_IS8_EEEEE7releaseB7v160006Ev', symObjAddr: 0xA854, symBinAddr: 0x10000E1DC, symSize: 0x44 }
  - { offsetInCU: 0x3093B, offset: 0x444BD, size: 0x8, addend: 0x0, symName: '__ZNSt3__110unique_ptrINS_10__function6__funcIZN5Scene4initEiiE3$_5NS_9allocatorIS4_EEFvvEEENS_22__allocator_destructorINS5_IS8_EEEEED1B7v160006Ev', symObjAddr: 0xA898, symBinAddr: 0x10000E220, symSize: 0x2C }
  - { offsetInCU: 0x30964, offset: 0x444E6, size: 0x8, addend: 0x0, symName: '__ZNKSt3__117__compressed_pairIZN5Scene4initEiiE3$_5NS_9allocatorIS2_EEE6secondB7v160006Ev', symObjAddr: 0xA8C4, symBinAddr: 0x10000E24C, symSize: 0x24 }
  - { offsetInCU: 0x30988, offset: 0x4450A, size: 0x8, addend: 0x0, symName: '__ZNKSt3__122__compressed_pair_elemINS_9allocatorIZN5Scene4initEiiE3$_5EELi1ELb1EE5__getB7v160006Ev', symObjAddr: 0xA8E8, symBinAddr: 0x10000E270, symSize: 0x14 }
  - { offsetInCU: 0x309B7, offset: 0x44539, size: 0x8, addend: 0x0, symName: '__ZNSt3__116allocator_traitsINS_9allocatorINS_10__function6__funcIZN5Scene4initEiiE3$_5NS1_IS5_EEFvvEEEEEE8max_sizeB7v160006IS9_vEEmRKS9_', symObjAddr: 0xA8FC, symBinAddr: 0x10000E284, symSize: 0x24 }
  - { offsetInCU: 0x309E5, offset: 0x44567, size: 0x8, addend: 0x0, symName: '__ZNKSt3__19allocatorINS_10__function6__funcIZN5Scene4initEiiE3$_5NS0_IS4_EEFvvEEEE8max_sizeB7v160006Ev', symObjAddr: 0xA920, symBinAddr: 0x10000E2A8, symSize: 0x14 }
  - { offsetInCU: 0x30A0A, offset: 0x4458C, size: 0x8, addend: 0x0, symName: '__ZNSt3__122__allocator_destructorINS_9allocatorINS_10__function6__funcIZN5Scene4initEiiE3$_5NS1_IS5_EEFvvEEEEEEC2B7v160006ERS9_m', symObjAddr: 0xA934, symBinAddr: 0x10000E2BC, symSize: 0x2C }
  - { offsetInCU: 0x30A4F, offset: 0x445D1, size: 0x8, addend: 0x0, symName: '__ZNSt3__110unique_ptrINS_10__function6__funcIZN5Scene4initEiiE3$_5NS_9allocatorIS4_EEFvvEEENS_22__allocator_destructorINS5_IS8_EEEEEC2B7v160006ILb1EvEEPS8_NS_16__dependent_typeINS_27__unique_ptr_deleter_sfinaeISB_EEXT_EE20__good_rval_ref_typeE', symObjAddr: 0xA960, symBinAddr: 0x10000E2E8, symSize: 0x48 }
  - { offsetInCU: 0x30A9F, offset: 0x44621, size: 0x8, addend: 0x0, symName: '__ZNSt3__117__compressed_pairIPNS_10__function6__funcIZN5Scene4initEiiE3$_5NS_9allocatorIS4_EEFvvEEENS_22__allocator_destructorINS5_IS8_EEEEEC1B7v160006IRS9_SC_EEOT_OT0_', symObjAddr: 0xA9A8, symBinAddr: 0x10000E330, symSize: 0x3C }
  - { offsetInCU: 0x30AF6, offset: 0x44678, size: 0x8, addend: 0x0, symName: '__ZNSt3__117__compressed_pairIPNS_10__function6__funcIZN5Scene4initEiiE3$_5NS_9allocatorIS4_EEFvvEEENS_22__allocator_destructorINS5_IS8_EEEEEC2B7v160006IRS9_SC_EEOT_OT0_', symObjAddr: 0xA9E4, symBinAddr: 0x10000E36C, symSize: 0x48 }
  - { offsetInCU: 0x30B4D, offset: 0x446CF, size: 0x8, addend: 0x0, symName: '__ZNSt3__122__compressed_pair_elemIPNS_10__function6__funcIZN5Scene4initEiiE3$_5NS_9allocatorIS4_EEFvvEEELi0ELb0EEC2B7v160006IRS9_vEEOT_', symObjAddr: 0xAA2C, symBinAddr: 0x10000E3B4, symSize: 0x24 }
  - { offsetInCU: 0x30B8E, offset: 0x44710, size: 0x8, addend: 0x0, symName: '__ZNSt3__122__compressed_pair_elemINS_22__allocator_destructorINS_9allocatorINS_10__function6__funcIZN5Scene4initEiiE3$_5NS2_IS6_EEFvvEEEEEEELi1ELb0EEC2B7v160006ISB_vEEOT_', symObjAddr: 0xAA50, symBinAddr: 0x10000E3D8, symSize: 0x24 }
  - { offsetInCU: 0x30BCF, offset: 0x44751, size: 0x8, addend: 0x0, symName: '__ZNKSt3__117__compressed_pairIPNS_10__function6__funcIZN5Scene4initEiiE3$_5NS_9allocatorIS4_EEFvvEEENS_22__allocator_destructorINS5_IS8_EEEEE5firstB7v160006Ev', symObjAddr: 0xAA74, symBinAddr: 0x10000E3FC, symSize: 0x24 }
  - { offsetInCU: 0x30BF3, offset: 0x44775, size: 0x8, addend: 0x0, symName: '__ZNKSt3__122__compressed_pair_elemIPNS_10__function6__funcIZN5Scene4initEiiE3$_5NS_9allocatorIS4_EEFvvEEELi0ELb0EE5__getB7v160006Ev', symObjAddr: 0xAA98, symBinAddr: 0x10000E420, symSize: 0x14 }
  - { offsetInCU: 0x30C18, offset: 0x4479A, size: 0x8, addend: 0x0, symName: '__ZNKSt3__117__compressed_pairIZN5Scene4initEiiE3$_5NS_9allocatorIS2_EEE5firstB7v160006Ev', symObjAddr: 0xAAAC, symBinAddr: 0x10000E434, symSize: 0x24 }
  - { offsetInCU: 0x30C3C, offset: 0x447BE, size: 0x8, addend: 0x0, symName: '__ZNKSt3__122__compressed_pair_elemIZN5Scene4initEiiE3$_5Li0ELb0EE5__getB7v160006Ev', symObjAddr: 0xAAD0, symBinAddr: 0x10000E458, symSize: 0x14 }
  - { offsetInCU: 0x30C61, offset: 0x447E3, size: 0x8, addend: 0x0, symName: '__ZNSt3__110__function6__funcIZN5Scene4initEiiE3$_5NS_9allocatorIS3_EEFvvEEC2B7v160006ERKS3_OS5_', symObjAddr: 0xAAE4, symBinAddr: 0x10000E46C, symSize: 0x88 }
  - { offsetInCU: 0x30CA8, offset: 0x4482A, size: 0x8, addend: 0x0, symName: '__ZNSt3__110__function12__alloc_funcIZN5Scene4initEiiE3$_5NS_9allocatorIS3_EEFvvEEC1B7v160006ERKS3_OS5_', symObjAddr: 0xAB6C, symBinAddr: 0x10000E4F4, symSize: 0x3C }
  - { offsetInCU: 0x30CED, offset: 0x4486F, size: 0x8, addend: 0x0, symName: '__ZNSt3__110__function12__alloc_funcIZN5Scene4initEiiE3$_5NS_9allocatorIS3_EEFvvEEC2B7v160006ERKS3_OS5_', symObjAddr: 0xABA8, symBinAddr: 0x10000E530, symSize: 0x5C }
  - { offsetInCU: 0x30D32, offset: 0x448B4, size: 0x8, addend: 0x0, symName: '__ZNSt3__117__compressed_pairIZN5Scene4initEiiE3$_5NS_9allocatorIS2_EEEC1B7v160006IJRKS2_EJOS4_EEENS_21piecewise_construct_tENS_5tupleIJDpT_EEENSB_IJDpT0_EEE', symObjAddr: 0xAC30, symBinAddr: 0x10000E5B8, symSize: 0x3C }
  - { offsetInCU: 0x30D9B, offset: 0x4491D, size: 0x8, addend: 0x0, symName: '__ZNSt3__15tupleIJRKZN5Scene4initEiiE3$_5EEC1B7v160006INS_4_AndELi0EEES4_', symObjAddr: 0xAC6C, symBinAddr: 0x10000E5F4, symSize: 0x34 }
  - { offsetInCU: 0x30DE4, offset: 0x44966, size: 0x8, addend: 0x0, symName: '__ZNSt3__15tupleIJRKZN5Scene4initEiiE3$_5EEC2B7v160006INS_4_AndELi0EEES4_', symObjAddr: 0xACA0, symBinAddr: 0x10000E628, symSize: 0x34 }
  - { offsetInCU: 0x30E2D, offset: 0x449AF, size: 0x8, addend: 0x0, symName: '__ZNSt3__112__tuple_implINS_15__tuple_indicesIJLm0EEEEJRKZN5Scene4initEiiE3$_5EEC1B7v160006IJLm0EEJS6_EJEJEJS6_EEENS1_IJXspT_EEEENS_13__tuple_typesIJDpT0_EEENS1_IJXspT1_EEEENSA_IJDpT2_EEEDpOT3_', symObjAddr: 0xACD4, symBinAddr: 0x10000E65C, symSize: 0x34 }
  - { offsetInCU: 0x30EC1, offset: 0x44A43, size: 0x8, addend: 0x0, symName: '__ZNSt3__112__tuple_implINS_15__tuple_indicesIJLm0EEEEJRKZN5Scene4initEiiE3$_5EEC2B7v160006IJLm0EEJS6_EJEJEJS6_EEENS1_IJXspT_EEEENS_13__tuple_typesIJDpT0_EEENS1_IJXspT1_EEEENSA_IJDpT2_EEEDpOT3_', symObjAddr: 0xAD08, symBinAddr: 0x10000E690, symSize: 0x34 }
  - { offsetInCU: 0x30F55, offset: 0x44AD7, size: 0x8, addend: 0x0, symName: '__ZNSt3__112__tuple_leafILm0ERKZN5Scene4initEiiE3$_5Lb0EEC2B7v160006IS4_vEEOT_', symObjAddr: 0xAD3C, symBinAddr: 0x10000E6C4, symSize: 0x20 }
  - { offsetInCU: 0x30F97, offset: 0x44B19, size: 0x8, addend: 0x0, symName: '__ZNSt3__117__compressed_pairIZN5Scene4initEiiE3$_5NS_9allocatorIS2_EEEC2B7v160006IJRKS2_EJOS4_EEENS_21piecewise_construct_tENS_5tupleIJDpT_EEENSB_IJDpT0_EEE', symObjAddr: 0xAD5C, symBinAddr: 0x10000E6E4, symSize: 0x54 }
  - { offsetInCU: 0x31000, offset: 0x44B82, size: 0x8, addend: 0x0, symName: '__ZNSt3__122__compressed_pair_elemIZN5Scene4initEiiE3$_5Li0ELb0EEC2B7v160006IJRKS2_EJLm0EEEENS_21piecewise_construct_tENS_5tupleIJDpT_EEENS_15__tuple_indicesIJXspT0_EEEE', symObjAddr: 0xADB0, symBinAddr: 0x10000E738, symSize: 0x44 }
  - { offsetInCU: 0x31064, offset: 0x44BE6, size: 0x8, addend: 0x0, symName: '__ZNSt3__112__tuple_leafILm0ERKZN5Scene4initEiiE3$_5Lb0EE3getB7v160006Ev', symObjAddr: 0xAE18, symBinAddr: 0x10000E7A0, symSize: 0x18 }
  - { offsetInCU: 0x31089, offset: 0x44C0B, size: 0x8, addend: 0x0, symName: '__ZNSt3__117__compressed_pairIPNS_10__function6__funcIZN5Scene4initEiiE3$_5NS_9allocatorIS4_EEFvvEEENS_22__allocator_destructorINS5_IS8_EEEEE5firstB7v160006Ev', symObjAddr: 0xAE30, symBinAddr: 0x10000E7B8, symSize: 0x24 }
  - { offsetInCU: 0x310AD, offset: 0x44C2F, size: 0x8, addend: 0x0, symName: '__ZNSt3__122__compressed_pair_elemIPNS_10__function6__funcIZN5Scene4initEiiE3$_5NS_9allocatorIS4_EEFvvEEELi0ELb0EE5__getB7v160006Ev', symObjAddr: 0xAE54, symBinAddr: 0x10000E7DC, symSize: 0x14 }
  - { offsetInCU: 0x310D2, offset: 0x44C54, size: 0x8, addend: 0x0, symName: '__ZNSt3__110unique_ptrINS_10__function6__funcIZN5Scene4initEiiE3$_5NS_9allocatorIS4_EEFvvEEENS_22__allocator_destructorINS5_IS8_EEEEED2B7v160006Ev', symObjAddr: 0xAE68, symBinAddr: 0x10000E7F0, symSize: 0x30 }
  - { offsetInCU: 0x310FB, offset: 0x44C7D, size: 0x8, addend: 0x0, symName: '__ZNSt3__110unique_ptrINS_10__function6__funcIZN5Scene4initEiiE3$_5NS_9allocatorIS4_EEFvvEEENS_22__allocator_destructorINS5_IS8_EEEEE5resetB7v160006EPS8_', symObjAddr: 0xAE98, symBinAddr: 0x10000E820, symSize: 0x78 }
  - { offsetInCU: 0x3113D, offset: 0x44CBF, size: 0x8, addend: 0x0, symName: '__ZNSt3__117__compressed_pairIPNS_10__function6__funcIZN5Scene4initEiiE3$_5NS_9allocatorIS4_EEFvvEEENS_22__allocator_destructorINS5_IS8_EEEEE6secondB7v160006Ev', symObjAddr: 0xAF10, symBinAddr: 0x10000E898, symSize: 0x28 }
  - { offsetInCU: 0x31161, offset: 0x44CE3, size: 0x8, addend: 0x0, symName: '__ZNSt3__122__allocator_destructorINS_9allocatorINS_10__function6__funcIZN5Scene4initEiiE3$_5NS1_IS5_EEFvvEEEEEEclB7v160006EPS8_', symObjAddr: 0xAF38, symBinAddr: 0x10000E8C0, symSize: 0x34 }
  - { offsetInCU: 0x31193, offset: 0x44D15, size: 0x8, addend: 0x0, symName: '__ZNSt3__122__compressed_pair_elemINS_22__allocator_destructorINS_9allocatorINS_10__function6__funcIZN5Scene4initEiiE3$_5NS2_IS6_EEFvvEEEEEEELi1ELb0EE5__getB7v160006Ev', symObjAddr: 0xAF6C, symBinAddr: 0x10000E8F4, symSize: 0x14 }
  - { offsetInCU: 0x311B8, offset: 0x44D3A, size: 0x8, addend: 0x0, symName: '__ZNSt3__116allocator_traitsINS_9allocatorINS_10__function6__funcIZN5Scene4initEiiE3$_5NS1_IS5_EEFvvEEEEEE10deallocateB7v160006ERS9_PS8_m', symObjAddr: 0xAF80, symBinAddr: 0x10000E908, symSize: 0x34 }
  - { offsetInCU: 0x311FA, offset: 0x44D7C, size: 0x8, addend: 0x0, symName: '__ZNSt3__19allocatorINS_10__function6__funcIZN5Scene4initEiiE3$_5NS0_IS4_EEFvvEEEE10deallocateB7v160006EPS7_m', symObjAddr: 0xAFB4, symBinAddr: 0x10000E93C, symSize: 0x40 }
  - { offsetInCU: 0x3123A, offset: 0x44DBC, size: 0x8, addend: 0x0, symName: '__ZNSt3__110__function6__funcIZN5Scene4initEiiE3$_5NS_9allocatorIS3_EEFvvEEC1B7v160006ERKS3_RKS5_', symObjAddr: 0xAFF4, symBinAddr: 0x10000E97C, symSize: 0x3C }
  - { offsetInCU: 0x31281, offset: 0x44E03, size: 0x8, addend: 0x0, symName: '__ZNSt3__110__function6__funcIZN5Scene4initEiiE3$_5NS_9allocatorIS3_EEFvvEEC2B7v160006ERKS3_RKS5_', symObjAddr: 0xB030, symBinAddr: 0x10000E9B8, symSize: 0x88 }
  - { offsetInCU: 0x312C8, offset: 0x44E4A, size: 0x8, addend: 0x0, symName: '__ZNSt3__110__function12__alloc_funcIZN5Scene4initEiiE3$_5NS_9allocatorIS3_EEFvvEEC1B7v160006ERKS3_RKS5_', symObjAddr: 0xB0B8, symBinAddr: 0x10000EA40, symSize: 0x3C }
  - { offsetInCU: 0x3130D, offset: 0x44E8F, size: 0x8, addend: 0x0, symName: '__ZNSt3__110__function12__alloc_funcIZN5Scene4initEiiE3$_5NS_9allocatorIS3_EEFvvEEC2B7v160006ERKS3_RKS5_', symObjAddr: 0xB0F4, symBinAddr: 0x10000EA7C, symSize: 0x5C }
  - { offsetInCU: 0x31352, offset: 0x44ED4, size: 0x8, addend: 0x0, symName: '__ZNSt3__117__compressed_pairIZN5Scene4initEiiE3$_5NS_9allocatorIS2_EEEC1B7v160006IJRKS2_EJRKS4_EEENS_21piecewise_construct_tENS_5tupleIJDpT_EEENSC_IJDpT0_EEE', symObjAddr: 0xB17C, symBinAddr: 0x10000EB04, symSize: 0x3C }
  - { offsetInCU: 0x313BB, offset: 0x44F3D, size: 0x8, addend: 0x0, symName: '__ZNSt3__15tupleIJRKNS_9allocatorIZN5Scene4initEiiE3$_5EEEEC1B7v160006INS_4_AndELi0EEES6_', symObjAddr: 0xB1B8, symBinAddr: 0x10000EB40, symSize: 0x34 }
  - { offsetInCU: 0x31404, offset: 0x44F86, size: 0x8, addend: 0x0, symName: '__ZNSt3__15tupleIJRKNS_9allocatorIZN5Scene4initEiiE3$_5EEEEC2B7v160006INS_4_AndELi0EEES6_', symObjAddr: 0xB1EC, symBinAddr: 0x10000EB74, symSize: 0x34 }
  - { offsetInCU: 0x3144D, offset: 0x44FCF, size: 0x8, addend: 0x0, symName: '__ZNSt3__112__tuple_implINS_15__tuple_indicesIJLm0EEEEJRKNS_9allocatorIZN5Scene4initEiiE3$_5EEEEC1B7v160006IJLm0EEJS8_EJEJEJS8_EEENS1_IJXspT_EEEENS_13__tuple_typesIJDpT0_EEENS1_IJXspT1_EEEENSC_IJDpT2_EEEDpOT3_', symObjAddr: 0xB220, symBinAddr: 0x10000EBA8, symSize: 0x34 }
  - { offsetInCU: 0x314E1, offset: 0x45063, size: 0x8, addend: 0x0, symName: '__ZNSt3__112__tuple_implINS_15__tuple_indicesIJLm0EEEEJRKNS_9allocatorIZN5Scene4initEiiE3$_5EEEEC2B7v160006IJLm0EEJS8_EJEJEJS8_EEENS1_IJXspT_EEEENS_13__tuple_typesIJDpT0_EEENS1_IJXspT1_EEEENSC_IJDpT2_EEEDpOT3_', symObjAddr: 0xB254, symBinAddr: 0x10000EBDC, symSize: 0x34 }
  - { offsetInCU: 0x31575, offset: 0x450F7, size: 0x8, addend: 0x0, symName: '__ZNSt3__112__tuple_leafILm0ERKNS_9allocatorIZN5Scene4initEiiE3$_5EELb0EEC2B7v160006IS6_vEEOT_', symObjAddr: 0xB288, symBinAddr: 0x10000EC10, symSize: 0x20 }
  - { offsetInCU: 0x315B7, offset: 0x45139, size: 0x8, addend: 0x0, symName: '__ZNSt3__117__compressed_pairIZN5Scene4initEiiE3$_5NS_9allocatorIS2_EEEC2B7v160006IJRKS2_EJRKS4_EEENS_21piecewise_construct_tENS_5tupleIJDpT_EEENSC_IJDpT0_EEE', symObjAddr: 0xB2A8, symBinAddr: 0x10000EC30, symSize: 0x54 }
  - { offsetInCU: 0x31620, offset: 0x451A2, size: 0x8, addend: 0x0, symName: '__ZNSt3__122__compressed_pair_elemINS_9allocatorIZN5Scene4initEiiE3$_5EELi1ELb1EEC2B7v160006IJRKS4_EJLm0EEEENS_21piecewise_construct_tENS_5tupleIJDpT_EEENS_15__tuple_indicesIJXspT0_EEEE', symObjAddr: 0xB2FC, symBinAddr: 0x10000EC84, symSize: 0x38 }
  - { offsetInCU: 0x31684, offset: 0x45206, size: 0x8, addend: 0x0, symName: '__ZNSt3__112__tuple_leafILm0ERKNS_9allocatorIZN5Scene4initEiiE3$_5EELb0EE3getB7v160006Ev', symObjAddr: 0xB358, symBinAddr: 0x10000ECE0, symSize: 0x18 }
  - { offsetInCU: 0x316A9, offset: 0x4522B, size: 0x8, addend: 0x0, symName: '__ZNSt3__110__function12__alloc_funcIZN5Scene4initEiiE3$_5NS_9allocatorIS3_EEFvvEE7destroyB7v160006Ev', symObjAddr: 0xB370, symBinAddr: 0x10000ECF8, symSize: 0x10 }
  - { offsetInCU: 0x316CE, offset: 0x45250, size: 0x8, addend: 0x0, symName: '__ZNSt3__110__function12__alloc_funcIZN5Scene4initEiiE3$_5NS_9allocatorIS3_EEFvvEEclB7v160006Ev', symObjAddr: 0xB380, symBinAddr: 0x10000ED08, symSize: 0x28 }
  - { offsetInCU: 0x316F2, offset: 0x45274, size: 0x8, addend: 0x0, symName: '__ZNSt3__128__invoke_void_return_wrapperIvLb1EE6__callIJRZN5Scene4initEiiE3$_5EEEvDpOT_', symObjAddr: 0xB3A8, symBinAddr: 0x10000ED30, symSize: 0x24 }
  - { offsetInCU: 0x31721, offset: 0x452A3, size: 0x8, addend: 0x0, symName: '__ZNSt3__117__compressed_pairIZN5Scene4initEiiE3$_5NS_9allocatorIS2_EEE5firstB7v160006Ev', symObjAddr: 0xB3CC, symBinAddr: 0x10000ED54, symSize: 0x24 }
  - { offsetInCU: 0x31745, offset: 0x452C7, size: 0x8, addend: 0x0, symName: '__ZZN5Scene4initEiiENK3$_5clEv', symObjAddr: 0xB414, symBinAddr: 0x10000ED9C, symSize: 0x98 }
  - { offsetInCU: 0x3179B, offset: 0x4531D, size: 0x8, addend: 0x0, symName: '__ZNSt3__122__compressed_pair_elemIZN5Scene4initEiiE3$_5Li0ELb0EE5__getB7v160006Ev', symObjAddr: 0xB4AC, symBinAddr: 0x10000EE34, symSize: 0x14 }
  - { offsetInCU: 0x317C0, offset: 0x45342, size: 0x8, addend: 0x0, symName: '__ZNSt3__18functionIFvvEEC2IZN5Scene4initEiiE3$_6vEET_', symObjAddr: 0xB4C0, symBinAddr: 0x10000EE48, symSize: 0x38 }
  - { offsetInCU: 0x31804, offset: 0x45386, size: 0x8, addend: 0x0, symName: '__ZNSt3__110__function12__value_funcIFvvEEC1B7v160006IZN5Scene4initEiiE3$_6vEEOT_', symObjAddr: 0xB4F8, symBinAddr: 0x10000EE80, symSize: 0x50 }
  - { offsetInCU: 0x31846, offset: 0x453C8, size: 0x8, addend: 0x0, symName: '__ZNSt3__19allocatorIZN5Scene4initEiiE3$_6EC1B7v160006Ev', symObjAddr: 0xB548, symBinAddr: 0x10000EED0, symSize: 0x2C }
  - { offsetInCU: 0x3186F, offset: 0x453F1, size: 0x8, addend: 0x0, symName: '__ZNSt3__110__function12__value_funcIFvvEEC1B7v160006IZN5Scene4initEiiE3$_6NS_9allocatorIS6_EEEEOT_RKT0_', symObjAddr: 0xB574, symBinAddr: 0x10000EEFC, symSize: 0x3C }
  - { offsetInCU: 0x318C8, offset: 0x4544A, size: 0x8, addend: 0x0, symName: '__ZNSt3__19allocatorIZN5Scene4initEiiE3$_6EC2B7v160006Ev', symObjAddr: 0xB5B0, symBinAddr: 0x10000EF38, symSize: 0x2C }
  - { offsetInCU: 0x318F1, offset: 0x45473, size: 0x8, addend: 0x0, symName: '__ZNSt3__116__non_trivial_ifILb1ENS_9allocatorIZN5Scene4initEiiE3$_6EEEC2B7v160006Ev', symObjAddr: 0xB5DC, symBinAddr: 0x10000EF64, symSize: 0x14 }
  - { offsetInCU: 0x3191A, offset: 0x4549C, size: 0x8, addend: 0x0, symName: '__ZNSt3__110__function12__value_funcIFvvEEC2B7v160006IZN5Scene4initEiiE3$_6NS_9allocatorIS6_EEEEOT_RKT0_', symObjAddr: 0xB5F0, symBinAddr: 0x10000EF78, symSize: 0x94 }
  - { offsetInCU: 0x319C0, offset: 0x45542, size: 0x8, addend: 0x0, symName: '__ZNSt3__19allocatorINS_10__function6__funcIZN5Scene4initEiiE3$_6NS0_IS4_EEFvvEEEEC1B7v160006IS4_EERKNS0_IT_EE', symObjAddr: 0xB69C, symBinAddr: 0x10000F024, symSize: 0x34 }
  - { offsetInCU: 0x31A02, offset: 0x45584, size: 0x8, addend: 0x0, symName: '__ZNSt3__19allocatorIZN5Scene4initEiiE3$_6EC1B7v160006INS_10__function6__funcIS2_S3_FvvEEEEERKNS0_IT_EE', symObjAddr: 0xB6D0, symBinAddr: 0x10000F058, symSize: 0x34 }
  - { offsetInCU: 0x31A3F, offset: 0x455C1, size: 0x8, addend: 0x0, symName: '__ZNSt3__110__function6__funcIZN5Scene4initEiiE3$_6NS_9allocatorIS3_EEFvvEEC1B7v160006EOS3_OS5_', symObjAddr: 0xB704, symBinAddr: 0x10000F08C, symSize: 0x3C }
  - { offsetInCU: 0x31A86, offset: 0x45608, size: 0x8, addend: 0x0, symName: '__ZNSt3__19allocatorINS_10__function6__funcIZN5Scene4initEiiE3$_6NS0_IS4_EEFvvEEEEC2B7v160006IS4_EERKNS0_IT_EE', symObjAddr: 0xB740, symBinAddr: 0x10000F0C8, symSize: 0x30 }
  - { offsetInCU: 0x31AC3, offset: 0x45645, size: 0x8, addend: 0x0, symName: '__ZNSt3__116__non_trivial_ifILb1ENS_9allocatorINS_10__function6__funcIZN5Scene4initEiiE3$_6NS1_IS5_EEFvvEEEEEEC2B7v160006Ev', symObjAddr: 0xB770, symBinAddr: 0x10000F0F8, symSize: 0x14 }
  - { offsetInCU: 0x31AEC, offset: 0x4566E, size: 0x8, addend: 0x0, symName: '__ZNSt3__19allocatorIZN5Scene4initEiiE3$_6EC2B7v160006INS_10__function6__funcIS2_S3_FvvEEEEERKNS0_IT_EE', symObjAddr: 0xB784, symBinAddr: 0x10000F10C, symSize: 0x30 }
  - { offsetInCU: 0x31B29, offset: 0x456AB, size: 0x8, addend: 0x0, symName: '__ZNSt3__110__function6__funcIZN5Scene4initEiiE3$_6NS_9allocatorIS3_EEFvvEEC2B7v160006EOS3_OS5_', symObjAddr: 0xB7B4, symBinAddr: 0x10000F13C, symSize: 0x88 }
  - { offsetInCU: 0x31B70, offset: 0x456F2, size: 0x8, addend: 0x0, symName: '__ZNSt3__110__function12__alloc_funcIZN5Scene4initEiiE3$_6NS_9allocatorIS3_EEFvvEEC1B7v160006EOS3_OS5_', symObjAddr: 0xB83C, symBinAddr: 0x10000F1C4, symSize: 0x3C }
  - { offsetInCU: 0x31BB5, offset: 0x45737, size: 0x8, addend: 0x0, symName: '__ZNSt3__110__function6__funcIZN5Scene4initEiiE3$_6NS_9allocatorIS3_EEFvvEED1Ev', symObjAddr: 0xB878, symBinAddr: 0x10000F200, symSize: 0x2C }
  - { offsetInCU: 0x31BE1, offset: 0x45763, size: 0x8, addend: 0x0, symName: '__ZNSt3__110__function6__funcIZN5Scene4initEiiE3$_6NS_9allocatorIS3_EEFvvEED0Ev', symObjAddr: 0xB8A4, symBinAddr: 0x10000F22C, symSize: 0x30 }
  - { offsetInCU: 0x31C0D, offset: 0x4578F, size: 0x8, addend: 0x0, symName: '__ZNKSt3__110__function6__funcIZN5Scene4initEiiE3$_6NS_9allocatorIS3_EEFvvEE7__cloneEv', symObjAddr: 0xB8D4, symBinAddr: 0x10000F25C, symSize: 0xFC }
  - { offsetInCU: 0x31C5E, offset: 0x457E0, size: 0x8, addend: 0x0, symName: '__ZNKSt3__110__function6__funcIZN5Scene4initEiiE3$_6NS_9allocatorIS3_EEFvvEE7__cloneEPNS0_6__baseIS6_EE', symObjAddr: 0xB9D0, symBinAddr: 0x10000F358, symSize: 0x58 }
  - { offsetInCU: 0x31C94, offset: 0x45816, size: 0x8, addend: 0x0, symName: '__ZNSt3__110__function6__funcIZN5Scene4initEiiE3$_6NS_9allocatorIS3_EEFvvEE7destroyEv', symObjAddr: 0xBA28, symBinAddr: 0x10000F3B0, symSize: 0x28 }
  - { offsetInCU: 0x31CBB, offset: 0x4583D, size: 0x8, addend: 0x0, symName: '__ZNSt3__110__function6__funcIZN5Scene4initEiiE3$_6NS_9allocatorIS3_EEFvvEE18destroy_deallocateEv', symObjAddr: 0xBA50, symBinAddr: 0x10000F3D8, symSize: 0x58 }
  - { offsetInCU: 0x31CFD, offset: 0x4587F, size: 0x8, addend: 0x0, symName: '__ZNSt3__110__function6__funcIZN5Scene4initEiiE3$_6NS_9allocatorIS3_EEFvvEEclEv', symObjAddr: 0xBAA8, symBinAddr: 0x10000F430, symSize: 0x28 }
  - { offsetInCU: 0x31D24, offset: 0x458A6, size: 0x8, addend: 0x0, symName: '__ZNKSt3__110__function6__funcIZN5Scene4initEiiE3$_6NS_9allocatorIS3_EEFvvEE6targetERKSt9type_info', symObjAddr: 0xBAD0, symBinAddr: 0x10000F458, symSize: 0x60 }
  - { offsetInCU: 0x31D5A, offset: 0x458DC, size: 0x8, addend: 0x0, symName: '__ZNKSt3__110__function6__funcIZN5Scene4initEiiE3$_6NS_9allocatorIS3_EEFvvEE11target_typeEv', symObjAddr: 0xBB30, symBinAddr: 0x10000F4B8, symSize: 0x18 }
  - { offsetInCU: 0x31D81, offset: 0x45903, size: 0x8, addend: 0x0, symName: '__ZNSt3__110__function12__alloc_funcIZN5Scene4initEiiE3$_6NS_9allocatorIS3_EEFvvEEC2B7v160006EOS3_OS5_', symObjAddr: 0xBB48, symBinAddr: 0x10000F4D0, symSize: 0x5C }
  - { offsetInCU: 0x31DC6, offset: 0x45948, size: 0x8, addend: 0x0, symName: '__ZNSt3__117__compressed_pairIZN5Scene4initEiiE3$_6NS_9allocatorIS2_EEEC1B7v160006IJOS2_EJOS4_EEENS_21piecewise_construct_tENS_5tupleIJDpT_EEENSA_IJDpT0_EEE', symObjAddr: 0xBBFC, symBinAddr: 0x10000F584, symSize: 0x3C }
  - { offsetInCU: 0x31E2F, offset: 0x459B1, size: 0x8, addend: 0x0, symName: '__ZNSt3__15tupleIJOZN5Scene4initEiiE3$_6EEC1B7v160006IJS2_ELi0EEEDpOT_', symObjAddr: 0xBC38, symBinAddr: 0x10000F5C0, symSize: 0x34 }
  - { offsetInCU: 0x31E79, offset: 0x459FB, size: 0x8, addend: 0x0, symName: '__ZNSt3__15tupleIJOZN5Scene4initEiiE3$_6EEC2B7v160006IJS2_ELi0EEEDpOT_', symObjAddr: 0xBC6C, symBinAddr: 0x10000F5F4, symSize: 0x34 }
  - { offsetInCU: 0x31EC3, offset: 0x45A45, size: 0x8, addend: 0x0, symName: '__ZNSt3__112__tuple_implINS_15__tuple_indicesIJLm0EEEEJOZN5Scene4initEiiE3$_6EEC1B7v160006IJLm0EEJS5_EJEJEJS4_EEENS1_IJXspT_EEEENS_13__tuple_typesIJDpT0_EEENS1_IJXspT1_EEEENS9_IJDpT2_EEEDpOT3_', symObjAddr: 0xBCA0, symBinAddr: 0x10000F628, symSize: 0x34 }
  - { offsetInCU: 0x31F57, offset: 0x45AD9, size: 0x8, addend: 0x0, symName: '__ZNSt3__112__tuple_implINS_15__tuple_indicesIJLm0EEEEJOZN5Scene4initEiiE3$_6EEC2B7v160006IJLm0EEJS5_EJEJEJS4_EEENS1_IJXspT_EEEENS_13__tuple_typesIJDpT0_EEENS1_IJXspT1_EEEENS9_IJDpT2_EEEDpOT3_', symObjAddr: 0xBCD4, symBinAddr: 0x10000F65C, symSize: 0x34 }
  - { offsetInCU: 0x31FEB, offset: 0x45B6D, size: 0x8, addend: 0x0, symName: '__ZNSt3__112__tuple_leafILm0EOZN5Scene4initEiiE3$_6Lb0EEC2B7v160006IS2_vEEOT_', symObjAddr: 0xBD08, symBinAddr: 0x10000F690, symSize: 0x20 }
  - { offsetInCU: 0x3202D, offset: 0x45BAF, size: 0x8, addend: 0x0, symName: '__ZNSt3__15tupleIJONS_9allocatorIZN5Scene4initEiiE3$_6EEEEC1B7v160006IJS4_ELi0EEEDpOT_', symObjAddr: 0xBD28, symBinAddr: 0x10000F6B0, symSize: 0x34 }
  - { offsetInCU: 0x32077, offset: 0x45BF9, size: 0x8, addend: 0x0, symName: '__ZNSt3__15tupleIJONS_9allocatorIZN5Scene4initEiiE3$_6EEEEC2B7v160006IJS4_ELi0EEEDpOT_', symObjAddr: 0xBD5C, symBinAddr: 0x10000F6E4, symSize: 0x34 }
  - { offsetInCU: 0x320C1, offset: 0x45C43, size: 0x8, addend: 0x0, symName: '__ZNSt3__112__tuple_implINS_15__tuple_indicesIJLm0EEEEJONS_9allocatorIZN5Scene4initEiiE3$_6EEEEC1B7v160006IJLm0EEJS7_EJEJEJS6_EEENS1_IJXspT_EEEENS_13__tuple_typesIJDpT0_EEENS1_IJXspT1_EEEENSB_IJDpT2_EEEDpOT3_', symObjAddr: 0xBD90, symBinAddr: 0x10000F718, symSize: 0x34 }
  - { offsetInCU: 0x32155, offset: 0x45CD7, size: 0x8, addend: 0x0, symName: '__ZNSt3__112__tuple_implINS_15__tuple_indicesIJLm0EEEEJONS_9allocatorIZN5Scene4initEiiE3$_6EEEEC2B7v160006IJLm0EEJS7_EJEJEJS6_EEENS1_IJXspT_EEEENS_13__tuple_typesIJDpT0_EEENS1_IJXspT1_EEEENSB_IJDpT2_EEEDpOT3_', symObjAddr: 0xBDC4, symBinAddr: 0x10000F74C, symSize: 0x34 }
  - { offsetInCU: 0x321E9, offset: 0x45D6B, size: 0x8, addend: 0x0, symName: '__ZNSt3__112__tuple_leafILm0EONS_9allocatorIZN5Scene4initEiiE3$_6EELb0EEC2B7v160006IS4_vEEOT_', symObjAddr: 0xBDF8, symBinAddr: 0x10000F780, symSize: 0x20 }
  - { offsetInCU: 0x3222B, offset: 0x45DAD, size: 0x8, addend: 0x0, symName: '__ZNSt3__117__compressed_pairIZN5Scene4initEiiE3$_6NS_9allocatorIS2_EEEC2B7v160006IJOS2_EJOS4_EEENS_21piecewise_construct_tENS_5tupleIJDpT_EEENSA_IJDpT0_EEE', symObjAddr: 0xBE18, symBinAddr: 0x10000F7A0, symSize: 0x54 }
  - { offsetInCU: 0x32294, offset: 0x45E16, size: 0x8, addend: 0x0, symName: '__ZNSt3__122__compressed_pair_elemIZN5Scene4initEiiE3$_6Li0ELb0EEC2B7v160006IJOS2_EJLm0EEEENS_21piecewise_construct_tENS_5tupleIJDpT_EEENS_15__tuple_indicesIJXspT0_EEEE', symObjAddr: 0xBE6C, symBinAddr: 0x10000F7F4, symSize: 0x44 }
  - { offsetInCU: 0x322F8, offset: 0x45E7A, size: 0x8, addend: 0x0, symName: '__ZNSt3__122__compressed_pair_elemINS_9allocatorIZN5Scene4initEiiE3$_6EELi1ELb1EEC2B7v160006IJOS4_EJLm0EEEENS_21piecewise_construct_tENS_5tupleIJDpT_EEENS_15__tuple_indicesIJXspT0_EEEE', symObjAddr: 0xBEB0, symBinAddr: 0x10000F838, symSize: 0x38 }
  - { offsetInCU: 0x3235C, offset: 0x45EDE, size: 0x8, addend: 0x0, symName: '__ZNSt3__112__tuple_leafILm0EOZN5Scene4initEiiE3$_6Lb0EE3getB7v160006Ev', symObjAddr: 0xBF0C, symBinAddr: 0x10000F894, symSize: 0x18 }
  - { offsetInCU: 0x32381, offset: 0x45F03, size: 0x8, addend: 0x0, symName: '__ZNSt3__112__tuple_leafILm0EONS_9allocatorIZN5Scene4initEiiE3$_6EELb0EE3getB7v160006Ev', symObjAddr: 0xBF48, symBinAddr: 0x10000F8D0, symSize: 0x18 }
  - { offsetInCU: 0x323A6, offset: 0x45F28, size: 0x8, addend: 0x0, symName: '__ZNSt3__110__function6__funcIZN5Scene4initEiiE3$_6NS_9allocatorIS3_EEFvvEED2Ev', symObjAddr: 0xBF60, symBinAddr: 0x10000F8E8, symSize: 0x2C }
  - { offsetInCU: 0x323D2, offset: 0x45F54, size: 0x8, addend: 0x0, symName: '__ZNKSt3__110__function12__alloc_funcIZN5Scene4initEiiE3$_6NS_9allocatorIS3_EEFvvEE15__get_allocatorB7v160006Ev', symObjAddr: 0xBF8C, symBinAddr: 0x10000F914, symSize: 0x24 }
  - { offsetInCU: 0x323F6, offset: 0x45F78, size: 0x8, addend: 0x0, symName: '__ZNSt3__19allocatorINS_10__function6__funcIZN5Scene4initEiiE3$_6NS0_IS4_EEFvvEEEE8allocateB7v160006Em', symObjAddr: 0xBFB0, symBinAddr: 0x10000F938, symSize: 0x58 }
  - { offsetInCU: 0x32437, offset: 0x45FB9, size: 0x8, addend: 0x0, symName: '__ZNSt3__122__allocator_destructorINS_9allocatorINS_10__function6__funcIZN5Scene4initEiiE3$_6NS1_IS5_EEFvvEEEEEEC1B7v160006ERS9_m', symObjAddr: 0xC008, symBinAddr: 0x10000F990, symSize: 0x3C }
  - { offsetInCU: 0x32508, offset: 0x4608A, size: 0x8, addend: 0x0, symName: '__ZNSt3__110unique_ptrINS_10__function6__funcIZN5Scene4initEiiE3$_6NS_9allocatorIS4_EEFvvEEENS_22__allocator_destructorINS5_IS8_EEEEEC1B7v160006ILb1EvEEPS8_NS_16__dependent_typeINS_27__unique_ptr_deleter_sfinaeISB_EEXT_EE20__good_rval_ref_typeE', symObjAddr: 0xC044, symBinAddr: 0x10000F9CC, symSize: 0x3C }
  - { offsetInCU: 0x32558, offset: 0x460DA, size: 0x8, addend: 0x0, symName: '__ZNKSt3__110unique_ptrINS_10__function6__funcIZN5Scene4initEiiE3$_6NS_9allocatorIS4_EEFvvEEENS_22__allocator_destructorINS5_IS8_EEEEE3getB7v160006Ev', symObjAddr: 0xC080, symBinAddr: 0x10000FA08, symSize: 0x28 }
  - { offsetInCU: 0x3257C, offset: 0x460FE, size: 0x8, addend: 0x0, symName: '__ZNKSt3__110__function12__alloc_funcIZN5Scene4initEiiE3$_6NS_9allocatorIS3_EEFvvEE8__targetB7v160006Ev', symObjAddr: 0xC0A8, symBinAddr: 0x10000FA30, symSize: 0x24 }
  - { offsetInCU: 0x325A0, offset: 0x46122, size: 0x8, addend: 0x0, symName: '__ZNSt3__110__function6__funcIZN5Scene4initEiiE3$_6NS_9allocatorIS3_EEFvvEEC1B7v160006ERKS3_OS5_', symObjAddr: 0xC0CC, symBinAddr: 0x10000FA54, symSize: 0x3C }
  - { offsetInCU: 0x325E7, offset: 0x46169, size: 0x8, addend: 0x0, symName: '__ZNSt3__110unique_ptrINS_10__function6__funcIZN5Scene4initEiiE3$_6NS_9allocatorIS4_EEFvvEEENS_22__allocator_destructorINS5_IS8_EEEEE7releaseB7v160006Ev', symObjAddr: 0xC108, symBinAddr: 0x10000FA90, symSize: 0x44 }
  - { offsetInCU: 0x3261A, offset: 0x4619C, size: 0x8, addend: 0x0, symName: '__ZNSt3__110unique_ptrINS_10__function6__funcIZN5Scene4initEiiE3$_6NS_9allocatorIS4_EEFvvEEENS_22__allocator_destructorINS5_IS8_EEEEED1B7v160006Ev', symObjAddr: 0xC14C, symBinAddr: 0x10000FAD4, symSize: 0x2C }
  - { offsetInCU: 0x32643, offset: 0x461C5, size: 0x8, addend: 0x0, symName: '__ZNKSt3__117__compressed_pairIZN5Scene4initEiiE3$_6NS_9allocatorIS2_EEE6secondB7v160006Ev', symObjAddr: 0xC178, symBinAddr: 0x10000FB00, symSize: 0x24 }
  - { offsetInCU: 0x32667, offset: 0x461E9, size: 0x8, addend: 0x0, symName: '__ZNKSt3__122__compressed_pair_elemINS_9allocatorIZN5Scene4initEiiE3$_6EELi1ELb1EE5__getB7v160006Ev', symObjAddr: 0xC19C, symBinAddr: 0x10000FB24, symSize: 0x14 }
  - { offsetInCU: 0x32696, offset: 0x46218, size: 0x8, addend: 0x0, symName: '__ZNSt3__116allocator_traitsINS_9allocatorINS_10__function6__funcIZN5Scene4initEiiE3$_6NS1_IS5_EEFvvEEEEEE8max_sizeB7v160006IS9_vEEmRKS9_', symObjAddr: 0xC1B0, symBinAddr: 0x10000FB38, symSize: 0x24 }
  - { offsetInCU: 0x326C4, offset: 0x46246, size: 0x8, addend: 0x0, symName: '__ZNKSt3__19allocatorINS_10__function6__funcIZN5Scene4initEiiE3$_6NS0_IS4_EEFvvEEEE8max_sizeB7v160006Ev', symObjAddr: 0xC1D4, symBinAddr: 0x10000FB5C, symSize: 0x14 }
  - { offsetInCU: 0x326E9, offset: 0x4626B, size: 0x8, addend: 0x0, symName: '__ZNSt3__122__allocator_destructorINS_9allocatorINS_10__function6__funcIZN5Scene4initEiiE3$_6NS1_IS5_EEFvvEEEEEEC2B7v160006ERS9_m', symObjAddr: 0xC1E8, symBinAddr: 0x10000FB70, symSize: 0x2C }
  - { offsetInCU: 0x3272E, offset: 0x462B0, size: 0x8, addend: 0x0, symName: '__ZNSt3__110unique_ptrINS_10__function6__funcIZN5Scene4initEiiE3$_6NS_9allocatorIS4_EEFvvEEENS_22__allocator_destructorINS5_IS8_EEEEEC2B7v160006ILb1EvEEPS8_NS_16__dependent_typeINS_27__unique_ptr_deleter_sfinaeISB_EEXT_EE20__good_rval_ref_typeE', symObjAddr: 0xC214, symBinAddr: 0x10000FB9C, symSize: 0x48 }
  - { offsetInCU: 0x3277E, offset: 0x46300, size: 0x8, addend: 0x0, symName: '__ZNSt3__117__compressed_pairIPNS_10__function6__funcIZN5Scene4initEiiE3$_6NS_9allocatorIS4_EEFvvEEENS_22__allocator_destructorINS5_IS8_EEEEEC1B7v160006IRS9_SC_EEOT_OT0_', symObjAddr: 0xC25C, symBinAddr: 0x10000FBE4, symSize: 0x3C }
  - { offsetInCU: 0x327D5, offset: 0x46357, size: 0x8, addend: 0x0, symName: '__ZNSt3__117__compressed_pairIPNS_10__function6__funcIZN5Scene4initEiiE3$_6NS_9allocatorIS4_EEFvvEEENS_22__allocator_destructorINS5_IS8_EEEEEC2B7v160006IRS9_SC_EEOT_OT0_', symObjAddr: 0xC298, symBinAddr: 0x10000FC20, symSize: 0x48 }
  - { offsetInCU: 0x3282C, offset: 0x463AE, size: 0x8, addend: 0x0, symName: '__ZNSt3__122__compressed_pair_elemIPNS_10__function6__funcIZN5Scene4initEiiE3$_6NS_9allocatorIS4_EEFvvEEELi0ELb0EEC2B7v160006IRS9_vEEOT_', symObjAddr: 0xC2E0, symBinAddr: 0x10000FC68, symSize: 0x24 }
  - { offsetInCU: 0x3286D, offset: 0x463EF, size: 0x8, addend: 0x0, symName: '__ZNSt3__122__compressed_pair_elemINS_22__allocator_destructorINS_9allocatorINS_10__function6__funcIZN5Scene4initEiiE3$_6NS2_IS6_EEFvvEEEEEEELi1ELb0EEC2B7v160006ISB_vEEOT_', symObjAddr: 0xC304, symBinAddr: 0x10000FC8C, symSize: 0x24 }
  - { offsetInCU: 0x328AE, offset: 0x46430, size: 0x8, addend: 0x0, symName: '__ZNKSt3__117__compressed_pairIPNS_10__function6__funcIZN5Scene4initEiiE3$_6NS_9allocatorIS4_EEFvvEEENS_22__allocator_destructorINS5_IS8_EEEEE5firstB7v160006Ev', symObjAddr: 0xC328, symBinAddr: 0x10000FCB0, symSize: 0x24 }
  - { offsetInCU: 0x328D2, offset: 0x46454, size: 0x8, addend: 0x0, symName: '__ZNKSt3__122__compressed_pair_elemIPNS_10__function6__funcIZN5Scene4initEiiE3$_6NS_9allocatorIS4_EEFvvEEELi0ELb0EE5__getB7v160006Ev', symObjAddr: 0xC34C, symBinAddr: 0x10000FCD4, symSize: 0x14 }
  - { offsetInCU: 0x328F7, offset: 0x46479, size: 0x8, addend: 0x0, symName: '__ZNKSt3__117__compressed_pairIZN5Scene4initEiiE3$_6NS_9allocatorIS2_EEE5firstB7v160006Ev', symObjAddr: 0xC360, symBinAddr: 0x10000FCE8, symSize: 0x24 }
  - { offsetInCU: 0x3291B, offset: 0x4649D, size: 0x8, addend: 0x0, symName: '__ZNKSt3__122__compressed_pair_elemIZN5Scene4initEiiE3$_6Li0ELb0EE5__getB7v160006Ev', symObjAddr: 0xC384, symBinAddr: 0x10000FD0C, symSize: 0x14 }
  - { offsetInCU: 0x32940, offset: 0x464C2, size: 0x8, addend: 0x0, symName: '__ZNSt3__110__function6__funcIZN5Scene4initEiiE3$_6NS_9allocatorIS3_EEFvvEEC2B7v160006ERKS3_OS5_', symObjAddr: 0xC398, symBinAddr: 0x10000FD20, symSize: 0x88 }
  - { offsetInCU: 0x32987, offset: 0x46509, size: 0x8, addend: 0x0, symName: '__ZNSt3__110__function12__alloc_funcIZN5Scene4initEiiE3$_6NS_9allocatorIS3_EEFvvEEC1B7v160006ERKS3_OS5_', symObjAddr: 0xC420, symBinAddr: 0x10000FDA8, symSize: 0x3C }
  - { offsetInCU: 0x329CC, offset: 0x4654E, size: 0x8, addend: 0x0, symName: '__ZNSt3__110__function12__alloc_funcIZN5Scene4initEiiE3$_6NS_9allocatorIS3_EEFvvEEC2B7v160006ERKS3_OS5_', symObjAddr: 0xC45C, symBinAddr: 0x10000FDE4, symSize: 0x5C }
  - { offsetInCU: 0x32A11, offset: 0x46593, size: 0x8, addend: 0x0, symName: '__ZNSt3__117__compressed_pairIZN5Scene4initEiiE3$_6NS_9allocatorIS2_EEEC1B7v160006IJRKS2_EJOS4_EEENS_21piecewise_construct_tENS_5tupleIJDpT_EEENSB_IJDpT0_EEE', symObjAddr: 0xC4E4, symBinAddr: 0x10000FE6C, symSize: 0x3C }
  - { offsetInCU: 0x32A7A, offset: 0x465FC, size: 0x8, addend: 0x0, symName: '__ZNSt3__15tupleIJRKZN5Scene4initEiiE3$_6EEC1B7v160006INS_4_AndELi0EEES4_', symObjAddr: 0xC520, symBinAddr: 0x10000FEA8, symSize: 0x34 }
  - { offsetInCU: 0x32AC3, offset: 0x46645, size: 0x8, addend: 0x0, symName: '__ZNSt3__15tupleIJRKZN5Scene4initEiiE3$_6EEC2B7v160006INS_4_AndELi0EEES4_', symObjAddr: 0xC554, symBinAddr: 0x10000FEDC, symSize: 0x34 }
  - { offsetInCU: 0x32B0C, offset: 0x4668E, size: 0x8, addend: 0x0, symName: '__ZNSt3__112__tuple_implINS_15__tuple_indicesIJLm0EEEEJRKZN5Scene4initEiiE3$_6EEC1B7v160006IJLm0EEJS6_EJEJEJS6_EEENS1_IJXspT_EEEENS_13__tuple_typesIJDpT0_EEENS1_IJXspT1_EEEENSA_IJDpT2_EEEDpOT3_', symObjAddr: 0xC588, symBinAddr: 0x10000FF10, symSize: 0x34 }
  - { offsetInCU: 0x32BA0, offset: 0x46722, size: 0x8, addend: 0x0, symName: '__ZNSt3__112__tuple_implINS_15__tuple_indicesIJLm0EEEEJRKZN5Scene4initEiiE3$_6EEC2B7v160006IJLm0EEJS6_EJEJEJS6_EEENS1_IJXspT_EEEENS_13__tuple_typesIJDpT0_EEENS1_IJXspT1_EEEENSA_IJDpT2_EEEDpOT3_', symObjAddr: 0xC5BC, symBinAddr: 0x10000FF44, symSize: 0x34 }
  - { offsetInCU: 0x32C34, offset: 0x467B6, size: 0x8, addend: 0x0, symName: '__ZNSt3__112__tuple_leafILm0ERKZN5Scene4initEiiE3$_6Lb0EEC2B7v160006IS4_vEEOT_', symObjAddr: 0xC5F0, symBinAddr: 0x10000FF78, symSize: 0x20 }
  - { offsetInCU: 0x32C76, offset: 0x467F8, size: 0x8, addend: 0x0, symName: '__ZNSt3__117__compressed_pairIZN5Scene4initEiiE3$_6NS_9allocatorIS2_EEEC2B7v160006IJRKS2_EJOS4_EEENS_21piecewise_construct_tENS_5tupleIJDpT_EEENSB_IJDpT0_EEE', symObjAddr: 0xC610, symBinAddr: 0x10000FF98, symSize: 0x54 }
  - { offsetInCU: 0x32CDF, offset: 0x46861, size: 0x8, addend: 0x0, symName: '__ZNSt3__122__compressed_pair_elemIZN5Scene4initEiiE3$_6Li0ELb0EEC2B7v160006IJRKS2_EJLm0EEEENS_21piecewise_construct_tENS_5tupleIJDpT_EEENS_15__tuple_indicesIJXspT0_EEEE', symObjAddr: 0xC664, symBinAddr: 0x10000FFEC, symSize: 0x44 }
  - { offsetInCU: 0x32D43, offset: 0x468C5, size: 0x8, addend: 0x0, symName: '__ZNSt3__112__tuple_leafILm0ERKZN5Scene4initEiiE3$_6Lb0EE3getB7v160006Ev', symObjAddr: 0xC6CC, symBinAddr: 0x100010054, symSize: 0x18 }
  - { offsetInCU: 0x32D68, offset: 0x468EA, size: 0x8, addend: 0x0, symName: '__ZNSt3__117__compressed_pairIPNS_10__function6__funcIZN5Scene4initEiiE3$_6NS_9allocatorIS4_EEFvvEEENS_22__allocator_destructorINS5_IS8_EEEEE5firstB7v160006Ev', symObjAddr: 0xC6E4, symBinAddr: 0x10001006C, symSize: 0x24 }
  - { offsetInCU: 0x32D8C, offset: 0x4690E, size: 0x8, addend: 0x0, symName: '__ZNSt3__122__compressed_pair_elemIPNS_10__function6__funcIZN5Scene4initEiiE3$_6NS_9allocatorIS4_EEFvvEEELi0ELb0EE5__getB7v160006Ev', symObjAddr: 0xC708, symBinAddr: 0x100010090, symSize: 0x14 }
  - { offsetInCU: 0x32DB1, offset: 0x46933, size: 0x8, addend: 0x0, symName: '__ZNSt3__110unique_ptrINS_10__function6__funcIZN5Scene4initEiiE3$_6NS_9allocatorIS4_EEFvvEEENS_22__allocator_destructorINS5_IS8_EEEEED2B7v160006Ev', symObjAddr: 0xC71C, symBinAddr: 0x1000100A4, symSize: 0x30 }
  - { offsetInCU: 0x32DDA, offset: 0x4695C, size: 0x8, addend: 0x0, symName: '__ZNSt3__110unique_ptrINS_10__function6__funcIZN5Scene4initEiiE3$_6NS_9allocatorIS4_EEFvvEEENS_22__allocator_destructorINS5_IS8_EEEEE5resetB7v160006EPS8_', symObjAddr: 0xC74C, symBinAddr: 0x1000100D4, symSize: 0x78 }
  - { offsetInCU: 0x32E1C, offset: 0x4699E, size: 0x8, addend: 0x0, symName: '__ZNSt3__117__compressed_pairIPNS_10__function6__funcIZN5Scene4initEiiE3$_6NS_9allocatorIS4_EEFvvEEENS_22__allocator_destructorINS5_IS8_EEEEE6secondB7v160006Ev', symObjAddr: 0xC7C4, symBinAddr: 0x10001014C, symSize: 0x28 }
  - { offsetInCU: 0x32E40, offset: 0x469C2, size: 0x8, addend: 0x0, symName: '__ZNSt3__122__allocator_destructorINS_9allocatorINS_10__function6__funcIZN5Scene4initEiiE3$_6NS1_IS5_EEFvvEEEEEEclB7v160006EPS8_', symObjAddr: 0xC7EC, symBinAddr: 0x100010174, symSize: 0x34 }
  - { offsetInCU: 0x32E72, offset: 0x469F4, size: 0x8, addend: 0x0, symName: '__ZNSt3__122__compressed_pair_elemINS_22__allocator_destructorINS_9allocatorINS_10__function6__funcIZN5Scene4initEiiE3$_6NS2_IS6_EEFvvEEEEEEELi1ELb0EE5__getB7v160006Ev', symObjAddr: 0xC820, symBinAddr: 0x1000101A8, symSize: 0x14 }
  - { offsetInCU: 0x32E97, offset: 0x46A19, size: 0x8, addend: 0x0, symName: '__ZNSt3__116allocator_traitsINS_9allocatorINS_10__function6__funcIZN5Scene4initEiiE3$_6NS1_IS5_EEFvvEEEEEE10deallocateB7v160006ERS9_PS8_m', symObjAddr: 0xC834, symBinAddr: 0x1000101BC, symSize: 0x34 }
  - { offsetInCU: 0x32ED9, offset: 0x46A5B, size: 0x8, addend: 0x0, symName: '__ZNSt3__19allocatorINS_10__function6__funcIZN5Scene4initEiiE3$_6NS0_IS4_EEFvvEEEE10deallocateB7v160006EPS7_m', symObjAddr: 0xC868, symBinAddr: 0x1000101F0, symSize: 0x40 }
  - { offsetInCU: 0x32F19, offset: 0x46A9B, size: 0x8, addend: 0x0, symName: '__ZNSt3__110__function6__funcIZN5Scene4initEiiE3$_6NS_9allocatorIS3_EEFvvEEC1B7v160006ERKS3_RKS5_', symObjAddr: 0xC8A8, symBinAddr: 0x100010230, symSize: 0x3C }
  - { offsetInCU: 0x32F60, offset: 0x46AE2, size: 0x8, addend: 0x0, symName: '__ZNSt3__110__function6__funcIZN5Scene4initEiiE3$_6NS_9allocatorIS3_EEFvvEEC2B7v160006ERKS3_RKS5_', symObjAddr: 0xC8E4, symBinAddr: 0x10001026C, symSize: 0x88 }
  - { offsetInCU: 0x32FA7, offset: 0x46B29, size: 0x8, addend: 0x0, symName: '__ZNSt3__110__function12__alloc_funcIZN5Scene4initEiiE3$_6NS_9allocatorIS3_EEFvvEEC1B7v160006ERKS3_RKS5_', symObjAddr: 0xC96C, symBinAddr: 0x1000102F4, symSize: 0x3C }
  - { offsetInCU: 0x32FEC, offset: 0x46B6E, size: 0x8, addend: 0x0, symName: '__ZNSt3__110__function12__alloc_funcIZN5Scene4initEiiE3$_6NS_9allocatorIS3_EEFvvEEC2B7v160006ERKS3_RKS5_', symObjAddr: 0xC9A8, symBinAddr: 0x100010330, symSize: 0x5C }
  - { offsetInCU: 0x33031, offset: 0x46BB3, size: 0x8, addend: 0x0, symName: '__ZNSt3__117__compressed_pairIZN5Scene4initEiiE3$_6NS_9allocatorIS2_EEEC1B7v160006IJRKS2_EJRKS4_EEENS_21piecewise_construct_tENS_5tupleIJDpT_EEENSC_IJDpT0_EEE', symObjAddr: 0xCA30, symBinAddr: 0x1000103B8, symSize: 0x3C }
  - { offsetInCU: 0x3309A, offset: 0x46C1C, size: 0x8, addend: 0x0, symName: '__ZNSt3__15tupleIJRKNS_9allocatorIZN5Scene4initEiiE3$_6EEEEC1B7v160006INS_4_AndELi0EEES6_', symObjAddr: 0xCA6C, symBinAddr: 0x1000103F4, symSize: 0x34 }
  - { offsetInCU: 0x330E3, offset: 0x46C65, size: 0x8, addend: 0x0, symName: '__ZNSt3__15tupleIJRKNS_9allocatorIZN5Scene4initEiiE3$_6EEEEC2B7v160006INS_4_AndELi0EEES6_', symObjAddr: 0xCAA0, symBinAddr: 0x100010428, symSize: 0x34 }
  - { offsetInCU: 0x3312C, offset: 0x46CAE, size: 0x8, addend: 0x0, symName: '__ZNSt3__112__tuple_implINS_15__tuple_indicesIJLm0EEEEJRKNS_9allocatorIZN5Scene4initEiiE3$_6EEEEC1B7v160006IJLm0EEJS8_EJEJEJS8_EEENS1_IJXspT_EEEENS_13__tuple_typesIJDpT0_EEENS1_IJXspT1_EEEENSC_IJDpT2_EEEDpOT3_', symObjAddr: 0xCAD4, symBinAddr: 0x10001045C, symSize: 0x34 }
  - { offsetInCU: 0x331C0, offset: 0x46D42, size: 0x8, addend: 0x0, symName: '__ZNSt3__112__tuple_implINS_15__tuple_indicesIJLm0EEEEJRKNS_9allocatorIZN5Scene4initEiiE3$_6EEEEC2B7v160006IJLm0EEJS8_EJEJEJS8_EEENS1_IJXspT_EEEENS_13__tuple_typesIJDpT0_EEENS1_IJXspT1_EEEENSC_IJDpT2_EEEDpOT3_', symObjAddr: 0xCB08, symBinAddr: 0x100010490, symSize: 0x34 }
  - { offsetInCU: 0x33254, offset: 0x46DD6, size: 0x8, addend: 0x0, symName: '__ZNSt3__112__tuple_leafILm0ERKNS_9allocatorIZN5Scene4initEiiE3$_6EELb0EEC2B7v160006IS6_vEEOT_', symObjAddr: 0xCB3C, symBinAddr: 0x1000104C4, symSize: 0x20 }
  - { offsetInCU: 0x33296, offset: 0x46E18, size: 0x8, addend: 0x0, symName: '__ZNSt3__117__compressed_pairIZN5Scene4initEiiE3$_6NS_9allocatorIS2_EEEC2B7v160006IJRKS2_EJRKS4_EEENS_21piecewise_construct_tENS_5tupleIJDpT_EEENSC_IJDpT0_EEE', symObjAddr: 0xCB5C, symBinAddr: 0x1000104E4, symSize: 0x54 }
  - { offsetInCU: 0x332FF, offset: 0x46E81, size: 0x8, addend: 0x0, symName: '__ZNSt3__122__compressed_pair_elemINS_9allocatorIZN5Scene4initEiiE3$_6EELi1ELb1EEC2B7v160006IJRKS4_EJLm0EEEENS_21piecewise_construct_tENS_5tupleIJDpT_EEENS_15__tuple_indicesIJXspT0_EEEE', symObjAddr: 0xCBB0, symBinAddr: 0x100010538, symSize: 0x38 }
  - { offsetInCU: 0x33363, offset: 0x46EE5, size: 0x8, addend: 0x0, symName: '__ZNSt3__112__tuple_leafILm0ERKNS_9allocatorIZN5Scene4initEiiE3$_6EELb0EE3getB7v160006Ev', symObjAddr: 0xCC0C, symBinAddr: 0x100010594, symSize: 0x18 }
  - { offsetInCU: 0x33388, offset: 0x46F0A, size: 0x8, addend: 0x0, symName: '__ZNSt3__110__function12__alloc_funcIZN5Scene4initEiiE3$_6NS_9allocatorIS3_EEFvvEE7destroyB7v160006Ev', symObjAddr: 0xCC24, symBinAddr: 0x1000105AC, symSize: 0x10 }
  - { offsetInCU: 0x333AD, offset: 0x46F2F, size: 0x8, addend: 0x0, symName: '__ZNSt3__110__function12__alloc_funcIZN5Scene4initEiiE3$_6NS_9allocatorIS3_EEFvvEEclB7v160006Ev', symObjAddr: 0xCC34, symBinAddr: 0x1000105BC, symSize: 0x28 }
  - { offsetInCU: 0x333D1, offset: 0x46F53, size: 0x8, addend: 0x0, symName: '__ZNSt3__128__invoke_void_return_wrapperIvLb1EE6__callIJRZN5Scene4initEiiE3$_6EEEvDpOT_', symObjAddr: 0xCC5C, symBinAddr: 0x1000105E4, symSize: 0x24 }
  - { offsetInCU: 0x33400, offset: 0x46F82, size: 0x8, addend: 0x0, symName: '__ZNSt3__117__compressed_pairIZN5Scene4initEiiE3$_6NS_9allocatorIS2_EEE5firstB7v160006Ev', symObjAddr: 0xCC80, symBinAddr: 0x100010608, symSize: 0x24 }
  - { offsetInCU: 0x33424, offset: 0x46FA6, size: 0x8, addend: 0x0, symName: '__ZZN5Scene4initEiiENK3$_6clEv', symObjAddr: 0xCCC8, symBinAddr: 0x100010650, symSize: 0x80 }
  - { offsetInCU: 0x3346B, offset: 0x46FED, size: 0x8, addend: 0x0, symName: '__ZNSt3__122__compressed_pair_elemIZN5Scene4initEiiE3$_6Li0ELb0EE5__getB7v160006Ev', symObjAddr: 0xCD48, symBinAddr: 0x1000106D0, symSize: 0x14 }
  - { offsetInCU: 0x33490, offset: 0x47012, size: 0x8, addend: 0x0, symName: '__ZNSt3__18functionIFvvEEC2IZN5Scene4initEiiE3$_7vEET_', symObjAddr: 0xCD5C, symBinAddr: 0x1000106E4, symSize: 0x38 }
  - { offsetInCU: 0x334D4, offset: 0x47056, size: 0x8, addend: 0x0, symName: '__ZNSt3__110__function12__value_funcIFvvEEC1B7v160006IZN5Scene4initEiiE3$_7vEEOT_', symObjAddr: 0xCD94, symBinAddr: 0x10001071C, symSize: 0x50 }
  - { offsetInCU: 0x33516, offset: 0x47098, size: 0x8, addend: 0x0, symName: '__ZNSt3__19allocatorIZN5Scene4initEiiE3$_7EC1B7v160006Ev', symObjAddr: 0xCDE4, symBinAddr: 0x10001076C, symSize: 0x2C }
  - { offsetInCU: 0x3353F, offset: 0x470C1, size: 0x8, addend: 0x0, symName: '__ZNSt3__110__function12__value_funcIFvvEEC1B7v160006IZN5Scene4initEiiE3$_7NS_9allocatorIS6_EEEEOT_RKT0_', symObjAddr: 0xCE10, symBinAddr: 0x100010798, symSize: 0x3C }
  - { offsetInCU: 0x33598, offset: 0x4711A, size: 0x8, addend: 0x0, symName: '__ZNSt3__19allocatorIZN5Scene4initEiiE3$_7EC2B7v160006Ev', symObjAddr: 0xCE4C, symBinAddr: 0x1000107D4, symSize: 0x2C }
  - { offsetInCU: 0x335C1, offset: 0x47143, size: 0x8, addend: 0x0, symName: '__ZNSt3__116__non_trivial_ifILb1ENS_9allocatorIZN5Scene4initEiiE3$_7EEEC2B7v160006Ev', symObjAddr: 0xCE78, symBinAddr: 0x100010800, symSize: 0x14 }
  - { offsetInCU: 0x335EA, offset: 0x4716C, size: 0x8, addend: 0x0, symName: '__ZNSt3__110__function12__value_funcIFvvEEC2B7v160006IZN5Scene4initEiiE3$_7NS_9allocatorIS6_EEEEOT_RKT0_', symObjAddr: 0xCE8C, symBinAddr: 0x100010814, symSize: 0x94 }
  - { offsetInCU: 0x33690, offset: 0x47212, size: 0x8, addend: 0x0, symName: '__ZNSt3__19allocatorINS_10__function6__funcIZN5Scene4initEiiE3$_7NS0_IS4_EEFvvEEEEC1B7v160006IS4_EERKNS0_IT_EE', symObjAddr: 0xCF38, symBinAddr: 0x1000108C0, symSize: 0x34 }
  - { offsetInCU: 0x336D2, offset: 0x47254, size: 0x8, addend: 0x0, symName: '__ZNSt3__19allocatorIZN5Scene4initEiiE3$_7EC1B7v160006INS_10__function6__funcIS2_S3_FvvEEEEERKNS0_IT_EE', symObjAddr: 0xCF6C, symBinAddr: 0x1000108F4, symSize: 0x34 }
  - { offsetInCU: 0x3370F, offset: 0x47291, size: 0x8, addend: 0x0, symName: '__ZNSt3__110__function6__funcIZN5Scene4initEiiE3$_7NS_9allocatorIS3_EEFvvEEC1B7v160006EOS3_OS5_', symObjAddr: 0xCFA0, symBinAddr: 0x100010928, symSize: 0x3C }
  - { offsetInCU: 0x33756, offset: 0x472D8, size: 0x8, addend: 0x0, symName: '__ZNSt3__19allocatorINS_10__function6__funcIZN5Scene4initEiiE3$_7NS0_IS4_EEFvvEEEEC2B7v160006IS4_EERKNS0_IT_EE', symObjAddr: 0xCFDC, symBinAddr: 0x100010964, symSize: 0x30 }
  - { offsetInCU: 0x33793, offset: 0x47315, size: 0x8, addend: 0x0, symName: '__ZNSt3__116__non_trivial_ifILb1ENS_9allocatorINS_10__function6__funcIZN5Scene4initEiiE3$_7NS1_IS5_EEFvvEEEEEEC2B7v160006Ev', symObjAddr: 0xD00C, symBinAddr: 0x100010994, symSize: 0x14 }
  - { offsetInCU: 0x337BC, offset: 0x4733E, size: 0x8, addend: 0x0, symName: '__ZNSt3__19allocatorIZN5Scene4initEiiE3$_7EC2B7v160006INS_10__function6__funcIS2_S3_FvvEEEEERKNS0_IT_EE', symObjAddr: 0xD020, symBinAddr: 0x1000109A8, symSize: 0x30 }
  - { offsetInCU: 0x337F9, offset: 0x4737B, size: 0x8, addend: 0x0, symName: '__ZNSt3__110__function6__funcIZN5Scene4initEiiE3$_7NS_9allocatorIS3_EEFvvEEC2B7v160006EOS3_OS5_', symObjAddr: 0xD050, symBinAddr: 0x1000109D8, symSize: 0x88 }
  - { offsetInCU: 0x33840, offset: 0x473C2, size: 0x8, addend: 0x0, symName: '__ZNSt3__110__function12__alloc_funcIZN5Scene4initEiiE3$_7NS_9allocatorIS3_EEFvvEEC1B7v160006EOS3_OS5_', symObjAddr: 0xD0D8, symBinAddr: 0x100010A60, symSize: 0x3C }
  - { offsetInCU: 0x33885, offset: 0x47407, size: 0x8, addend: 0x0, symName: '__ZNSt3__110__function6__funcIZN5Scene4initEiiE3$_7NS_9allocatorIS3_EEFvvEED1Ev', symObjAddr: 0xD114, symBinAddr: 0x100010A9C, symSize: 0x2C }
  - { offsetInCU: 0x338B1, offset: 0x47433, size: 0x8, addend: 0x0, symName: '__ZNSt3__110__function6__funcIZN5Scene4initEiiE3$_7NS_9allocatorIS3_EEFvvEED0Ev', symObjAddr: 0xD140, symBinAddr: 0x100010AC8, symSize: 0x30 }
  - { offsetInCU: 0x338DD, offset: 0x4745F, size: 0x8, addend: 0x0, symName: '__ZNKSt3__110__function6__funcIZN5Scene4initEiiE3$_7NS_9allocatorIS3_EEFvvEE7__cloneEv', symObjAddr: 0xD170, symBinAddr: 0x100010AF8, symSize: 0xFC }
  - { offsetInCU: 0x3392E, offset: 0x474B0, size: 0x8, addend: 0x0, symName: '__ZNKSt3__110__function6__funcIZN5Scene4initEiiE3$_7NS_9allocatorIS3_EEFvvEE7__cloneEPNS0_6__baseIS6_EE', symObjAddr: 0xD26C, symBinAddr: 0x100010BF4, symSize: 0x58 }
  - { offsetInCU: 0x33964, offset: 0x474E6, size: 0x8, addend: 0x0, symName: '__ZNSt3__110__function6__funcIZN5Scene4initEiiE3$_7NS_9allocatorIS3_EEFvvEE7destroyEv', symObjAddr: 0xD2C4, symBinAddr: 0x100010C4C, symSize: 0x28 }
  - { offsetInCU: 0x3398B, offset: 0x4750D, size: 0x8, addend: 0x0, symName: '__ZNSt3__110__function6__funcIZN5Scene4initEiiE3$_7NS_9allocatorIS3_EEFvvEE18destroy_deallocateEv', symObjAddr: 0xD2EC, symBinAddr: 0x100010C74, symSize: 0x58 }
  - { offsetInCU: 0x339CD, offset: 0x4754F, size: 0x8, addend: 0x0, symName: '__ZNSt3__110__function6__funcIZN5Scene4initEiiE3$_7NS_9allocatorIS3_EEFvvEEclEv', symObjAddr: 0xD344, symBinAddr: 0x100010CCC, symSize: 0x28 }
  - { offsetInCU: 0x339F4, offset: 0x47576, size: 0x8, addend: 0x0, symName: '__ZNKSt3__110__function6__funcIZN5Scene4initEiiE3$_7NS_9allocatorIS3_EEFvvEE6targetERKSt9type_info', symObjAddr: 0xD36C, symBinAddr: 0x100010CF4, symSize: 0x60 }
  - { offsetInCU: 0x33A2A, offset: 0x475AC, size: 0x8, addend: 0x0, symName: '__ZNKSt3__110__function6__funcIZN5Scene4initEiiE3$_7NS_9allocatorIS3_EEFvvEE11target_typeEv', symObjAddr: 0xD3CC, symBinAddr: 0x100010D54, symSize: 0x18 }
  - { offsetInCU: 0x33A51, offset: 0x475D3, size: 0x8, addend: 0x0, symName: '__ZNSt3__110__function12__alloc_funcIZN5Scene4initEiiE3$_7NS_9allocatorIS3_EEFvvEEC2B7v160006EOS3_OS5_', symObjAddr: 0xD3E4, symBinAddr: 0x100010D6C, symSize: 0x5C }
  - { offsetInCU: 0x33A96, offset: 0x47618, size: 0x8, addend: 0x0, symName: '__ZNSt3__117__compressed_pairIZN5Scene4initEiiE3$_7NS_9allocatorIS2_EEEC1B7v160006IJOS2_EJOS4_EEENS_21piecewise_construct_tENS_5tupleIJDpT_EEENSA_IJDpT0_EEE', symObjAddr: 0xD498, symBinAddr: 0x100010E20, symSize: 0x3C }
  - { offsetInCU: 0x33AFF, offset: 0x47681, size: 0x8, addend: 0x0, symName: '__ZNSt3__15tupleIJOZN5Scene4initEiiE3$_7EEC1B7v160006IJS2_ELi0EEEDpOT_', symObjAddr: 0xD4D4, symBinAddr: 0x100010E5C, symSize: 0x34 }
  - { offsetInCU: 0x33B49, offset: 0x476CB, size: 0x8, addend: 0x0, symName: '__ZNSt3__15tupleIJOZN5Scene4initEiiE3$_7EEC2B7v160006IJS2_ELi0EEEDpOT_', symObjAddr: 0xD508, symBinAddr: 0x100010E90, symSize: 0x34 }
  - { offsetInCU: 0x33B93, offset: 0x47715, size: 0x8, addend: 0x0, symName: '__ZNSt3__112__tuple_implINS_15__tuple_indicesIJLm0EEEEJOZN5Scene4initEiiE3$_7EEC1B7v160006IJLm0EEJS5_EJEJEJS4_EEENS1_IJXspT_EEEENS_13__tuple_typesIJDpT0_EEENS1_IJXspT1_EEEENS9_IJDpT2_EEEDpOT3_', symObjAddr: 0xD53C, symBinAddr: 0x100010EC4, symSize: 0x34 }
  - { offsetInCU: 0x33C27, offset: 0x477A9, size: 0x8, addend: 0x0, symName: '__ZNSt3__112__tuple_implINS_15__tuple_indicesIJLm0EEEEJOZN5Scene4initEiiE3$_7EEC2B7v160006IJLm0EEJS5_EJEJEJS4_EEENS1_IJXspT_EEEENS_13__tuple_typesIJDpT0_EEENS1_IJXspT1_EEEENS9_IJDpT2_EEEDpOT3_', symObjAddr: 0xD570, symBinAddr: 0x100010EF8, symSize: 0x34 }
  - { offsetInCU: 0x33CBB, offset: 0x4783D, size: 0x8, addend: 0x0, symName: '__ZNSt3__112__tuple_leafILm0EOZN5Scene4initEiiE3$_7Lb0EEC2B7v160006IS2_vEEOT_', symObjAddr: 0xD5A4, symBinAddr: 0x100010F2C, symSize: 0x20 }
  - { offsetInCU: 0x33CFD, offset: 0x4787F, size: 0x8, addend: 0x0, symName: '__ZNSt3__15tupleIJONS_9allocatorIZN5Scene4initEiiE3$_7EEEEC1B7v160006IJS4_ELi0EEEDpOT_', symObjAddr: 0xD5C4, symBinAddr: 0x100010F4C, symSize: 0x34 }
  - { offsetInCU: 0x33D47, offset: 0x478C9, size: 0x8, addend: 0x0, symName: '__ZNSt3__15tupleIJONS_9allocatorIZN5Scene4initEiiE3$_7EEEEC2B7v160006IJS4_ELi0EEEDpOT_', symObjAddr: 0xD5F8, symBinAddr: 0x100010F80, symSize: 0x34 }
  - { offsetInCU: 0x33D91, offset: 0x47913, size: 0x8, addend: 0x0, symName: '__ZNSt3__112__tuple_implINS_15__tuple_indicesIJLm0EEEEJONS_9allocatorIZN5Scene4initEiiE3$_7EEEEC1B7v160006IJLm0EEJS7_EJEJEJS6_EEENS1_IJXspT_EEEENS_13__tuple_typesIJDpT0_EEENS1_IJXspT1_EEEENSB_IJDpT2_EEEDpOT3_', symObjAddr: 0xD62C, symBinAddr: 0x100010FB4, symSize: 0x34 }
  - { offsetInCU: 0x33E25, offset: 0x479A7, size: 0x8, addend: 0x0, symName: '__ZNSt3__112__tuple_implINS_15__tuple_indicesIJLm0EEEEJONS_9allocatorIZN5Scene4initEiiE3$_7EEEEC2B7v160006IJLm0EEJS7_EJEJEJS6_EEENS1_IJXspT_EEEENS_13__tuple_typesIJDpT0_EEENS1_IJXspT1_EEEENSB_IJDpT2_EEEDpOT3_', symObjAddr: 0xD660, symBinAddr: 0x100010FE8, symSize: 0x34 }
  - { offsetInCU: 0x33EB9, offset: 0x47A3B, size: 0x8, addend: 0x0, symName: '__ZNSt3__112__tuple_leafILm0EONS_9allocatorIZN5Scene4initEiiE3$_7EELb0EEC2B7v160006IS4_vEEOT_', symObjAddr: 0xD694, symBinAddr: 0x10001101C, symSize: 0x20 }
  - { offsetInCU: 0x33EFB, offset: 0x47A7D, size: 0x8, addend: 0x0, symName: '__ZNSt3__117__compressed_pairIZN5Scene4initEiiE3$_7NS_9allocatorIS2_EEEC2B7v160006IJOS2_EJOS4_EEENS_21piecewise_construct_tENS_5tupleIJDpT_EEENSA_IJDpT0_EEE', symObjAddr: 0xD6B4, symBinAddr: 0x10001103C, symSize: 0x54 }
  - { offsetInCU: 0x33F64, offset: 0x47AE6, size: 0x8, addend: 0x0, symName: '__ZNSt3__122__compressed_pair_elemIZN5Scene4initEiiE3$_7Li0ELb0EEC2B7v160006IJOS2_EJLm0EEEENS_21piecewise_construct_tENS_5tupleIJDpT_EEENS_15__tuple_indicesIJXspT0_EEEE', symObjAddr: 0xD708, symBinAddr: 0x100011090, symSize: 0x44 }
  - { offsetInCU: 0x33FC8, offset: 0x47B4A, size: 0x8, addend: 0x0, symName: '__ZNSt3__122__compressed_pair_elemINS_9allocatorIZN5Scene4initEiiE3$_7EELi1ELb1EEC2B7v160006IJOS4_EJLm0EEEENS_21piecewise_construct_tENS_5tupleIJDpT_EEENS_15__tuple_indicesIJXspT0_EEEE', symObjAddr: 0xD74C, symBinAddr: 0x1000110D4, symSize: 0x38 }
  - { offsetInCU: 0x3402C, offset: 0x47BAE, size: 0x8, addend: 0x0, symName: '__ZNSt3__112__tuple_leafILm0EOZN5Scene4initEiiE3$_7Lb0EE3getB7v160006Ev', symObjAddr: 0xD7A8, symBinAddr: 0x100011130, symSize: 0x18 }
  - { offsetInCU: 0x34051, offset: 0x47BD3, size: 0x8, addend: 0x0, symName: '__ZNSt3__112__tuple_leafILm0EONS_9allocatorIZN5Scene4initEiiE3$_7EELb0EE3getB7v160006Ev', symObjAddr: 0xD7E4, symBinAddr: 0x10001116C, symSize: 0x18 }
  - { offsetInCU: 0x34076, offset: 0x47BF8, size: 0x8, addend: 0x0, symName: '__ZNSt3__110__function6__funcIZN5Scene4initEiiE3$_7NS_9allocatorIS3_EEFvvEED2Ev', symObjAddr: 0xD7FC, symBinAddr: 0x100011184, symSize: 0x2C }
  - { offsetInCU: 0x340A2, offset: 0x47C24, size: 0x8, addend: 0x0, symName: '__ZNKSt3__110__function12__alloc_funcIZN5Scene4initEiiE3$_7NS_9allocatorIS3_EEFvvEE15__get_allocatorB7v160006Ev', symObjAddr: 0xD828, symBinAddr: 0x1000111B0, symSize: 0x24 }
  - { offsetInCU: 0x340C6, offset: 0x47C48, size: 0x8, addend: 0x0, symName: '__ZNSt3__19allocatorINS_10__function6__funcIZN5Scene4initEiiE3$_7NS0_IS4_EEFvvEEEE8allocateB7v160006Em', symObjAddr: 0xD84C, symBinAddr: 0x1000111D4, symSize: 0x58 }
  - { offsetInCU: 0x34107, offset: 0x47C89, size: 0x8, addend: 0x0, symName: '__ZNSt3__122__allocator_destructorINS_9allocatorINS_10__function6__funcIZN5Scene4initEiiE3$_7NS1_IS5_EEFvvEEEEEEC1B7v160006ERS9_m', symObjAddr: 0xD8A4, symBinAddr: 0x10001122C, symSize: 0x3C }
  - { offsetInCU: 0x341D8, offset: 0x47D5A, size: 0x8, addend: 0x0, symName: '__ZNSt3__110unique_ptrINS_10__function6__funcIZN5Scene4initEiiE3$_7NS_9allocatorIS4_EEFvvEEENS_22__allocator_destructorINS5_IS8_EEEEEC1B7v160006ILb1EvEEPS8_NS_16__dependent_typeINS_27__unique_ptr_deleter_sfinaeISB_EEXT_EE20__good_rval_ref_typeE', symObjAddr: 0xD8E0, symBinAddr: 0x100011268, symSize: 0x3C }
  - { offsetInCU: 0x34228, offset: 0x47DAA, size: 0x8, addend: 0x0, symName: '__ZNKSt3__110unique_ptrINS_10__function6__funcIZN5Scene4initEiiE3$_7NS_9allocatorIS4_EEFvvEEENS_22__allocator_destructorINS5_IS8_EEEEE3getB7v160006Ev', symObjAddr: 0xD91C, symBinAddr: 0x1000112A4, symSize: 0x28 }
  - { offsetInCU: 0x3424C, offset: 0x47DCE, size: 0x8, addend: 0x0, symName: '__ZNKSt3__110__function12__alloc_funcIZN5Scene4initEiiE3$_7NS_9allocatorIS3_EEFvvEE8__targetB7v160006Ev', symObjAddr: 0xD944, symBinAddr: 0x1000112CC, symSize: 0x24 }
  - { offsetInCU: 0x34270, offset: 0x47DF2, size: 0x8, addend: 0x0, symName: '__ZNSt3__110__function6__funcIZN5Scene4initEiiE3$_7NS_9allocatorIS3_EEFvvEEC1B7v160006ERKS3_OS5_', symObjAddr: 0xD968, symBinAddr: 0x1000112F0, symSize: 0x3C }
  - { offsetInCU: 0x342B7, offset: 0x47E39, size: 0x8, addend: 0x0, symName: '__ZNSt3__110unique_ptrINS_10__function6__funcIZN5Scene4initEiiE3$_7NS_9allocatorIS4_EEFvvEEENS_22__allocator_destructorINS5_IS8_EEEEE7releaseB7v160006Ev', symObjAddr: 0xD9A4, symBinAddr: 0x10001132C, symSize: 0x44 }
  - { offsetInCU: 0x342EA, offset: 0x47E6C, size: 0x8, addend: 0x0, symName: '__ZNSt3__110unique_ptrINS_10__function6__funcIZN5Scene4initEiiE3$_7NS_9allocatorIS4_EEFvvEEENS_22__allocator_destructorINS5_IS8_EEEEED1B7v160006Ev', symObjAddr: 0xD9E8, symBinAddr: 0x100011370, symSize: 0x2C }
  - { offsetInCU: 0x34313, offset: 0x47E95, size: 0x8, addend: 0x0, symName: '__ZNKSt3__117__compressed_pairIZN5Scene4initEiiE3$_7NS_9allocatorIS2_EEE6secondB7v160006Ev', symObjAddr: 0xDA14, symBinAddr: 0x10001139C, symSize: 0x24 }
  - { offsetInCU: 0x34337, offset: 0x47EB9, size: 0x8, addend: 0x0, symName: '__ZNKSt3__122__compressed_pair_elemINS_9allocatorIZN5Scene4initEiiE3$_7EELi1ELb1EE5__getB7v160006Ev', symObjAddr: 0xDA38, symBinAddr: 0x1000113C0, symSize: 0x14 }
  - { offsetInCU: 0x34366, offset: 0x47EE8, size: 0x8, addend: 0x0, symName: '__ZNSt3__116allocator_traitsINS_9allocatorINS_10__function6__funcIZN5Scene4initEiiE3$_7NS1_IS5_EEFvvEEEEEE8max_sizeB7v160006IS9_vEEmRKS9_', symObjAddr: 0xDA4C, symBinAddr: 0x1000113D4, symSize: 0x24 }
  - { offsetInCU: 0x34394, offset: 0x47F16, size: 0x8, addend: 0x0, symName: '__ZNKSt3__19allocatorINS_10__function6__funcIZN5Scene4initEiiE3$_7NS0_IS4_EEFvvEEEE8max_sizeB7v160006Ev', symObjAddr: 0xDA70, symBinAddr: 0x1000113F8, symSize: 0x14 }
  - { offsetInCU: 0x343B9, offset: 0x47F3B, size: 0x8, addend: 0x0, symName: '__ZNSt3__122__allocator_destructorINS_9allocatorINS_10__function6__funcIZN5Scene4initEiiE3$_7NS1_IS5_EEFvvEEEEEEC2B7v160006ERS9_m', symObjAddr: 0xDA84, symBinAddr: 0x10001140C, symSize: 0x2C }
  - { offsetInCU: 0x343FE, offset: 0x47F80, size: 0x8, addend: 0x0, symName: '__ZNSt3__110unique_ptrINS_10__function6__funcIZN5Scene4initEiiE3$_7NS_9allocatorIS4_EEFvvEEENS_22__allocator_destructorINS5_IS8_EEEEEC2B7v160006ILb1EvEEPS8_NS_16__dependent_typeINS_27__unique_ptr_deleter_sfinaeISB_EEXT_EE20__good_rval_ref_typeE', symObjAddr: 0xDAB0, symBinAddr: 0x100011438, symSize: 0x48 }
  - { offsetInCU: 0x3444E, offset: 0x47FD0, size: 0x8, addend: 0x0, symName: '__ZNSt3__117__compressed_pairIPNS_10__function6__funcIZN5Scene4initEiiE3$_7NS_9allocatorIS4_EEFvvEEENS_22__allocator_destructorINS5_IS8_EEEEEC1B7v160006IRS9_SC_EEOT_OT0_', symObjAddr: 0xDAF8, symBinAddr: 0x100011480, symSize: 0x3C }
  - { offsetInCU: 0x344A5, offset: 0x48027, size: 0x8, addend: 0x0, symName: '__ZNSt3__117__compressed_pairIPNS_10__function6__funcIZN5Scene4initEiiE3$_7NS_9allocatorIS4_EEFvvEEENS_22__allocator_destructorINS5_IS8_EEEEEC2B7v160006IRS9_SC_EEOT_OT0_', symObjAddr: 0xDB34, symBinAddr: 0x1000114BC, symSize: 0x48 }
  - { offsetInCU: 0x344FC, offset: 0x4807E, size: 0x8, addend: 0x0, symName: '__ZNSt3__122__compressed_pair_elemIPNS_10__function6__funcIZN5Scene4initEiiE3$_7NS_9allocatorIS4_EEFvvEEELi0ELb0EEC2B7v160006IRS9_vEEOT_', symObjAddr: 0xDB7C, symBinAddr: 0x100011504, symSize: 0x24 }
  - { offsetInCU: 0x3453D, offset: 0x480BF, size: 0x8, addend: 0x0, symName: '__ZNSt3__122__compressed_pair_elemINS_22__allocator_destructorINS_9allocatorINS_10__function6__funcIZN5Scene4initEiiE3$_7NS2_IS6_EEFvvEEEEEEELi1ELb0EEC2B7v160006ISB_vEEOT_', symObjAddr: 0xDBA0, symBinAddr: 0x100011528, symSize: 0x24 }
  - { offsetInCU: 0x3457E, offset: 0x48100, size: 0x8, addend: 0x0, symName: '__ZNKSt3__117__compressed_pairIPNS_10__function6__funcIZN5Scene4initEiiE3$_7NS_9allocatorIS4_EEFvvEEENS_22__allocator_destructorINS5_IS8_EEEEE5firstB7v160006Ev', symObjAddr: 0xDBC4, symBinAddr: 0x10001154C, symSize: 0x24 }
  - { offsetInCU: 0x345A2, offset: 0x48124, size: 0x8, addend: 0x0, symName: '__ZNKSt3__122__compressed_pair_elemIPNS_10__function6__funcIZN5Scene4initEiiE3$_7NS_9allocatorIS4_EEFvvEEELi0ELb0EE5__getB7v160006Ev', symObjAddr: 0xDBE8, symBinAddr: 0x100011570, symSize: 0x14 }
  - { offsetInCU: 0x345C7, offset: 0x48149, size: 0x8, addend: 0x0, symName: '__ZNKSt3__117__compressed_pairIZN5Scene4initEiiE3$_7NS_9allocatorIS2_EEE5firstB7v160006Ev', symObjAddr: 0xDBFC, symBinAddr: 0x100011584, symSize: 0x24 }
  - { offsetInCU: 0x345EB, offset: 0x4816D, size: 0x8, addend: 0x0, symName: '__ZNKSt3__122__compressed_pair_elemIZN5Scene4initEiiE3$_7Li0ELb0EE5__getB7v160006Ev', symObjAddr: 0xDC20, symBinAddr: 0x1000115A8, symSize: 0x14 }
  - { offsetInCU: 0x34610, offset: 0x48192, size: 0x8, addend: 0x0, symName: '__ZNSt3__110__function6__funcIZN5Scene4initEiiE3$_7NS_9allocatorIS3_EEFvvEEC2B7v160006ERKS3_OS5_', symObjAddr: 0xDC34, symBinAddr: 0x1000115BC, symSize: 0x88 }
  - { offsetInCU: 0x34657, offset: 0x481D9, size: 0x8, addend: 0x0, symName: '__ZNSt3__110__function12__alloc_funcIZN5Scene4initEiiE3$_7NS_9allocatorIS3_EEFvvEEC1B7v160006ERKS3_OS5_', symObjAddr: 0xDCBC, symBinAddr: 0x100011644, symSize: 0x3C }
  - { offsetInCU: 0x3469C, offset: 0x4821E, size: 0x8, addend: 0x0, symName: '__ZNSt3__110__function12__alloc_funcIZN5Scene4initEiiE3$_7NS_9allocatorIS3_EEFvvEEC2B7v160006ERKS3_OS5_', symObjAddr: 0xDCF8, symBinAddr: 0x100011680, symSize: 0x5C }
  - { offsetInCU: 0x346E1, offset: 0x48263, size: 0x8, addend: 0x0, symName: '__ZNSt3__117__compressed_pairIZN5Scene4initEiiE3$_7NS_9allocatorIS2_EEEC1B7v160006IJRKS2_EJOS4_EEENS_21piecewise_construct_tENS_5tupleIJDpT_EEENSB_IJDpT0_EEE', symObjAddr: 0xDD80, symBinAddr: 0x100011708, symSize: 0x3C }
  - { offsetInCU: 0x3474A, offset: 0x482CC, size: 0x8, addend: 0x0, symName: '__ZNSt3__15tupleIJRKZN5Scene4initEiiE3$_7EEC1B7v160006INS_4_AndELi0EEES4_', symObjAddr: 0xDDBC, symBinAddr: 0x100011744, symSize: 0x34 }
  - { offsetInCU: 0x34793, offset: 0x48315, size: 0x8, addend: 0x0, symName: '__ZNSt3__15tupleIJRKZN5Scene4initEiiE3$_7EEC2B7v160006INS_4_AndELi0EEES4_', symObjAddr: 0xDDF0, symBinAddr: 0x100011778, symSize: 0x34 }
  - { offsetInCU: 0x347DC, offset: 0x4835E, size: 0x8, addend: 0x0, symName: '__ZNSt3__112__tuple_implINS_15__tuple_indicesIJLm0EEEEJRKZN5Scene4initEiiE3$_7EEC1B7v160006IJLm0EEJS6_EJEJEJS6_EEENS1_IJXspT_EEEENS_13__tuple_typesIJDpT0_EEENS1_IJXspT1_EEEENSA_IJDpT2_EEEDpOT3_', symObjAddr: 0xDE24, symBinAddr: 0x1000117AC, symSize: 0x34 }
  - { offsetInCU: 0x34870, offset: 0x483F2, size: 0x8, addend: 0x0, symName: '__ZNSt3__112__tuple_implINS_15__tuple_indicesIJLm0EEEEJRKZN5Scene4initEiiE3$_7EEC2B7v160006IJLm0EEJS6_EJEJEJS6_EEENS1_IJXspT_EEEENS_13__tuple_typesIJDpT0_EEENS1_IJXspT1_EEEENSA_IJDpT2_EEEDpOT3_', symObjAddr: 0xDE58, symBinAddr: 0x1000117E0, symSize: 0x34 }
  - { offsetInCU: 0x34904, offset: 0x48486, size: 0x8, addend: 0x0, symName: '__ZNSt3__112__tuple_leafILm0ERKZN5Scene4initEiiE3$_7Lb0EEC2B7v160006IS4_vEEOT_', symObjAddr: 0xDE8C, symBinAddr: 0x100011814, symSize: 0x20 }
  - { offsetInCU: 0x34946, offset: 0x484C8, size: 0x8, addend: 0x0, symName: '__ZNSt3__117__compressed_pairIZN5Scene4initEiiE3$_7NS_9allocatorIS2_EEEC2B7v160006IJRKS2_EJOS4_EEENS_21piecewise_construct_tENS_5tupleIJDpT_EEENSB_IJDpT0_EEE', symObjAddr: 0xDEAC, symBinAddr: 0x100011834, symSize: 0x54 }
  - { offsetInCU: 0x349AF, offset: 0x48531, size: 0x8, addend: 0x0, symName: '__ZNSt3__122__compressed_pair_elemIZN5Scene4initEiiE3$_7Li0ELb0EEC2B7v160006IJRKS2_EJLm0EEEENS_21piecewise_construct_tENS_5tupleIJDpT_EEENS_15__tuple_indicesIJXspT0_EEEE', symObjAddr: 0xDF00, symBinAddr: 0x100011888, symSize: 0x44 }
  - { offsetInCU: 0x34A13, offset: 0x48595, size: 0x8, addend: 0x0, symName: '__ZNSt3__112__tuple_leafILm0ERKZN5Scene4initEiiE3$_7Lb0EE3getB7v160006Ev', symObjAddr: 0xDF68, symBinAddr: 0x1000118F0, symSize: 0x18 }
  - { offsetInCU: 0x34A38, offset: 0x485BA, size: 0x8, addend: 0x0, symName: '__ZNSt3__117__compressed_pairIPNS_10__function6__funcIZN5Scene4initEiiE3$_7NS_9allocatorIS4_EEFvvEEENS_22__allocator_destructorINS5_IS8_EEEEE5firstB7v160006Ev', symObjAddr: 0xDF80, symBinAddr: 0x100011908, symSize: 0x24 }
  - { offsetInCU: 0x34A5C, offset: 0x485DE, size: 0x8, addend: 0x0, symName: '__ZNSt3__122__compressed_pair_elemIPNS_10__function6__funcIZN5Scene4initEiiE3$_7NS_9allocatorIS4_EEFvvEEELi0ELb0EE5__getB7v160006Ev', symObjAddr: 0xDFA4, symBinAddr: 0x10001192C, symSize: 0x14 }
  - { offsetInCU: 0x34A81, offset: 0x48603, size: 0x8, addend: 0x0, symName: '__ZNSt3__110unique_ptrINS_10__function6__funcIZN5Scene4initEiiE3$_7NS_9allocatorIS4_EEFvvEEENS_22__allocator_destructorINS5_IS8_EEEEED2B7v160006Ev', symObjAddr: 0xDFB8, symBinAddr: 0x100011940, symSize: 0x30 }
  - { offsetInCU: 0x34AAA, offset: 0x4862C, size: 0x8, addend: 0x0, symName: '__ZNSt3__110unique_ptrINS_10__function6__funcIZN5Scene4initEiiE3$_7NS_9allocatorIS4_EEFvvEEENS_22__allocator_destructorINS5_IS8_EEEEE5resetB7v160006EPS8_', symObjAddr: 0xDFE8, symBinAddr: 0x100011970, symSize: 0x78 }
  - { offsetInCU: 0x34AEC, offset: 0x4866E, size: 0x8, addend: 0x0, symName: '__ZNSt3__117__compressed_pairIPNS_10__function6__funcIZN5Scene4initEiiE3$_7NS_9allocatorIS4_EEFvvEEENS_22__allocator_destructorINS5_IS8_EEEEE6secondB7v160006Ev', symObjAddr: 0xE060, symBinAddr: 0x1000119E8, symSize: 0x28 }
  - { offsetInCU: 0x34B10, offset: 0x48692, size: 0x8, addend: 0x0, symName: '__ZNSt3__122__allocator_destructorINS_9allocatorINS_10__function6__funcIZN5Scene4initEiiE3$_7NS1_IS5_EEFvvEEEEEEclB7v160006EPS8_', symObjAddr: 0xE088, symBinAddr: 0x100011A10, symSize: 0x34 }
  - { offsetInCU: 0x34B42, offset: 0x486C4, size: 0x8, addend: 0x0, symName: '__ZNSt3__122__compressed_pair_elemINS_22__allocator_destructorINS_9allocatorINS_10__function6__funcIZN5Scene4initEiiE3$_7NS2_IS6_EEFvvEEEEEEELi1ELb0EE5__getB7v160006Ev', symObjAddr: 0xE0BC, symBinAddr: 0x100011A44, symSize: 0x14 }
  - { offsetInCU: 0x34B67, offset: 0x486E9, size: 0x8, addend: 0x0, symName: '__ZNSt3__116allocator_traitsINS_9allocatorINS_10__function6__funcIZN5Scene4initEiiE3$_7NS1_IS5_EEFvvEEEEEE10deallocateB7v160006ERS9_PS8_m', symObjAddr: 0xE0D0, symBinAddr: 0x100011A58, symSize: 0x34 }
  - { offsetInCU: 0x34BA9, offset: 0x4872B, size: 0x8, addend: 0x0, symName: '__ZNSt3__19allocatorINS_10__function6__funcIZN5Scene4initEiiE3$_7NS0_IS4_EEFvvEEEE10deallocateB7v160006EPS7_m', symObjAddr: 0xE104, symBinAddr: 0x100011A8C, symSize: 0x40 }
  - { offsetInCU: 0x34BE9, offset: 0x4876B, size: 0x8, addend: 0x0, symName: '__ZNSt3__110__function6__funcIZN5Scene4initEiiE3$_7NS_9allocatorIS3_EEFvvEEC1B7v160006ERKS3_RKS5_', symObjAddr: 0xE144, symBinAddr: 0x100011ACC, symSize: 0x3C }
  - { offsetInCU: 0x34C30, offset: 0x487B2, size: 0x8, addend: 0x0, symName: '__ZNSt3__110__function6__funcIZN5Scene4initEiiE3$_7NS_9allocatorIS3_EEFvvEEC2B7v160006ERKS3_RKS5_', symObjAddr: 0xE180, symBinAddr: 0x100011B08, symSize: 0x88 }
  - { offsetInCU: 0x34C77, offset: 0x487F9, size: 0x8, addend: 0x0, symName: '__ZNSt3__110__function12__alloc_funcIZN5Scene4initEiiE3$_7NS_9allocatorIS3_EEFvvEEC1B7v160006ERKS3_RKS5_', symObjAddr: 0xE208, symBinAddr: 0x100011B90, symSize: 0x3C }
  - { offsetInCU: 0x34CBC, offset: 0x4883E, size: 0x8, addend: 0x0, symName: '__ZNSt3__110__function12__alloc_funcIZN5Scene4initEiiE3$_7NS_9allocatorIS3_EEFvvEEC2B7v160006ERKS3_RKS5_', symObjAddr: 0xE244, symBinAddr: 0x100011BCC, symSize: 0x5C }
  - { offsetInCU: 0x34D01, offset: 0x48883, size: 0x8, addend: 0x0, symName: '__ZNSt3__117__compressed_pairIZN5Scene4initEiiE3$_7NS_9allocatorIS2_EEEC1B7v160006IJRKS2_EJRKS4_EEENS_21piecewise_construct_tENS_5tupleIJDpT_EEENSC_IJDpT0_EEE', symObjAddr: 0xE2CC, symBinAddr: 0x100011C54, symSize: 0x3C }
  - { offsetInCU: 0x34D6A, offset: 0x488EC, size: 0x8, addend: 0x0, symName: '__ZNSt3__15tupleIJRKNS_9allocatorIZN5Scene4initEiiE3$_7EEEEC1B7v160006INS_4_AndELi0EEES6_', symObjAddr: 0xE308, symBinAddr: 0x100011C90, symSize: 0x34 }
  - { offsetInCU: 0x34DB3, offset: 0x48935, size: 0x8, addend: 0x0, symName: '__ZNSt3__15tupleIJRKNS_9allocatorIZN5Scene4initEiiE3$_7EEEEC2B7v160006INS_4_AndELi0EEES6_', symObjAddr: 0xE33C, symBinAddr: 0x100011CC4, symSize: 0x34 }
  - { offsetInCU: 0x34DFC, offset: 0x4897E, size: 0x8, addend: 0x0, symName: '__ZNSt3__112__tuple_implINS_15__tuple_indicesIJLm0EEEEJRKNS_9allocatorIZN5Scene4initEiiE3$_7EEEEC1B7v160006IJLm0EEJS8_EJEJEJS8_EEENS1_IJXspT_EEEENS_13__tuple_typesIJDpT0_EEENS1_IJXspT1_EEEENSC_IJDpT2_EEEDpOT3_', symObjAddr: 0xE370, symBinAddr: 0x100011CF8, symSize: 0x34 }
  - { offsetInCU: 0x34E90, offset: 0x48A12, size: 0x8, addend: 0x0, symName: '__ZNSt3__112__tuple_implINS_15__tuple_indicesIJLm0EEEEJRKNS_9allocatorIZN5Scene4initEiiE3$_7EEEEC2B7v160006IJLm0EEJS8_EJEJEJS8_EEENS1_IJXspT_EEEENS_13__tuple_typesIJDpT0_EEENS1_IJXspT1_EEEENSC_IJDpT2_EEEDpOT3_', symObjAddr: 0xE3A4, symBinAddr: 0x100011D2C, symSize: 0x34 }
  - { offsetInCU: 0x34F24, offset: 0x48AA6, size: 0x8, addend: 0x0, symName: '__ZNSt3__112__tuple_leafILm0ERKNS_9allocatorIZN5Scene4initEiiE3$_7EELb0EEC2B7v160006IS6_vEEOT_', symObjAddr: 0xE3D8, symBinAddr: 0x100011D60, symSize: 0x20 }
  - { offsetInCU: 0x34F66, offset: 0x48AE8, size: 0x8, addend: 0x0, symName: '__ZNSt3__117__compressed_pairIZN5Scene4initEiiE3$_7NS_9allocatorIS2_EEEC2B7v160006IJRKS2_EJRKS4_EEENS_21piecewise_construct_tENS_5tupleIJDpT_EEENSC_IJDpT0_EEE', symObjAddr: 0xE3F8, symBinAddr: 0x100011D80, symSize: 0x54 }
  - { offsetInCU: 0x34FCF, offset: 0x48B51, size: 0x8, addend: 0x0, symName: '__ZNSt3__122__compressed_pair_elemINS_9allocatorIZN5Scene4initEiiE3$_7EELi1ELb1EEC2B7v160006IJRKS4_EJLm0EEEENS_21piecewise_construct_tENS_5tupleIJDpT_EEENS_15__tuple_indicesIJXspT0_EEEE', symObjAddr: 0xE44C, symBinAddr: 0x100011DD4, symSize: 0x38 }
  - { offsetInCU: 0x35033, offset: 0x48BB5, size: 0x8, addend: 0x0, symName: '__ZNSt3__112__tuple_leafILm0ERKNS_9allocatorIZN5Scene4initEiiE3$_7EELb0EE3getB7v160006Ev', symObjAddr: 0xE4A8, symBinAddr: 0x100011E30, symSize: 0x18 }
  - { offsetInCU: 0x35058, offset: 0x48BDA, size: 0x8, addend: 0x0, symName: '__ZNSt3__110__function12__alloc_funcIZN5Scene4initEiiE3$_7NS_9allocatorIS3_EEFvvEE7destroyB7v160006Ev', symObjAddr: 0xE4C0, symBinAddr: 0x100011E48, symSize: 0x10 }
  - { offsetInCU: 0x3507D, offset: 0x48BFF, size: 0x8, addend: 0x0, symName: '__ZNSt3__110__function12__alloc_funcIZN5Scene4initEiiE3$_7NS_9allocatorIS3_EEFvvEEclB7v160006Ev', symObjAddr: 0xE4D0, symBinAddr: 0x100011E58, symSize: 0x28 }
  - { offsetInCU: 0x350A1, offset: 0x48C23, size: 0x8, addend: 0x0, symName: '__ZNSt3__128__invoke_void_return_wrapperIvLb1EE6__callIJRZN5Scene4initEiiE3$_7EEEvDpOT_', symObjAddr: 0xE4F8, symBinAddr: 0x100011E80, symSize: 0x24 }
  - { offsetInCU: 0x350D0, offset: 0x48C52, size: 0x8, addend: 0x0, symName: '__ZNSt3__117__compressed_pairIZN5Scene4initEiiE3$_7NS_9allocatorIS2_EEE5firstB7v160006Ev', symObjAddr: 0xE51C, symBinAddr: 0x100011EA4, symSize: 0x24 }
  - { offsetInCU: 0x350F4, offset: 0x48C76, size: 0x8, addend: 0x0, symName: '__ZZN5Scene4initEiiENK3$_7clEv', symObjAddr: 0xE564, symBinAddr: 0x100011EEC, symSize: 0xE8 }
  - { offsetInCU: 0x35159, offset: 0x48CDB, size: 0x8, addend: 0x0, symName: '__ZNSt3__122__compressed_pair_elemIZN5Scene4initEiiE3$_7Li0ELb0EE5__getB7v160006Ev', symObjAddr: 0xE64C, symBinAddr: 0x100011FD4, symSize: 0x14 }
  - { offsetInCU: 0x3517E, offset: 0x48D00, size: 0x8, addend: 0x0, symName: __ZNSt3__112basic_stringIcNS_11char_traitsIcEENS_9allocatorIcEEEC1B7v160006EOS5_, symObjAddr: 0xE660, symBinAddr: 0x100011FE8, symSize: 0x34 }
  - { offsetInCU: 0x351B6, offset: 0x48D38, size: 0x8, addend: 0x0, symName: __ZNSt3__112basic_stringIcNS_11char_traitsIcEENS_9allocatorIcEEEC2B7v160006EOS5_, symObjAddr: 0xE694, symBinAddr: 0x10001201C, symSize: 0x84 }
  - { offsetInCU: 0x351EE, offset: 0x48D70, size: 0x8, addend: 0x0, symName: '__ZNSt3__18functionIFvvEEC2IZN5Scene12createWindowENS_12basic_stringIcNS_11char_traitsIcEENS_9allocatorIcEEEEE3$_8vEET_', symObjAddr: 0xE814, symBinAddr: 0x1000120B4, symSize: 0x34 }
  - { offsetInCU: 0x35233, offset: 0x48DB5, size: 0x8, addend: 0x0, symName: '__ZNSt3__110__function12__value_funcIFvvEEC1B7v160006IZN5Scene12createWindowENS_12basic_stringIcNS_11char_traitsIcEENS_9allocatorIcEEEEE3$_8vEEOT_', symObjAddr: 0xE848, symBinAddr: 0x1000120E8, symSize: 0x50 }
  - { offsetInCU: 0x35275, offset: 0x48DF7, size: 0x8, addend: 0x0, symName: '__ZNSt3__19allocatorIZN5Scene12createWindowENS_12basic_stringIcNS_11char_traitsIcEENS0_IcEEEEE3$_8EC1B7v160006Ev', symObjAddr: 0xE898, symBinAddr: 0x100012138, symSize: 0x2C }
  - { offsetInCU: 0x3529E, offset: 0x48E20, size: 0x8, addend: 0x0, symName: '__ZNSt3__110__function12__value_funcIFvvEEC1B7v160006IZN5Scene12createWindowENS_12basic_stringIcNS_11char_traitsIcEENS_9allocatorIcEEEEE3$_8NS9_ISC_EEEEOT_RKT0_', symObjAddr: 0xE8C4, symBinAddr: 0x100012164, symSize: 0x3C }
  - { offsetInCU: 0x352F7, offset: 0x48E79, size: 0x8, addend: 0x0, symName: '__ZNSt3__19allocatorIZN5Scene12createWindowENS_12basic_stringIcNS_11char_traitsIcEENS0_IcEEEEE3$_8EC2B7v160006Ev', symObjAddr: 0xE900, symBinAddr: 0x1000121A0, symSize: 0x2C }
  - { offsetInCU: 0x35320, offset: 0x48EA2, size: 0x8, addend: 0x0, symName: '__ZNSt3__116__non_trivial_ifILb1ENS_9allocatorIZN5Scene12createWindowENS_12basic_stringIcNS_11char_traitsIcEENS1_IcEEEEE3$_8EEEC2B7v160006Ev', symObjAddr: 0xE92C, symBinAddr: 0x1000121CC, symSize: 0x14 }
  - { offsetInCU: 0x35349, offset: 0x48ECB, size: 0x8, addend: 0x0, symName: '__ZNSt3__110__function12__value_funcIFvvEEC2B7v160006IZN5Scene12createWindowENS_12basic_stringIcNS_11char_traitsIcEENS_9allocatorIcEEEEE3$_8NS9_ISC_EEEEOT_RKT0_', symObjAddr: 0xE940, symBinAddr: 0x1000121E0, symSize: 0xF4 }
  - { offsetInCU: 0x353FB, offset: 0x48F7D, size: 0x8, addend: 0x0, symName: '__ZNSt3__19allocatorINS_10__function6__funcIZN5Scene12createWindowENS_12basic_stringIcNS_11char_traitsIcEENS0_IcEEEEE3$_8NS0_IS9_EEFvvEEEEC1B7v160006IS9_EERKNS0_IT_EE', symObjAddr: 0xEA4C, symBinAddr: 0x1000122EC, symSize: 0x34 }
  - { offsetInCU: 0x35438, offset: 0x48FBA, size: 0x8, addend: 0x0, symName: '__ZNSt3__19allocatorINS_10__function6__funcIZN5Scene12createWindowENS_12basic_stringIcNS_11char_traitsIcEENS0_IcEEEEE3$_8NS0_IS9_EEFvvEEEE8allocateB7v160006Em', symObjAddr: 0xEA80, symBinAddr: 0x100012320, symSize: 0x5C }
  - { offsetInCU: 0x35479, offset: 0x48FFB, size: 0x8, addend: 0x0, symName: '__ZNSt3__122__allocator_destructorINS_9allocatorINS_10__function6__funcIZN5Scene12createWindowENS_12basic_stringIcNS_11char_traitsIcEENS1_IcEEEEE3$_8NS1_ISA_EEFvvEEEEEEC1B7v160006ERSE_m', symObjAddr: 0xEADC, symBinAddr: 0x10001237C, symSize: 0x3C }
  - { offsetInCU: 0x3554A, offset: 0x490CC, size: 0x8, addend: 0x0, symName: '__ZNSt3__110unique_ptrINS_10__function6__baseIFvvEEENS_22__allocator_destructorINS_9allocatorINS1_6__funcIZN5Scene12createWindowENS_12basic_stringIcNS_11char_traitsIcEENS6_IcEEEEE3$_8NS6_ISE_EES3_EEEEEEEC1B7v160006ILb1EvEEPSG_NS_16__dependent_typeINS_27__unique_ptr_deleter_sfinaeISI_EEXT_EE20__good_rval_ref_typeE', symObjAddr: 0xEB18, symBinAddr: 0x1000123B8, symSize: 0x3C }
  - { offsetInCU: 0x3559A, offset: 0x4911C, size: 0x8, addend: 0x0, symName: '__ZNKSt3__110unique_ptrINS_10__function6__baseIFvvEEENS_22__allocator_destructorINS_9allocatorINS1_6__funcIZN5Scene12createWindowENS_12basic_stringIcNS_11char_traitsIcEENS6_IcEEEEE3$_8NS6_ISE_EES3_EEEEEEE3getB7v160006Ev', symObjAddr: 0xEB54, symBinAddr: 0x1000123F4, symSize: 0x28 }
  - { offsetInCU: 0x355BE, offset: 0x49140, size: 0x8, addend: 0x0, symName: '__ZNSt3__110__function6__funcIZN5Scene12createWindowENS_12basic_stringIcNS_11char_traitsIcEENS_9allocatorIcEEEEE3$_8NS6_IS9_EEFvvEEC1B7v160006EOS9_OSA_', symObjAddr: 0xEB7C, symBinAddr: 0x10001241C, symSize: 0x3C }
  - { offsetInCU: 0x35605, offset: 0x49187, size: 0x8, addend: 0x0, symName: '__ZNSt3__110unique_ptrINS_10__function6__baseIFvvEEENS_22__allocator_destructorINS_9allocatorINS1_6__funcIZN5Scene12createWindowENS_12basic_stringIcNS_11char_traitsIcEENS6_IcEEEEE3$_8NS6_ISE_EES3_EEEEEEE7releaseB7v160006Ev', symObjAddr: 0xEBB8, symBinAddr: 0x100012458, symSize: 0x44 }
  - { offsetInCU: 0x35638, offset: 0x491BA, size: 0x8, addend: 0x0, symName: '__ZNSt3__110unique_ptrINS_10__function6__baseIFvvEEENS_22__allocator_destructorINS_9allocatorINS1_6__funcIZN5Scene12createWindowENS_12basic_stringIcNS_11char_traitsIcEENS6_IcEEEEE3$_8NS6_ISE_EES3_EEEEEEED1B7v160006Ev', symObjAddr: 0xEBFC, symBinAddr: 0x10001249C, symSize: 0x2C }
  - { offsetInCU: 0x35661, offset: 0x491E3, size: 0x8, addend: 0x0, symName: '__ZNSt3__19allocatorINS_10__function6__funcIZN5Scene12createWindowENS_12basic_stringIcNS_11char_traitsIcEENS0_IcEEEEE3$_8NS0_IS9_EEFvvEEEEC2B7v160006IS9_EERKNS0_IT_EE', symObjAddr: 0xEC28, symBinAddr: 0x1000124C8, symSize: 0x30 }
  - { offsetInCU: 0x3569E, offset: 0x49220, size: 0x8, addend: 0x0, symName: '__ZNSt3__116__non_trivial_ifILb1ENS_9allocatorINS_10__function6__funcIZN5Scene12createWindowENS_12basic_stringIcNS_11char_traitsIcEENS1_IcEEEEE3$_8NS1_ISA_EEFvvEEEEEEC2B7v160006Ev', symObjAddr: 0xEC58, symBinAddr: 0x1000124F8, symSize: 0x14 }
  - { offsetInCU: 0x356D1, offset: 0x49253, size: 0x8, addend: 0x0, symName: '__ZNSt3__116allocator_traitsINS_9allocatorINS_10__function6__funcIZN5Scene12createWindowENS_12basic_stringIcNS_11char_traitsIcEENS1_IcEEEEE3$_8NS1_ISA_EEFvvEEEEEE8max_sizeB7v160006ISE_vEEmRKSE_', symObjAddr: 0xEC6C, symBinAddr: 0x10001250C, symSize: 0x24 }
  - { offsetInCU: 0x356FF, offset: 0x49281, size: 0x8, addend: 0x0, symName: '__ZNKSt3__19allocatorINS_10__function6__funcIZN5Scene12createWindowENS_12basic_stringIcNS_11char_traitsIcEENS0_IcEEEEE3$_8NS0_IS9_EEFvvEEEE8max_sizeB7v160006Ev', symObjAddr: 0xEC90, symBinAddr: 0x100012530, symSize: 0x18 }
  - { offsetInCU: 0x35724, offset: 0x492A6, size: 0x8, addend: 0x0, symName: '__ZNSt3__122__allocator_destructorINS_9allocatorINS_10__function6__funcIZN5Scene12createWindowENS_12basic_stringIcNS_11char_traitsIcEENS1_IcEEEEE3$_8NS1_ISA_EEFvvEEEEEEC2B7v160006ERSE_m', symObjAddr: 0xECA8, symBinAddr: 0x100012548, symSize: 0x2C }
  - { offsetInCU: 0x35769, offset: 0x492EB, size: 0x8, addend: 0x0, symName: '__ZNSt3__110unique_ptrINS_10__function6__baseIFvvEEENS_22__allocator_destructorINS_9allocatorINS1_6__funcIZN5Scene12createWindowENS_12basic_stringIcNS_11char_traitsIcEENS6_IcEEEEE3$_8NS6_ISE_EES3_EEEEEEEC2B7v160006ILb1EvEEPSG_NS_16__dependent_typeINS_27__unique_ptr_deleter_sfinaeISI_EEXT_EE20__good_rval_ref_typeE', symObjAddr: 0xECD4, symBinAddr: 0x100012574, symSize: 0x48 }
  - { offsetInCU: 0x357B9, offset: 0x4933B, size: 0x8, addend: 0x0, symName: '__ZNSt3__117__compressed_pairIPNS_10__function6__funcIZN5Scene12createWindowENS_12basic_stringIcNS_11char_traitsIcEENS_9allocatorIcEEEEE3$_8NS7_ISA_EEFvvEEENS_22__allocator_destructorINS7_ISD_EEEEEC1B7v160006IRSE_SH_EEOT_OT0_', symObjAddr: 0xED1C, symBinAddr: 0x1000125BC, symSize: 0x3C }
  - { offsetInCU: 0x35810, offset: 0x49392, size: 0x8, addend: 0x0, symName: '__ZNSt3__117__compressed_pairIPNS_10__function6__funcIZN5Scene12createWindowENS_12basic_stringIcNS_11char_traitsIcEENS_9allocatorIcEEEEE3$_8NS7_ISA_EEFvvEEENS_22__allocator_destructorINS7_ISD_EEEEEC2B7v160006IRSE_SH_EEOT_OT0_', symObjAddr: 0xED58, symBinAddr: 0x1000125F8, symSize: 0x48 }
  - { offsetInCU: 0x35867, offset: 0x493E9, size: 0x8, addend: 0x0, symName: '__ZNSt3__122__compressed_pair_elemIPNS_10__function6__funcIZN5Scene12createWindowENS_12basic_stringIcNS_11char_traitsIcEENS_9allocatorIcEEEEE3$_8NS7_ISA_EEFvvEEELi0ELb0EEC2B7v160006IRSE_vEEOT_', symObjAddr: 0xEDA0, symBinAddr: 0x100012640, symSize: 0x24 }
  - { offsetInCU: 0x358A8, offset: 0x4942A, size: 0x8, addend: 0x0, symName: '__ZNSt3__122__compressed_pair_elemINS_22__allocator_destructorINS_9allocatorINS_10__function6__funcIZN5Scene12createWindowENS_12basic_stringIcNS_11char_traitsIcEENS2_IcEEEEE3$_8NS2_ISB_EEFvvEEEEEEELi1ELb0EEC2B7v160006ISG_vEEOT_', symObjAddr: 0xEDC4, symBinAddr: 0x100012664, symSize: 0x24 }
  - { offsetInCU: 0x358E9, offset: 0x4946B, size: 0x8, addend: 0x0, symName: '__ZNKSt3__117__compressed_pairIPNS_10__function6__funcIZN5Scene12createWindowENS_12basic_stringIcNS_11char_traitsIcEENS_9allocatorIcEEEEE3$_8NS7_ISA_EEFvvEEENS_22__allocator_destructorINS7_ISD_EEEEE5firstB7v160006Ev', symObjAddr: 0xEDE8, symBinAddr: 0x100012688, symSize: 0x24 }
  - { offsetInCU: 0x3590D, offset: 0x4948F, size: 0x8, addend: 0x0, symName: '__ZNKSt3__122__compressed_pair_elemIPNS_10__function6__funcIZN5Scene12createWindowENS_12basic_stringIcNS_11char_traitsIcEENS_9allocatorIcEEEEE3$_8NS7_ISA_EEFvvEEELi0ELb0EE5__getB7v160006Ev', symObjAddr: 0xEE0C, symBinAddr: 0x1000126AC, symSize: 0x14 }
  - { offsetInCU: 0x35932, offset: 0x494B4, size: 0x8, addend: 0x0, symName: '__ZNSt3__110__function6__funcIZN5Scene12createWindowENS_12basic_stringIcNS_11char_traitsIcEENS_9allocatorIcEEEEE3$_8NS6_IS9_EEFvvEEC2B7v160006EOS9_OSA_', symObjAddr: 0xEE20, symBinAddr: 0x1000126C0, symSize: 0x88 }
  - { offsetInCU: 0x35979, offset: 0x494FB, size: 0x8, addend: 0x0, symName: '__ZNSt3__110__function12__alloc_funcIZN5Scene12createWindowENS_12basic_stringIcNS_11char_traitsIcEENS_9allocatorIcEEEEE3$_8NS6_IS9_EEFvvEEC1B7v160006EOS9_OSA_', symObjAddr: 0xEEA8, symBinAddr: 0x100012748, symSize: 0x3C }
  - { offsetInCU: 0x359BE, offset: 0x49540, size: 0x8, addend: 0x0, symName: '__ZNSt3__110__function6__funcIZN5Scene12createWindowENS_12basic_stringIcNS_11char_traitsIcEENS_9allocatorIcEEEEE3$_8NS6_IS9_EEFvvEED1Ev', symObjAddr: 0xEEE4, symBinAddr: 0x100012784, symSize: 0x2C }
  - { offsetInCU: 0x359EA, offset: 0x4956C, size: 0x8, addend: 0x0, symName: '__ZNSt3__110__function6__funcIZN5Scene12createWindowENS_12basic_stringIcNS_11char_traitsIcEENS_9allocatorIcEEEEE3$_8NS6_IS9_EEFvvEED0Ev', symObjAddr: 0xEF10, symBinAddr: 0x1000127B0, symSize: 0x30 }
  - { offsetInCU: 0x35A16, offset: 0x49598, size: 0x8, addend: 0x0, symName: '__ZNKSt3__110__function6__funcIZN5Scene12createWindowENS_12basic_stringIcNS_11char_traitsIcEENS_9allocatorIcEEEEE3$_8NS6_IS9_EEFvvEE7__cloneEv', symObjAddr: 0xEF40, symBinAddr: 0x1000127E0, symSize: 0xFC }
  - { offsetInCU: 0x35A67, offset: 0x495E9, size: 0x8, addend: 0x0, symName: '__ZNKSt3__110__function6__funcIZN5Scene12createWindowENS_12basic_stringIcNS_11char_traitsIcEENS_9allocatorIcEEEEE3$_8NS6_IS9_EEFvvEE7__cloneEPNS0_6__baseISB_EE', symObjAddr: 0xF03C, symBinAddr: 0x1000128DC, symSize: 0x58 }
  - { offsetInCU: 0x35A9D, offset: 0x4961F, size: 0x8, addend: 0x0, symName: '__ZNSt3__110__function6__funcIZN5Scene12createWindowENS_12basic_stringIcNS_11char_traitsIcEENS_9allocatorIcEEEEE3$_8NS6_IS9_EEFvvEE7destroyEv', symObjAddr: 0xF094, symBinAddr: 0x100012934, symSize: 0x28 }
  - { offsetInCU: 0x35AC4, offset: 0x49646, size: 0x8, addend: 0x0, symName: '__ZNSt3__110__function6__funcIZN5Scene12createWindowENS_12basic_stringIcNS_11char_traitsIcEENS_9allocatorIcEEEEE3$_8NS6_IS9_EEFvvEE18destroy_deallocateEv', symObjAddr: 0xF0BC, symBinAddr: 0x10001295C, symSize: 0x58 }
  - { offsetInCU: 0x35B06, offset: 0x49688, size: 0x8, addend: 0x0, symName: '__ZNSt3__110__function6__funcIZN5Scene12createWindowENS_12basic_stringIcNS_11char_traitsIcEENS_9allocatorIcEEEEE3$_8NS6_IS9_EEFvvEEclEv', symObjAddr: 0xF114, symBinAddr: 0x1000129B4, symSize: 0x28 }
  - { offsetInCU: 0x35B2D, offset: 0x496AF, size: 0x8, addend: 0x0, symName: '__ZNKSt3__110__function6__funcIZN5Scene12createWindowENS_12basic_stringIcNS_11char_traitsIcEENS_9allocatorIcEEEEE3$_8NS6_IS9_EEFvvEE6targetERKSt9type_info', symObjAddr: 0xF13C, symBinAddr: 0x1000129DC, symSize: 0x60 }
  - { offsetInCU: 0x35B63, offset: 0x496E5, size: 0x8, addend: 0x0, symName: '__ZNKSt3__110__function6__funcIZN5Scene12createWindowENS_12basic_stringIcNS_11char_traitsIcEENS_9allocatorIcEEEEE3$_8NS6_IS9_EEFvvEE11target_typeEv', symObjAddr: 0xF19C, symBinAddr: 0x100012A3C, symSize: 0x18 }
  - { offsetInCU: 0x35B8A, offset: 0x4970C, size: 0x8, addend: 0x0, symName: '__ZNSt3__110__function12__alloc_funcIZN5Scene12createWindowENS_12basic_stringIcNS_11char_traitsIcEENS_9allocatorIcEEEEE3$_8NS6_IS9_EEFvvEEC2B7v160006EOS9_OSA_', symObjAddr: 0xF1B4, symBinAddr: 0x100012A54, symSize: 0x5C }
  - { offsetInCU: 0x35BCF, offset: 0x49751, size: 0x8, addend: 0x0, symName: '__ZNSt3__117__compressed_pairIZN5Scene12createWindowENS_12basic_stringIcNS_11char_traitsIcEENS_9allocatorIcEEEEE3$_8NS5_IS8_EEEC1B7v160006IJOS8_EJOS9_EEENS_21piecewise_construct_tENS_5tupleIJDpT_EEENSF_IJDpT0_EEE', symObjAddr: 0xF268, symBinAddr: 0x100012B08, symSize: 0x3C }
  - { offsetInCU: 0x35C38, offset: 0x497BA, size: 0x8, addend: 0x0, symName: '__ZNSt3__15tupleIJOZN5Scene12createWindowENS_12basic_stringIcNS_11char_traitsIcEENS_9allocatorIcEEEEE3$_8EEC1B7v160006IJS8_ELi0EEEDpOT_', symObjAddr: 0xF2A4, symBinAddr: 0x100012B44, symSize: 0x34 }
  - { offsetInCU: 0x35C82, offset: 0x49804, size: 0x8, addend: 0x0, symName: '__ZNSt3__15tupleIJOZN5Scene12createWindowENS_12basic_stringIcNS_11char_traitsIcEENS_9allocatorIcEEEEE3$_8EEC2B7v160006IJS8_ELi0EEEDpOT_', symObjAddr: 0xF2D8, symBinAddr: 0x100012B78, symSize: 0x34 }
  - { offsetInCU: 0x35CCC, offset: 0x4984E, size: 0x8, addend: 0x0, symName: '__ZNSt3__112__tuple_implINS_15__tuple_indicesIJLm0EEEEJOZN5Scene12createWindowENS_12basic_stringIcNS_11char_traitsIcEENS_9allocatorIcEEEEE3$_8EEC1B7v160006IJLm0EEJSB_EJEJEJSA_EEENS1_IJXspT_EEEENS_13__tuple_typesIJDpT0_EEENS1_IJXspT1_EEEENSF_IJDpT2_EEEDpOT3_', symObjAddr: 0xF30C, symBinAddr: 0x100012BAC, symSize: 0x34 }
  - { offsetInCU: 0x35D60, offset: 0x498E2, size: 0x8, addend: 0x0, symName: '__ZNSt3__112__tuple_implINS_15__tuple_indicesIJLm0EEEEJOZN5Scene12createWindowENS_12basic_stringIcNS_11char_traitsIcEENS_9allocatorIcEEEEE3$_8EEC2B7v160006IJLm0EEJSB_EJEJEJSA_EEENS1_IJXspT_EEEENS_13__tuple_typesIJDpT0_EEENS1_IJXspT1_EEEENSF_IJDpT2_EEEDpOT3_', symObjAddr: 0xF340, symBinAddr: 0x100012BE0, symSize: 0x34 }
  - { offsetInCU: 0x35DF4, offset: 0x49976, size: 0x8, addend: 0x0, symName: '__ZNSt3__112__tuple_leafILm0EOZN5Scene12createWindowENS_12basic_stringIcNS_11char_traitsIcEENS_9allocatorIcEEEEE3$_8Lb0EEC2B7v160006IS8_vEEOT_', symObjAddr: 0xF374, symBinAddr: 0x100012C14, symSize: 0x20 }
  - { offsetInCU: 0x35E36, offset: 0x499B8, size: 0x8, addend: 0x0, symName: '__ZNSt3__15tupleIJONS_9allocatorIZN5Scene12createWindowENS_12basic_stringIcNS_11char_traitsIcEENS1_IcEEEEE3$_8EEEEC1B7v160006IJS9_ELi0EEEDpOT_', symObjAddr: 0xF394, symBinAddr: 0x100012C34, symSize: 0x34 }
  - { offsetInCU: 0x35E80, offset: 0x49A02, size: 0x8, addend: 0x0, symName: '__ZNSt3__15tupleIJONS_9allocatorIZN5Scene12createWindowENS_12basic_stringIcNS_11char_traitsIcEENS1_IcEEEEE3$_8EEEEC2B7v160006IJS9_ELi0EEEDpOT_', symObjAddr: 0xF3C8, symBinAddr: 0x100012C68, symSize: 0x34 }
  - { offsetInCU: 0x35ECA, offset: 0x49A4C, size: 0x8, addend: 0x0, symName: '__ZNSt3__112__tuple_implINS_15__tuple_indicesIJLm0EEEEJONS_9allocatorIZN5Scene12createWindowENS_12basic_stringIcNS_11char_traitsIcEENS3_IcEEEEE3$_8EEEEC1B7v160006IJLm0EEJSC_EJEJEJSB_EEENS1_IJXspT_EEEENS_13__tuple_typesIJDpT0_EEENS1_IJXspT1_EEEENSG_IJDpT2_EEEDpOT3_', symObjAddr: 0xF3FC, symBinAddr: 0x100012C9C, symSize: 0x34 }
  - { offsetInCU: 0x35F5E, offset: 0x49AE0, size: 0x8, addend: 0x0, symName: '__ZNSt3__112__tuple_implINS_15__tuple_indicesIJLm0EEEEJONS_9allocatorIZN5Scene12createWindowENS_12basic_stringIcNS_11char_traitsIcEENS3_IcEEEEE3$_8EEEEC2B7v160006IJLm0EEJSC_EJEJEJSB_EEENS1_IJXspT_EEEENS_13__tuple_typesIJDpT0_EEENS1_IJXspT1_EEEENSG_IJDpT2_EEEDpOT3_', symObjAddr: 0xF430, symBinAddr: 0x100012CD0, symSize: 0x34 }
  - { offsetInCU: 0x35FF2, offset: 0x49B74, size: 0x8, addend: 0x0, symName: '__ZNSt3__112__tuple_leafILm0EONS_9allocatorIZN5Scene12createWindowENS_12basic_stringIcNS_11char_traitsIcEENS1_IcEEEEE3$_8EELb0EEC2B7v160006IS9_vEEOT_', symObjAddr: 0xF464, symBinAddr: 0x100012D04, symSize: 0x20 }
  - { offsetInCU: 0x36034, offset: 0x49BB6, size: 0x8, addend: 0x0, symName: '__ZNSt3__117__compressed_pairIZN5Scene12createWindowENS_12basic_stringIcNS_11char_traitsIcEENS_9allocatorIcEEEEE3$_8NS5_IS8_EEEC2B7v160006IJOS8_EJOS9_EEENS_21piecewise_construct_tENS_5tupleIJDpT_EEENSF_IJDpT0_EEE', symObjAddr: 0xF484, symBinAddr: 0x100012D24, symSize: 0x7C }
  - { offsetInCU: 0x3609D, offset: 0x49C1F, size: 0x8, addend: 0x0, symName: '__ZNSt3__122__compressed_pair_elemIZN5Scene12createWindowENS_12basic_stringIcNS_11char_traitsIcEENS_9allocatorIcEEEEE3$_8Li0ELb0EEC2B7v160006IJOS8_EJLm0EEEENS_21piecewise_construct_tENS_5tupleIJDpT_EEENS_15__tuple_indicesIJXspT0_EEEE', symObjAddr: 0xF500, symBinAddr: 0x100012DA0, symSize: 0x44 }
  - { offsetInCU: 0x36101, offset: 0x49C83, size: 0x8, addend: 0x0, symName: '__ZNSt3__122__compressed_pair_elemINS_9allocatorIZN5Scene12createWindowENS_12basic_stringIcNS_11char_traitsIcEENS1_IcEEEEE3$_8EELi1ELb1EEC2B7v160006IJOS9_EJLm0EEEENS_21piecewise_construct_tENS_5tupleIJDpT_EEENS_15__tuple_indicesIJXspT0_EEEE', symObjAddr: 0xF544, symBinAddr: 0x100012DE4, symSize: 0x38 }
  - { offsetInCU: 0x36165, offset: 0x49CE7, size: 0x8, addend: 0x0, symName: '__ZNSt3__122__compressed_pair_elemIZN5Scene12createWindowENS_12basic_stringIcNS_11char_traitsIcEENS_9allocatorIcEEEEE3$_8Li0ELb0EED2Ev', symObjAddr: 0xF57C, symBinAddr: 0x100012E1C, symSize: 0x2C }
  - { offsetInCU: 0x36190, offset: 0x49D12, size: 0x8, addend: 0x0, symName: '__ZZN5Scene12createWindowENSt3__112basic_stringIcNS0_11char_traitsIcEENS0_9allocatorIcEEEEEN3$_8C1EOS7_', symObjAddr: 0xF5CC, symBinAddr: 0x100012E6C, symSize: 0x34 }
  - { offsetInCU: 0x361C4, offset: 0x49D46, size: 0x8, addend: 0x0, symName: '__ZNSt3__112__tuple_leafILm0EOZN5Scene12createWindowENS_12basic_stringIcNS_11char_traitsIcEENS_9allocatorIcEEEEE3$_8Lb0EE3getB7v160006Ev', symObjAddr: 0xF600, symBinAddr: 0x100012EA0, symSize: 0x18 }
  - { offsetInCU: 0x361E9, offset: 0x49D6B, size: 0x8, addend: 0x0, symName: '__ZZN5Scene12createWindowENSt3__112basic_stringIcNS0_11char_traitsIcEENS0_9allocatorIcEEEEEN3$_8C2EOS7_', symObjAddr: 0xF618, symBinAddr: 0x100012EB8, symSize: 0x48 }
  - { offsetInCU: 0x3621D, offset: 0x49D9F, size: 0x8, addend: 0x0, symName: '__ZNSt3__112__tuple_leafILm0EONS_9allocatorIZN5Scene12createWindowENS_12basic_stringIcNS_11char_traitsIcEENS1_IcEEEEE3$_8EELb0EE3getB7v160006Ev', symObjAddr: 0xF684, symBinAddr: 0x100012F24, symSize: 0x18 }
  - { offsetInCU: 0x36242, offset: 0x49DC4, size: 0x8, addend: 0x0, symName: '__ZNSt3__110__function6__funcIZN5Scene12createWindowENS_12basic_stringIcNS_11char_traitsIcEENS_9allocatorIcEEEEE3$_8NS6_IS9_EEFvvEED2Ev', symObjAddr: 0xF69C, symBinAddr: 0x100012F3C, symSize: 0x48 }
  - { offsetInCU: 0x3626E, offset: 0x49DF0, size: 0x8, addend: 0x0, symName: '__ZNSt3__110__function12__alloc_funcIZN5Scene12createWindowENS_12basic_stringIcNS_11char_traitsIcEENS_9allocatorIcEEEEE3$_8NS6_IS9_EEFvvEED1Ev', symObjAddr: 0xF6E4, symBinAddr: 0x100012F84, symSize: 0x2C }
  - { offsetInCU: 0x36299, offset: 0x49E1B, size: 0x8, addend: 0x0, symName: '__ZNSt3__110__function12__alloc_funcIZN5Scene12createWindowENS_12basic_stringIcNS_11char_traitsIcEENS_9allocatorIcEEEEE3$_8NS6_IS9_EEFvvEED2Ev', symObjAddr: 0xF710, symBinAddr: 0x100012FB0, symSize: 0x2C }
  - { offsetInCU: 0x362C4, offset: 0x49E46, size: 0x8, addend: 0x0, symName: '__ZNSt3__117__compressed_pairIZN5Scene12createWindowENS_12basic_stringIcNS_11char_traitsIcEENS_9allocatorIcEEEEE3$_8NS5_IS8_EEED1Ev', symObjAddr: 0xF73C, symBinAddr: 0x100012FDC, symSize: 0x2C }
  - { offsetInCU: 0x362EF, offset: 0x49E71, size: 0x8, addend: 0x0, symName: '__ZNSt3__117__compressed_pairIZN5Scene12createWindowENS_12basic_stringIcNS_11char_traitsIcEENS_9allocatorIcEEEEE3$_8NS5_IS8_EEED2Ev', symObjAddr: 0xF768, symBinAddr: 0x100013008, symSize: 0x2C }
  - { offsetInCU: 0x3631A, offset: 0x49E9C, size: 0x8, addend: 0x0, symName: '__ZNKSt3__110__function12__alloc_funcIZN5Scene12createWindowENS_12basic_stringIcNS_11char_traitsIcEENS_9allocatorIcEEEEE3$_8NS6_IS9_EEFvvEE15__get_allocatorB7v160006Ev', symObjAddr: 0xF794, symBinAddr: 0x100013034, symSize: 0x24 }
  - { offsetInCU: 0x36366, offset: 0x49EE8, size: 0x8, addend: 0x0, symName: '__ZNSt3__110unique_ptrINS_10__function6__funcIZN5Scene12createWindowENS_12basic_stringIcNS_11char_traitsIcEENS_9allocatorIcEEEEE3$_8NS7_ISA_EEFvvEEENS_22__allocator_destructorINS7_ISD_EEEEEC1B7v160006ILb1EvEEPSD_NS_16__dependent_typeINS_27__unique_ptr_deleter_sfinaeISG_EEXT_EE20__good_rval_ref_typeE', symObjAddr: 0xF7B8, symBinAddr: 0x100013058, symSize: 0x3C }
  - { offsetInCU: 0x363B6, offset: 0x49F38, size: 0x8, addend: 0x0, symName: '__ZNKSt3__110unique_ptrINS_10__function6__funcIZN5Scene12createWindowENS_12basic_stringIcNS_11char_traitsIcEENS_9allocatorIcEEEEE3$_8NS7_ISA_EEFvvEEENS_22__allocator_destructorINS7_ISD_EEEEE3getB7v160006Ev', symObjAddr: 0xF7F4, symBinAddr: 0x100013094, symSize: 0x28 }
  - { offsetInCU: 0x363DA, offset: 0x49F5C, size: 0x8, addend: 0x0, symName: '__ZNKSt3__110__function12__alloc_funcIZN5Scene12createWindowENS_12basic_stringIcNS_11char_traitsIcEENS_9allocatorIcEEEEE3$_8NS6_IS9_EEFvvEE8__targetB7v160006Ev', symObjAddr: 0xF81C, symBinAddr: 0x1000130BC, symSize: 0x24 }
  - { offsetInCU: 0x36403, offset: 0x49F85, size: 0x8, addend: 0x0, symName: '__ZNSt3__19allocatorIZN5Scene12createWindowENS_12basic_stringIcNS_11char_traitsIcEENS0_IcEEEEE3$_8EC1B7v160006INS_10__function6__funcIS7_S8_FvvEEEEERKNS0_IT_EE', symObjAddr: 0xF840, symBinAddr: 0x1000130E0, symSize: 0x34 }
  - { offsetInCU: 0x36440, offset: 0x49FC2, size: 0x8, addend: 0x0, symName: '__ZNSt3__110__function6__funcIZN5Scene12createWindowENS_12basic_stringIcNS_11char_traitsIcEENS_9allocatorIcEEEEE3$_8NS6_IS9_EEFvvEEC1B7v160006ERKS9_OSA_', symObjAddr: 0xF874, symBinAddr: 0x100013114, symSize: 0x3C }
  - { offsetInCU: 0x36487, offset: 0x4A009, size: 0x8, addend: 0x0, symName: '__ZNSt3__110unique_ptrINS_10__function6__funcIZN5Scene12createWindowENS_12basic_stringIcNS_11char_traitsIcEENS_9allocatorIcEEEEE3$_8NS7_ISA_EEFvvEEENS_22__allocator_destructorINS7_ISD_EEEEE7releaseB7v160006Ev', symObjAddr: 0xF8B0, symBinAddr: 0x100013150, symSize: 0x44 }
  - { offsetInCU: 0x364BA, offset: 0x4A03C, size: 0x8, addend: 0x0, symName: '__ZNSt3__110unique_ptrINS_10__function6__funcIZN5Scene12createWindowENS_12basic_stringIcNS_11char_traitsIcEENS_9allocatorIcEEEEE3$_8NS7_ISA_EEFvvEEENS_22__allocator_destructorINS7_ISD_EEEEED1B7v160006Ev', symObjAddr: 0xF8F4, symBinAddr: 0x100013194, symSize: 0x2C }
  - { offsetInCU: 0x364E3, offset: 0x4A065, size: 0x8, addend: 0x0, symName: '__ZNKSt3__117__compressed_pairIZN5Scene12createWindowENS_12basic_stringIcNS_11char_traitsIcEENS_9allocatorIcEEEEE3$_8NS5_IS8_EEE6secondB7v160006Ev', symObjAddr: 0xF920, symBinAddr: 0x1000131C0, symSize: 0x24 }
  - { offsetInCU: 0x36507, offset: 0x4A089, size: 0x8, addend: 0x0, symName: '__ZNKSt3__122__compressed_pair_elemINS_9allocatorIZN5Scene12createWindowENS_12basic_stringIcNS_11char_traitsIcEENS1_IcEEEEE3$_8EELi1ELb1EE5__getB7v160006Ev', symObjAddr: 0xF944, symBinAddr: 0x1000131E4, symSize: 0x14 }
  - { offsetInCU: 0x3652C, offset: 0x4A0AE, size: 0x8, addend: 0x0, symName: '__ZNSt3__110unique_ptrINS_10__function6__funcIZN5Scene12createWindowENS_12basic_stringIcNS_11char_traitsIcEENS_9allocatorIcEEEEE3$_8NS7_ISA_EEFvvEEENS_22__allocator_destructorINS7_ISD_EEEEEC2B7v160006ILb1EvEEPSD_NS_16__dependent_typeINS_27__unique_ptr_deleter_sfinaeISG_EEXT_EE20__good_rval_ref_typeE', symObjAddr: 0xF958, symBinAddr: 0x1000131F8, symSize: 0x48 }
  - { offsetInCU: 0x3657C, offset: 0x4A0FE, size: 0x8, addend: 0x0, symName: '__ZNKSt3__117__compressed_pairIZN5Scene12createWindowENS_12basic_stringIcNS_11char_traitsIcEENS_9allocatorIcEEEEE3$_8NS5_IS8_EEE5firstB7v160006Ev', symObjAddr: 0xF9A0, symBinAddr: 0x100013240, symSize: 0x24 }
  - { offsetInCU: 0x365A0, offset: 0x4A122, size: 0x8, addend: 0x0, symName: '__ZNKSt3__122__compressed_pair_elemIZN5Scene12createWindowENS_12basic_stringIcNS_11char_traitsIcEENS_9allocatorIcEEEEE3$_8Li0ELb0EE5__getB7v160006Ev', symObjAddr: 0xF9C4, symBinAddr: 0x100013264, symSize: 0x14 }
  - { offsetInCU: 0x365C5, offset: 0x4A147, size: 0x8, addend: 0x0, symName: '__ZNSt3__19allocatorIZN5Scene12createWindowENS_12basic_stringIcNS_11char_traitsIcEENS0_IcEEEEE3$_8EC2B7v160006INS_10__function6__funcIS7_S8_FvvEEEEERKNS0_IT_EE', symObjAddr: 0xF9D8, symBinAddr: 0x100013278, symSize: 0x30 }
  - { offsetInCU: 0x36602, offset: 0x4A184, size: 0x8, addend: 0x0, symName: '__ZNSt3__110__function6__funcIZN5Scene12createWindowENS_12basic_stringIcNS_11char_traitsIcEENS_9allocatorIcEEEEE3$_8NS6_IS9_EEFvvEEC2B7v160006ERKS9_OSA_', symObjAddr: 0xFA08, symBinAddr: 0x1000132A8, symSize: 0x88 }
  - { offsetInCU: 0x36649, offset: 0x4A1CB, size: 0x8, addend: 0x0, symName: '__ZNSt3__110__function12__alloc_funcIZN5Scene12createWindowENS_12basic_stringIcNS_11char_traitsIcEENS_9allocatorIcEEEEE3$_8NS6_IS9_EEFvvEEC1B7v160006ERKS9_OSA_', symObjAddr: 0xFA90, symBinAddr: 0x100013330, symSize: 0x3C }
  - { offsetInCU: 0x3668E, offset: 0x4A210, size: 0x8, addend: 0x0, symName: '__ZNSt3__110__function12__alloc_funcIZN5Scene12createWindowENS_12basic_stringIcNS_11char_traitsIcEENS_9allocatorIcEEEEE3$_8NS6_IS9_EEFvvEEC2B7v160006ERKS9_OSA_', symObjAddr: 0xFACC, symBinAddr: 0x10001336C, symSize: 0x5C }
  - { offsetInCU: 0x366D3, offset: 0x4A255, size: 0x8, addend: 0x0, symName: '__ZNSt3__117__compressed_pairIZN5Scene12createWindowENS_12basic_stringIcNS_11char_traitsIcEENS_9allocatorIcEEEEE3$_8NS5_IS8_EEEC1B7v160006IJRKS8_EJOS9_EEENS_21piecewise_construct_tENS_5tupleIJDpT_EEENSG_IJDpT0_EEE', symObjAddr: 0xFB54, symBinAddr: 0x1000133F4, symSize: 0x3C }
  - { offsetInCU: 0x3673C, offset: 0x4A2BE, size: 0x8, addend: 0x0, symName: '__ZNSt3__15tupleIJRKZN5Scene12createWindowENS_12basic_stringIcNS_11char_traitsIcEENS_9allocatorIcEEEEE3$_8EEC1B7v160006INS_4_AndELi0EEESA_', symObjAddr: 0xFB90, symBinAddr: 0x100013430, symSize: 0x34 }
  - { offsetInCU: 0x36785, offset: 0x4A307, size: 0x8, addend: 0x0, symName: '__ZNSt3__15tupleIJRKZN5Scene12createWindowENS_12basic_stringIcNS_11char_traitsIcEENS_9allocatorIcEEEEE3$_8EEC2B7v160006INS_4_AndELi0EEESA_', symObjAddr: 0xFBC4, symBinAddr: 0x100013464, symSize: 0x34 }
  - { offsetInCU: 0x367CE, offset: 0x4A350, size: 0x8, addend: 0x0, symName: '__ZNSt3__112__tuple_implINS_15__tuple_indicesIJLm0EEEEJRKZN5Scene12createWindowENS_12basic_stringIcNS_11char_traitsIcEENS_9allocatorIcEEEEE3$_8EEC1B7v160006IJLm0EEJSC_EJEJEJSC_EEENS1_IJXspT_EEEENS_13__tuple_typesIJDpT0_EEENS1_IJXspT1_EEEENSG_IJDpT2_EEEDpOT3_', symObjAddr: 0xFBF8, symBinAddr: 0x100013498, symSize: 0x34 }
  - { offsetInCU: 0x36862, offset: 0x4A3E4, size: 0x8, addend: 0x0, symName: '__ZNSt3__112__tuple_implINS_15__tuple_indicesIJLm0EEEEJRKZN5Scene12createWindowENS_12basic_stringIcNS_11char_traitsIcEENS_9allocatorIcEEEEE3$_8EEC2B7v160006IJLm0EEJSC_EJEJEJSC_EEENS1_IJXspT_EEEENS_13__tuple_typesIJDpT0_EEENS1_IJXspT1_EEEENSG_IJDpT2_EEEDpOT3_', symObjAddr: 0xFC2C, symBinAddr: 0x1000134CC, symSize: 0x34 }
  - { offsetInCU: 0x368F6, offset: 0x4A478, size: 0x8, addend: 0x0, symName: '__ZNSt3__112__tuple_leafILm0ERKZN5Scene12createWindowENS_12basic_stringIcNS_11char_traitsIcEENS_9allocatorIcEEEEE3$_8Lb0EEC2B7v160006ISA_vEEOT_', symObjAddr: 0xFC60, symBinAddr: 0x100013500, symSize: 0x20 }
  - { offsetInCU: 0x36938, offset: 0x4A4BA, size: 0x8, addend: 0x0, symName: '__ZNSt3__117__compressed_pairIZN5Scene12createWindowENS_12basic_stringIcNS_11char_traitsIcEENS_9allocatorIcEEEEE3$_8NS5_IS8_EEEC2B7v160006IJRKS8_EJOS9_EEENS_21piecewise_construct_tENS_5tupleIJDpT_EEENSG_IJDpT0_EEE', symObjAddr: 0xFC80, symBinAddr: 0x100013520, symSize: 0x54 }
  - { offsetInCU: 0x369A1, offset: 0x4A523, size: 0x8, addend: 0x0, symName: '__ZNSt3__122__compressed_pair_elemIZN5Scene12createWindowENS_12basic_stringIcNS_11char_traitsIcEENS_9allocatorIcEEEEE3$_8Li0ELb0EEC2B7v160006IJRKS8_EJLm0EEEENS_21piecewise_construct_tENS_5tupleIJDpT_EEENS_15__tuple_indicesIJXspT0_EEEE', symObjAddr: 0xFCD4, symBinAddr: 0x100013574, symSize: 0x44 }
  - { offsetInCU: 0x36A05, offset: 0x4A587, size: 0x8, addend: 0x0, symName: '__ZZN5Scene12createWindowENSt3__112basic_stringIcNS0_11char_traitsIcEENS0_9allocatorIcEEEEEN3$_8C1ERKS7_', symObjAddr: 0xFD3C, symBinAddr: 0x1000135DC, symSize: 0x34 }
  - { offsetInCU: 0x36A39, offset: 0x4A5BB, size: 0x8, addend: 0x0, symName: '__ZNSt3__112__tuple_leafILm0ERKZN5Scene12createWindowENS_12basic_stringIcNS_11char_traitsIcEENS_9allocatorIcEEEEE3$_8Lb0EE3getB7v160006Ev', symObjAddr: 0xFD70, symBinAddr: 0x100013610, symSize: 0x18 }
  - { offsetInCU: 0x36A5E, offset: 0x4A5E0, size: 0x8, addend: 0x0, symName: '__ZZN5Scene12createWindowENSt3__112basic_stringIcNS0_11char_traitsIcEENS0_9allocatorIcEEEEEN3$_8C2ERKS7_', symObjAddr: 0xFD88, symBinAddr: 0x100013628, symSize: 0x48 }
  - { offsetInCU: 0x36A92, offset: 0x4A614, size: 0x8, addend: 0x0, symName: '__ZNSt3__117__compressed_pairIPNS_10__function6__funcIZN5Scene12createWindowENS_12basic_stringIcNS_11char_traitsIcEENS_9allocatorIcEEEEE3$_8NS7_ISA_EEFvvEEENS_22__allocator_destructorINS7_ISD_EEEEE5firstB7v160006Ev', symObjAddr: 0xFDD0, symBinAddr: 0x100013670, symSize: 0x24 }
  - { offsetInCU: 0x36AB6, offset: 0x4A638, size: 0x8, addend: 0x0, symName: '__ZNSt3__122__compressed_pair_elemIPNS_10__function6__funcIZN5Scene12createWindowENS_12basic_stringIcNS_11char_traitsIcEENS_9allocatorIcEEEEE3$_8NS7_ISA_EEFvvEEELi0ELb0EE5__getB7v160006Ev', symObjAddr: 0xFDF4, symBinAddr: 0x100013694, symSize: 0x14 }
  - { offsetInCU: 0x36ADB, offset: 0x4A65D, size: 0x8, addend: 0x0, symName: '__ZNSt3__110unique_ptrINS_10__function6__funcIZN5Scene12createWindowENS_12basic_stringIcNS_11char_traitsIcEENS_9allocatorIcEEEEE3$_8NS7_ISA_EEFvvEEENS_22__allocator_destructorINS7_ISD_EEEEED2B7v160006Ev', symObjAddr: 0xFE08, symBinAddr: 0x1000136A8, symSize: 0x30 }
  - { offsetInCU: 0x36B04, offset: 0x4A686, size: 0x8, addend: 0x0, symName: '__ZNSt3__110unique_ptrINS_10__function6__funcIZN5Scene12createWindowENS_12basic_stringIcNS_11char_traitsIcEENS_9allocatorIcEEEEE3$_8NS7_ISA_EEFvvEEENS_22__allocator_destructorINS7_ISD_EEEEE5resetB7v160006EPSD_', symObjAddr: 0xFE38, symBinAddr: 0x1000136D8, symSize: 0x78 }
  - { offsetInCU: 0x36B46, offset: 0x4A6C8, size: 0x8, addend: 0x0, symName: '__ZNSt3__117__compressed_pairIPNS_10__function6__funcIZN5Scene12createWindowENS_12basic_stringIcNS_11char_traitsIcEENS_9allocatorIcEEEEE3$_8NS7_ISA_EEFvvEEENS_22__allocator_destructorINS7_ISD_EEEEE6secondB7v160006Ev', symObjAddr: 0xFEB0, symBinAddr: 0x100013750, symSize: 0x28 }
  - { offsetInCU: 0x36B6A, offset: 0x4A6EC, size: 0x8, addend: 0x0, symName: '__ZNSt3__122__allocator_destructorINS_9allocatorINS_10__function6__funcIZN5Scene12createWindowENS_12basic_stringIcNS_11char_traitsIcEENS1_IcEEEEE3$_8NS1_ISA_EEFvvEEEEEEclB7v160006EPSD_', symObjAddr: 0xFED8, symBinAddr: 0x100013778, symSize: 0x34 }
  - { offsetInCU: 0x36B9C, offset: 0x4A71E, size: 0x8, addend: 0x0, symName: '__ZNSt3__122__compressed_pair_elemINS_22__allocator_destructorINS_9allocatorINS_10__function6__funcIZN5Scene12createWindowENS_12basic_stringIcNS_11char_traitsIcEENS2_IcEEEEE3$_8NS2_ISB_EEFvvEEEEEEELi1ELb0EE5__getB7v160006Ev', symObjAddr: 0xFF0C, symBinAddr: 0x1000137AC, symSize: 0x14 }
  - { offsetInCU: 0x36BC1, offset: 0x4A743, size: 0x8, addend: 0x0, symName: '__ZNSt3__116allocator_traitsINS_9allocatorINS_10__function6__funcIZN5Scene12createWindowENS_12basic_stringIcNS_11char_traitsIcEENS1_IcEEEEE3$_8NS1_ISA_EEFvvEEEEEE10deallocateB7v160006ERSE_PSD_m', symObjAddr: 0xFF20, symBinAddr: 0x1000137C0, symSize: 0x34 }
  - { offsetInCU: 0x36C03, offset: 0x4A785, size: 0x8, addend: 0x0, symName: '__ZNSt3__19allocatorINS_10__function6__funcIZN5Scene12createWindowENS_12basic_stringIcNS_11char_traitsIcEENS0_IcEEEEE3$_8NS0_IS9_EEFvvEEEE10deallocateB7v160006EPSC_m', symObjAddr: 0xFF54, symBinAddr: 0x1000137F4, symSize: 0x44 }
  - { offsetInCU: 0x36C43, offset: 0x4A7C5, size: 0x8, addend: 0x0, symName: '__ZNSt3__110__function6__funcIZN5Scene12createWindowENS_12basic_stringIcNS_11char_traitsIcEENS_9allocatorIcEEEEE3$_8NS6_IS9_EEFvvEEC1B7v160006ERKS9_RKSA_', symObjAddr: 0xFF98, symBinAddr: 0x100013838, symSize: 0x3C }
  - { offsetInCU: 0x36C8A, offset: 0x4A80C, size: 0x8, addend: 0x0, symName: '__ZNSt3__110__function6__funcIZN5Scene12createWindowENS_12basic_stringIcNS_11char_traitsIcEENS_9allocatorIcEEEEE3$_8NS6_IS9_EEFvvEEC2B7v160006ERKS9_RKSA_', symObjAddr: 0xFFD4, symBinAddr: 0x100013874, symSize: 0x88 }
  - { offsetInCU: 0x36CD1, offset: 0x4A853, size: 0x8, addend: 0x0, symName: '__ZNSt3__110__function12__alloc_funcIZN5Scene12createWindowENS_12basic_stringIcNS_11char_traitsIcEENS_9allocatorIcEEEEE3$_8NS6_IS9_EEFvvEEC1B7v160006ERKS9_RKSA_', symObjAddr: 0x1005C, symBinAddr: 0x1000138FC, symSize: 0x3C }
  - { offsetInCU: 0x36D16, offset: 0x4A898, size: 0x8, addend: 0x0, symName: '__ZNSt3__110__function12__alloc_funcIZN5Scene12createWindowENS_12basic_stringIcNS_11char_traitsIcEENS_9allocatorIcEEEEE3$_8NS6_IS9_EEFvvEEC2B7v160006ERKS9_RKSA_', symObjAddr: 0x10098, symBinAddr: 0x100013938, symSize: 0x5C }
  - { offsetInCU: 0x36D5B, offset: 0x4A8DD, size: 0x8, addend: 0x0, symName: '__ZNSt3__117__compressed_pairIZN5Scene12createWindowENS_12basic_stringIcNS_11char_traitsIcEENS_9allocatorIcEEEEE3$_8NS5_IS8_EEEC1B7v160006IJRKS8_EJRKS9_EEENS_21piecewise_construct_tENS_5tupleIJDpT_EEENSH_IJDpT0_EEE', symObjAddr: 0x10120, symBinAddr: 0x1000139C0, symSize: 0x3C }
  - { offsetInCU: 0x36DC4, offset: 0x4A946, size: 0x8, addend: 0x0, symName: '__ZNSt3__15tupleIJRKNS_9allocatorIZN5Scene12createWindowENS_12basic_stringIcNS_11char_traitsIcEENS1_IcEEEEE3$_8EEEEC1B7v160006INS_4_AndELi0EEESB_', symObjAddr: 0x1015C, symBinAddr: 0x1000139FC, symSize: 0x34 }
  - { offsetInCU: 0x36E0D, offset: 0x4A98F, size: 0x8, addend: 0x0, symName: '__ZNSt3__15tupleIJRKNS_9allocatorIZN5Scene12createWindowENS_12basic_stringIcNS_11char_traitsIcEENS1_IcEEEEE3$_8EEEEC2B7v160006INS_4_AndELi0EEESB_', symObjAddr: 0x10190, symBinAddr: 0x100013A30, symSize: 0x34 }
  - { offsetInCU: 0x36E56, offset: 0x4A9D8, size: 0x8, addend: 0x0, symName: '__ZNSt3__112__tuple_implINS_15__tuple_indicesIJLm0EEEEJRKNS_9allocatorIZN5Scene12createWindowENS_12basic_stringIcNS_11char_traitsIcEENS3_IcEEEEE3$_8EEEEC1B7v160006IJLm0EEJSD_EJEJEJSD_EEENS1_IJXspT_EEEENS_13__tuple_typesIJDpT0_EEENS1_IJXspT1_EEEENSH_IJDpT2_EEEDpOT3_', symObjAddr: 0x101C4, symBinAddr: 0x100013A64, symSize: 0x34 }
  - { offsetInCU: 0x36EEA, offset: 0x4AA6C, size: 0x8, addend: 0x0, symName: '__ZNSt3__112__tuple_implINS_15__tuple_indicesIJLm0EEEEJRKNS_9allocatorIZN5Scene12createWindowENS_12basic_stringIcNS_11char_traitsIcEENS3_IcEEEEE3$_8EEEEC2B7v160006IJLm0EEJSD_EJEJEJSD_EEENS1_IJXspT_EEEENS_13__tuple_typesIJDpT0_EEENS1_IJXspT1_EEEENSH_IJDpT2_EEEDpOT3_', symObjAddr: 0x101F8, symBinAddr: 0x100013A98, symSize: 0x34 }
  - { offsetInCU: 0x36F7E, offset: 0x4AB00, size: 0x8, addend: 0x0, symName: '__ZNSt3__112__tuple_leafILm0ERKNS_9allocatorIZN5Scene12createWindowENS_12basic_stringIcNS_11char_traitsIcEENS1_IcEEEEE3$_8EELb0EEC2B7v160006ISB_vEEOT_', symObjAddr: 0x1022C, symBinAddr: 0x100013ACC, symSize: 0x20 }
  - { offsetInCU: 0x36FC0, offset: 0x4AB42, size: 0x8, addend: 0x0, symName: '__ZNSt3__117__compressed_pairIZN5Scene12createWindowENS_12basic_stringIcNS_11char_traitsIcEENS_9allocatorIcEEEEE3$_8NS5_IS8_EEEC2B7v160006IJRKS8_EJRKS9_EEENS_21piecewise_construct_tENS_5tupleIJDpT_EEENSH_IJDpT0_EEE', symObjAddr: 0x1024C, symBinAddr: 0x100013AEC, symSize: 0x7C }
  - { offsetInCU: 0x37029, offset: 0x4ABAB, size: 0x8, addend: 0x0, symName: '__ZNSt3__122__compressed_pair_elemINS_9allocatorIZN5Scene12createWindowENS_12basic_stringIcNS_11char_traitsIcEENS1_IcEEEEE3$_8EELi1ELb1EEC2B7v160006IJRKS9_EJLm0EEEENS_21piecewise_construct_tENS_5tupleIJDpT_EEENS_15__tuple_indicesIJXspT0_EEEE', symObjAddr: 0x102C8, symBinAddr: 0x100013B68, symSize: 0x38 }
  - { offsetInCU: 0x3708D, offset: 0x4AC0F, size: 0x8, addend: 0x0, symName: '__ZNSt3__112__tuple_leafILm0ERKNS_9allocatorIZN5Scene12createWindowENS_12basic_stringIcNS_11char_traitsIcEENS1_IcEEEEE3$_8EELb0EE3getB7v160006Ev', symObjAddr: 0x10324, symBinAddr: 0x100013BC4, symSize: 0x18 }
  - { offsetInCU: 0x370B2, offset: 0x4AC34, size: 0x8, addend: 0x0, symName: '__ZNSt3__110__function12__alloc_funcIZN5Scene12createWindowENS_12basic_stringIcNS_11char_traitsIcEENS_9allocatorIcEEEEE3$_8NS6_IS9_EEFvvEE7destroyB7v160006Ev', symObjAddr: 0x1033C, symBinAddr: 0x100013BDC, symSize: 0x24 }
  - { offsetInCU: 0x370D6, offset: 0x4AC58, size: 0x8, addend: 0x0, symName: '__ZNSt3__110__function12__alloc_funcIZN5Scene12createWindowENS_12basic_stringIcNS_11char_traitsIcEENS_9allocatorIcEEEEE3$_8NS6_IS9_EEFvvEEclB7v160006Ev', symObjAddr: 0x10360, symBinAddr: 0x100013C00, symSize: 0x28 }
  - { offsetInCU: 0x370FA, offset: 0x4AC7C, size: 0x8, addend: 0x0, symName: '__ZNSt3__128__invoke_void_return_wrapperIvLb1EE6__callIJRZN5Scene12createWindowENS_12basic_stringIcNS_11char_traitsIcEENS_9allocatorIcEEEEE3$_8EEEvDpOT_', symObjAddr: 0x10388, symBinAddr: 0x100013C28, symSize: 0x24 }
  - { offsetInCU: 0x37129, offset: 0x4ACAB, size: 0x8, addend: 0x0, symName: '__ZNSt3__117__compressed_pairIZN5Scene12createWindowENS_12basic_stringIcNS_11char_traitsIcEENS_9allocatorIcEEEEE3$_8NS5_IS8_EEE5firstB7v160006Ev', symObjAddr: 0x103AC, symBinAddr: 0x100013C4C, symSize: 0x24 }
  - { offsetInCU: 0x3714D, offset: 0x4ACCF, size: 0x8, addend: 0x0, symName: '__ZZN5Scene12createWindowENSt3__112basic_stringIcNS0_11char_traitsIcEENS0_9allocatorIcEEEEENK3$_8clEv', symObjAddr: 0x103F4, symBinAddr: 0x100013C94, symSize: 0x70 }
  - { offsetInCU: 0x37176, offset: 0x4ACF8, size: 0x8, addend: 0x0, symName: '__ZNSt3__122__compressed_pair_elemIZN5Scene12createWindowENS_12basic_stringIcNS_11char_traitsIcEENS_9allocatorIcEEEEE3$_8Li0ELb0EE5__getB7v160006Ev', symObjAddr: 0x10464, symBinAddr: 0x100013D04, symSize: 0x14 }
  - { offsetInCU: 0x3719B, offset: 0x4AD1D, size: 0x8, addend: 0x0, symName: '__ZNSt3__110unique_ptrINS_10__function6__baseIFvvEEENS_22__allocator_destructorINS_9allocatorINS1_6__funcIZN5Scene12createWindowENS_12basic_stringIcNS_11char_traitsIcEENS6_IcEEEEE3$_8NS6_ISE_EES3_EEEEEEED2B7v160006Ev', symObjAddr: 0x10478, symBinAddr: 0x100013D18, symSize: 0x30 }
  - { offsetInCU: 0x371C4, offset: 0x4AD46, size: 0x8, addend: 0x0, symName: '__ZNSt3__110unique_ptrINS_10__function6__baseIFvvEEENS_22__allocator_destructorINS_9allocatorINS1_6__funcIZN5Scene12createWindowENS_12basic_stringIcNS_11char_traitsIcEENS6_IcEEEEE3$_8NS6_ISE_EES3_EEEEEEE5resetB7v160006EPSG_', symObjAddr: 0x104A8, symBinAddr: 0x100013D48, symSize: 0x78 }
  - { offsetInCU: 0x37206, offset: 0x4AD88, size: 0x8, addend: 0x0, symName: __ZNSt3__16vectorIP6WindowNS_9allocatorIS2_EEE9__end_capB7v160006Ev, symObjAddr: 0x106C4, symBinAddr: 0x100013DC0, symSize: 0x28 }
  - { offsetInCU: 0x3722A, offset: 0x4ADAC, size: 0x8, addend: 0x0, symName: __ZNSt3__16vectorIP6WindowNS_9allocatorIS2_EEE22__construct_one_at_endB7v160006IJRKS2_EEEvDpOT_, symObjAddr: 0x106EC, symBinAddr: 0x100013DE8, symSize: 0x90 }
  - { offsetInCU: 0x37277, offset: 0x4ADF9, size: 0x8, addend: 0x0, symName: __ZNSt3__16vectorIP6WindowNS_9allocatorIS2_EEE21__push_back_slow_pathIRKS2_EEvOT_, symObjAddr: 0x1077C, symBinAddr: 0x100013E78, symSize: 0xD8 }
  - { offsetInCU: 0x372D4, offset: 0x4AE56, size: 0x8, addend: 0x0, symName: __ZNSt3__117__compressed_pairIPP6WindowNS_9allocatorIS2_EEE5firstB7v160006Ev, symObjAddr: 0x10854, symBinAddr: 0x100013F50, symSize: 0x24 }
  - { offsetInCU: 0x372F8, offset: 0x4AE7A, size: 0x8, addend: 0x0, symName: __ZNSt3__122__compressed_pair_elemIPP6WindowLi0ELb0EE5__getB7v160006Ev, symObjAddr: 0x10878, symBinAddr: 0x100013F74, symSize: 0x14 }
  - { offsetInCU: 0x37336, offset: 0x4AEB8, size: 0x8, addend: 0x0, symName: __ZNSt3__16vectorIP6WindowNS_9allocatorIS2_EEE21_ConstructTransactionC1B7v160006ERS5_m, symObjAddr: 0x1088C, symBinAddr: 0x100013F88, symSize: 0x3C }
  - { offsetInCU: 0x3737D, offset: 0x4AEFF, size: 0x8, addend: 0x0, symName: __ZNSt3__116allocator_traitsINS_9allocatorIP6WindowEEE9constructB7v160006IS3_JRKS3_EvEEvRS4_PT_DpOT0_, symObjAddr: 0x108C8, symBinAddr: 0x100013FC4, symSize: 0x34 }
  - { offsetInCU: 0x373D4, offset: 0x4AF56, size: 0x8, addend: 0x0, symName: __ZNSt3__16vectorIP6WindowNS_9allocatorIS2_EEE21_ConstructTransactionD1B7v160006Ev, symObjAddr: 0x10938, symBinAddr: 0x100013FF8, symSize: 0x2C }
  - { offsetInCU: 0x373FD, offset: 0x4AF7F, size: 0x8, addend: 0x0, symName: __ZNSt3__16vectorIP6WindowNS_9allocatorIS2_EEE21_ConstructTransactionC2B7v160006ERS5_m, symObjAddr: 0x10964, symBinAddr: 0x100014024, symSize: 0x44 }
  - { offsetInCU: 0x37444, offset: 0x4AFC6, size: 0x8, addend: 0x0, symName: __ZNSt3__19allocatorIP6WindowE9constructB7v160006IS2_JRKS2_EEEvPT_DpOT0_, symObjAddr: 0x109A8, symBinAddr: 0x100014068, symSize: 0x28 }
  - { offsetInCU: 0x37499, offset: 0x4B01B, size: 0x8, addend: 0x0, symName: __ZNSt3__16vectorIP6WindowNS_9allocatorIS2_EEE21_ConstructTransactionD2B7v160006Ev, symObjAddr: 0x10A08, symBinAddr: 0x100014090, symSize: 0x20 }
  - { offsetInCU: 0x374C2, offset: 0x4B044, size: 0x8, addend: 0x0, symName: __ZNKSt3__16vectorIP6WindowNS_9allocatorIS2_EEE11__recommendB7v160006Em, symObjAddr: 0x10A28, symBinAddr: 0x1000140B0, symSize: 0xB4 }
  - { offsetInCU: 0x37516, offset: 0x4B098, size: 0x8, addend: 0x0, symName: __ZNSt3__114__split_bufferIP6WindowRNS_9allocatorIS2_EEEC1EmmS5_, symObjAddr: 0x10ADC, symBinAddr: 0x100014164, symSize: 0x44 }
  - { offsetInCU: 0x3756B, offset: 0x4B0ED, size: 0x8, addend: 0x0, symName: __ZNSt3__114__split_bufferIP6WindowRNS_9allocatorIS2_EEED1Ev, symObjAddr: 0x10C38, symBinAddr: 0x1000142C0, symSize: 0x2C }
  - { offsetInCU: 0x37596, offset: 0x4B118, size: 0x8, addend: 0x0, symName: __ZNKSt3__16vectorIP6WindowNS_9allocatorIS2_EEE8max_sizeEv, symObjAddr: 0x10C64, symBinAddr: 0x1000142EC, symSize: 0x60 }
  - { offsetInCU: 0x375BD, offset: 0x4B13F, size: 0x8, addend: 0x0, symName: __ZNKSt3__16vectorIP6WindowNS_9allocatorIS2_EEE20__throw_length_errorB7v160006Ev, symObjAddr: 0x10CC4, symBinAddr: 0x10001434C, symSize: 0x1C }
  - { offsetInCU: 0x375EB, offset: 0x4B16D, size: 0x8, addend: 0x0, symName: __ZNSt3__116allocator_traitsINS_9allocatorIP6WindowEEE8max_sizeB7v160006IS4_vEEmRKS4_, symObjAddr: 0x10D78, symBinAddr: 0x1000143C0, symSize: 0x24 }
  - { offsetInCU: 0x37619, offset: 0x4B19B, size: 0x8, addend: 0x0, symName: __ZNKSt3__16vectorIP6WindowNS_9allocatorIS2_EEE7__allocB7v160006Ev, symObjAddr: 0x10D9C, symBinAddr: 0x1000143E4, symSize: 0x28 }
  - { offsetInCU: 0x3763D, offset: 0x4B1BF, size: 0x8, addend: 0x0, symName: __ZNSt3__114numeric_limitsIlE3maxB7v160006Ev, symObjAddr: 0x10DC4, symBinAddr: 0x10001440C, symSize: 0x14 }
  - { offsetInCU: 0x3765B, offset: 0x4B1DD, size: 0x8, addend: 0x0, symName: __ZNKSt3__16__lessImmEclB7v160006ERKmS3_, symObjAddr: 0x10E2C, symBinAddr: 0x100014474, symSize: 0x34 }
  - { offsetInCU: 0x3769C, offset: 0x4B21E, size: 0x8, addend: 0x0, symName: __ZNKSt3__19allocatorIP6WindowE8max_sizeB7v160006Ev, symObjAddr: 0x10E60, symBinAddr: 0x1000144A8, symSize: 0x14 }
  - { offsetInCU: 0x376C1, offset: 0x4B243, size: 0x8, addend: 0x0, symName: __ZNKSt3__117__compressed_pairIPP6WindowNS_9allocatorIS2_EEE6secondB7v160006Ev, symObjAddr: 0x10E74, symBinAddr: 0x1000144BC, symSize: 0x24 }
  - { offsetInCU: 0x376E5, offset: 0x4B267, size: 0x8, addend: 0x0, symName: __ZNKSt3__122__compressed_pair_elemINS_9allocatorIP6WindowEELi1ELb1EE5__getB7v160006Ev, symObjAddr: 0x10E98, symBinAddr: 0x1000144E0, symSize: 0x14 }
  - { offsetInCU: 0x3770A, offset: 0x4B28C, size: 0x8, addend: 0x0, symName: __ZNSt3__123__libcpp_numeric_limitsIlLb1EE3maxB7v160006Ev, symObjAddr: 0x10EAC, symBinAddr: 0x1000144F4, symSize: 0x8 }
  - { offsetInCU: 0x3771E, offset: 0x4B2A0, size: 0x8, addend: 0x0, symName: __ZNSt12length_errorC1B7v160006EPKc, symObjAddr: 0x10F18, symBinAddr: 0x100014560, symSize: 0x34 }
  - { offsetInCU: 0x37755, offset: 0x4B2D7, size: 0x8, addend: 0x0, symName: __ZNSt12length_errorC2B7v160006EPKc, symObjAddr: 0x10F4C, symBinAddr: 0x100014594, symSize: 0x4C }
  - { offsetInCU: 0x3778C, offset: 0x4B30E, size: 0x8, addend: 0x0, symName: __ZNSt3__114__split_bufferIP6WindowRNS_9allocatorIS2_EEEC2EmmS5_, symObjAddr: 0x1104C, symBinAddr: 0x100014634, symSize: 0xD4 }
  - { offsetInCU: 0x377FF, offset: 0x4B381, size: 0x8, addend: 0x0, symName: __ZNSt3__117__compressed_pairIPP6WindowRNS_9allocatorIS2_EEEC1B7v160006IDnS6_EEOT_OT0_, symObjAddr: 0x11120, symBinAddr: 0x100014708, symSize: 0x3C }
  - { offsetInCU: 0x37856, offset: 0x4B3D8, size: 0x8, addend: 0x0, symName: __ZNSt3__114__split_bufferIP6WindowRNS_9allocatorIS2_EEE7__allocB7v160006Ev, symObjAddr: 0x1119C, symBinAddr: 0x100014784, symSize: 0x28 }
  - { offsetInCU: 0x3787A, offset: 0x4B3FC, size: 0x8, addend: 0x0, symName: __ZNSt3__114__split_bufferIP6WindowRNS_9allocatorIS2_EEE9__end_capB7v160006Ev, symObjAddr: 0x111C4, symBinAddr: 0x1000147AC, symSize: 0x28 }
  - { offsetInCU: 0x3789E, offset: 0x4B420, size: 0x8, addend: 0x0, symName: __ZNSt3__117__compressed_pairIPP6WindowRNS_9allocatorIS2_EEEC2B7v160006IDnS6_EEOT_OT0_, symObjAddr: 0x111EC, symBinAddr: 0x1000147D4, symSize: 0x48 }
  - { offsetInCU: 0x378F5, offset: 0x4B477, size: 0x8, addend: 0x0, symName: __ZNSt3__122__compressed_pair_elemIRNS_9allocatorIP6WindowEELi1ELb0EEC2B7v160006IS5_vEEOT_, symObjAddr: 0x11234, symBinAddr: 0x10001481C, symSize: 0x20 }
  - { offsetInCU: 0x37936, offset: 0x4B4B8, size: 0x8, addend: 0x0, symName: __ZNSt3__19allocatorIP6WindowE8allocateB7v160006Em, symObjAddr: 0x11254, symBinAddr: 0x10001483C, symSize: 0x58 }
  - { offsetInCU: 0x37968, offset: 0x4B4EA, size: 0x8, addend: 0x0, symName: __ZNSt3__117__compressed_pairIPP6WindowRNS_9allocatorIS2_EEE6secondB7v160006Ev, symObjAddr: 0x112AC, symBinAddr: 0x100014894, symSize: 0x28 }
  - { offsetInCU: 0x3798C, offset: 0x4B50E, size: 0x8, addend: 0x0, symName: __ZNSt3__122__compressed_pair_elemIRNS_9allocatorIP6WindowEELi1ELb0EE5__getB7v160006Ev, symObjAddr: 0x112D4, symBinAddr: 0x1000148BC, symSize: 0x18 }
  - { offsetInCU: 0x379B1, offset: 0x4B533, size: 0x8, addend: 0x0, symName: __ZNSt3__117__compressed_pairIPP6WindowRNS_9allocatorIS2_EEE5firstB7v160006Ev, symObjAddr: 0x112EC, symBinAddr: 0x1000148D4, symSize: 0x24 }
  - { offsetInCU: 0x379D5, offset: 0x4B557, size: 0x8, addend: 0x0, symName: __ZNSt3__116reverse_iteratorIPP6WindowEC1B7v160006ES3_, symObjAddr: 0x11440, symBinAddr: 0x100014970, symSize: 0x34 }
  - { offsetInCU: 0x37A0C, offset: 0x4B58E, size: 0x8, addend: 0x0, symName: __ZNKSt3__116reverse_iteratorIPP6WindowE4baseB7v160006Ev, symObjAddr: 0x11474, symBinAddr: 0x1000149A4, symSize: 0x18 }
  - { offsetInCU: 0x37A31, offset: 0x4B5B3, size: 0x8, addend: 0x0, symName: __ZNKSt3__16vectorIP6WindowNS_9allocatorIS2_EEE14__annotate_newB7v160006Em, symObjAddr: 0x114C8, symBinAddr: 0x1000149F8, symSize: 0xAC }
  - { offsetInCU: 0x37A87, offset: 0x4B609, size: 0x8, addend: 0x0, symName: __ZNKSt3__111__move_loopINS_17_ClassicAlgPolicyEEclB7v160006INS_16reverse_iteratorIPP6WindowEES8_S8_EENS_4pairIT_T1_EESA_T0_SB_, symObjAddr: 0x118BC, symBinAddr: 0x100014DA4, symSize: 0xA0 }
  - { offsetInCU: 0x37AF5, offset: 0x4B677, size: 0x8, addend: 0x0, symName: __ZNSt3__18_IterOpsINS_17_ClassicAlgPolicyEE11__iter_moveB7v160006IRNS_16reverse_iteratorIPP6WindowEEEENS_9enable_ifIXsr12is_referenceIDTdeclsr3stdE7declvalIRT_EEEEE5valueEDTclsr3stdE4movedeclsr3stdE7declvalISC_EEEEE4typeEOSB_, symObjAddr: 0x11AF0, symBinAddr: 0x100014FD8, symSize: 0x28 }
  - { offsetInCU: 0x37B21, offset: 0x4B6A3, size: 0x8, addend: 0x0, symName: __ZNKSt3__116reverse_iteratorIPP6WindowEdeB7v160006Ev, symObjAddr: 0x11B18, symBinAddr: 0x100015000, symSize: 0x28 }
  - { offsetInCU: 0x37B55, offset: 0x4B6D7, size: 0x8, addend: 0x0, symName: __ZNSt3__116reverse_iteratorIPP6WindowEppB7v160006Ev, symObjAddr: 0x11B40, symBinAddr: 0x100015028, symSize: 0x20 }
  - { offsetInCU: 0x37B7A, offset: 0x4B6FC, size: 0x8, addend: 0x0, symName: __ZNSt3__18_IterOpsINS_17_ClassicAlgPolicyEE25__validate_iter_referenceB7v160006IRNS_16reverse_iteratorIPP6WindowEEEEvv, symObjAddr: 0x11B60, symBinAddr: 0x100015048, symSize: 0x4 }
  - { offsetInCU: 0x37B98, offset: 0x4B71A, size: 0x8, addend: 0x0, symName: __ZNSt3__118__unwrap_iter_implINS_16reverse_iteratorIPP6WindowEELb0EE8__unwrapB7v160006ES5_, symObjAddr: 0x11B64, symBinAddr: 0x10001504C, symSize: 0x24 }
  - { offsetInCU: 0x37BC0, offset: 0x4B742, size: 0x8, addend: 0x0, symName: __ZNSt3__14pairINS_16reverse_iteratorIPP6WindowEES5_EC1B7v160006IS5_S5_LPv0EEEOT_OT0_, symObjAddr: 0x11B88, symBinAddr: 0x100015070, symSize: 0x3C }
  - { offsetInCU: 0x37C1D, offset: 0x4B79F, size: 0x8, addend: 0x0, symName: __ZNSt3__14pairINS_16reverse_iteratorIPP6WindowEES5_EC2B7v160006IS5_S5_LPv0EEEOT_OT0_, symObjAddr: 0x11BC4, symBinAddr: 0x1000150AC, symSize: 0x34 }
  - { offsetInCU: 0x37C7A, offset: 0x4B7FC, size: 0x8, addend: 0x0, symName: __ZNSt3__118__unwrap_iter_implINS_16reverse_iteratorIPP6WindowEELb0EE8__rewrapB7v160006ES5_S5_, symObjAddr: 0x11BF8, symBinAddr: 0x1000150E0, symSize: 0x2C }
  - { offsetInCU: 0x37CA8, offset: 0x4B82A, size: 0x8, addend: 0x0, symName: __ZNSt3__116reverse_iteratorIPP6WindowEC2B7v160006ES3_, symObjAddr: 0x11C24, symBinAddr: 0x10001510C, symSize: 0x28 }
  - { offsetInCU: 0x37CDF, offset: 0x4B861, size: 0x8, addend: 0x0, symName: __ZNSt3__114__split_bufferIP6WindowRNS_9allocatorIS2_EEED2Ev, symObjAddr: 0x11C4C, symBinAddr: 0x100015134, symSize: 0x8C }
  - { offsetInCU: 0x37D0A, offset: 0x4B88C, size: 0x8, addend: 0x0, symName: __ZNSt3__114__split_bufferIP6WindowRNS_9allocatorIS2_EEE5clearB7v160006Ev, symObjAddr: 0x11CD8, symBinAddr: 0x1000151C0, symSize: 0x28 }
  - { offsetInCU: 0x37D2E, offset: 0x4B8B0, size: 0x8, addend: 0x0, symName: __ZNKSt3__114__split_bufferIP6WindowRNS_9allocatorIS2_EEE8capacityB7v160006Ev, symObjAddr: 0x11D34, symBinAddr: 0x1000151E8, symSize: 0x40 }
  - { offsetInCU: 0x37D52, offset: 0x4B8D4, size: 0x8, addend: 0x0, symName: __ZNSt3__114__split_bufferIP6WindowRNS_9allocatorIS2_EEE17__destruct_at_endB7v160006EPS2_, symObjAddr: 0x11D74, symBinAddr: 0x100015228, symSize: 0x2C }
  - { offsetInCU: 0x37D84, offset: 0x4B906, size: 0x8, addend: 0x0, symName: __ZNSt3__114__split_bufferIP6WindowRNS_9allocatorIS2_EEE17__destruct_at_endB7v160006EPS2_NS_17integral_constantIbLb0EEE, symObjAddr: 0x11DA0, symBinAddr: 0x100015254, symSize: 0x80 }
  - { offsetInCU: 0x37DC4, offset: 0x4B946, size: 0x8, addend: 0x0, symName: __ZNKSt3__114__split_bufferIP6WindowRNS_9allocatorIS2_EEE9__end_capB7v160006Ev, symObjAddr: 0x11EA0, symBinAddr: 0x1000152D4, symSize: 0x28 }
  - { offsetInCU: 0x37DE8, offset: 0x4B96A, size: 0x8, addend: 0x0, symName: __ZNKSt3__117__compressed_pairIPP6WindowRNS_9allocatorIS2_EEE5firstB7v160006Ev, symObjAddr: 0x11EC8, symBinAddr: 0x1000152FC, symSize: 0x24 }
  - { offsetInCU: 0x37E0C, offset: 0x4B98E, size: 0x8, addend: 0x0, symName: '__ZNSt3__18functionIFvvEEC2IZN5Scene18createBlocksWindowEiiiiE3$_9vEET_', symObjAddr: 0x11EEC, symBinAddr: 0x100015320, symSize: 0x34 }
  - { offsetInCU: 0x37E51, offset: 0x4B9D3, size: 0x8, addend: 0x0, symName: '__ZNSt3__110__function12__value_funcIFvvEEC1B7v160006IZN5Scene18createBlocksWindowEiiiiE3$_9vEEOT_', symObjAddr: 0x11F20, symBinAddr: 0x100015354, symSize: 0x50 }
  - { offsetInCU: 0x37E93, offset: 0x4BA15, size: 0x8, addend: 0x0, symName: '__ZNSt3__19allocatorIZN5Scene18createBlocksWindowEiiiiE3$_9EC1B7v160006Ev', symObjAddr: 0x11F70, symBinAddr: 0x1000153A4, symSize: 0x2C }
  - { offsetInCU: 0x37EBC, offset: 0x4BA3E, size: 0x8, addend: 0x0, symName: '__ZNSt3__110__function12__value_funcIFvvEEC1B7v160006IZN5Scene18createBlocksWindowEiiiiE3$_9NS_9allocatorIS6_EEEEOT_RKT0_', symObjAddr: 0x11F9C, symBinAddr: 0x1000153D0, symSize: 0x3C }
  - { offsetInCU: 0x37F15, offset: 0x4BA97, size: 0x8, addend: 0x0, symName: '__ZNSt3__19allocatorIZN5Scene18createBlocksWindowEiiiiE3$_9EC2B7v160006Ev', symObjAddr: 0x11FD8, symBinAddr: 0x10001540C, symSize: 0x2C }
  - { offsetInCU: 0x37F3E, offset: 0x4BAC0, size: 0x8, addend: 0x0, symName: '__ZNSt3__116__non_trivial_ifILb1ENS_9allocatorIZN5Scene18createBlocksWindowEiiiiE3$_9EEEC2B7v160006Ev', symObjAddr: 0x12004, symBinAddr: 0x100015438, symSize: 0x14 }
  - { offsetInCU: 0x37F67, offset: 0x4BAE9, size: 0x8, addend: 0x0, symName: '__ZNSt3__110__function12__value_funcIFvvEEC2B7v160006IZN5Scene18createBlocksWindowEiiiiE3$_9NS_9allocatorIS6_EEEEOT_RKT0_', symObjAddr: 0x12018, symBinAddr: 0x10001544C, symSize: 0xF4 }
  - { offsetInCU: 0x38019, offset: 0x4BB9B, size: 0x8, addend: 0x0, symName: '__ZNSt3__19allocatorINS_10__function6__funcIZN5Scene18createBlocksWindowEiiiiE3$_9NS0_IS4_EEFvvEEEEC1B7v160006IS4_EERKNS0_IT_EE', symObjAddr: 0x12124, symBinAddr: 0x100015558, symSize: 0x34 }
  - { offsetInCU: 0x38056, offset: 0x4BBD8, size: 0x8, addend: 0x0, symName: '__ZNSt3__19allocatorINS_10__function6__funcIZN5Scene18createBlocksWindowEiiiiE3$_9NS0_IS4_EEFvvEEEE8allocateB7v160006Em', symObjAddr: 0x12158, symBinAddr: 0x10001558C, symSize: 0x5C }
  - { offsetInCU: 0x38097, offset: 0x4BC19, size: 0x8, addend: 0x0, symName: '__ZNSt3__122__allocator_destructorINS_9allocatorINS_10__function6__funcIZN5Scene18createBlocksWindowEiiiiE3$_9NS1_IS5_EEFvvEEEEEEC1B7v160006ERS9_m', symObjAddr: 0x121B4, symBinAddr: 0x1000155E8, symSize: 0x3C }
  - { offsetInCU: 0x38168, offset: 0x4BCEA, size: 0x8, addend: 0x0, symName: '__ZNSt3__110unique_ptrINS_10__function6__baseIFvvEEENS_22__allocator_destructorINS_9allocatorINS1_6__funcIZN5Scene18createBlocksWindowEiiiiE3$_9NS6_IS9_EES3_EEEEEEEC1B7v160006ILb1EvEEPSB_NS_16__dependent_typeINS_27__unique_ptr_deleter_sfinaeISD_EEXT_EE20__good_rval_ref_typeE', symObjAddr: 0x121F0, symBinAddr: 0x100015624, symSize: 0x3C }
  - { offsetInCU: 0x381B8, offset: 0x4BD3A, size: 0x8, addend: 0x0, symName: '__ZNKSt3__110unique_ptrINS_10__function6__baseIFvvEEENS_22__allocator_destructorINS_9allocatorINS1_6__funcIZN5Scene18createBlocksWindowEiiiiE3$_9NS6_IS9_EES3_EEEEEEE3getB7v160006Ev', symObjAddr: 0x1222C, symBinAddr: 0x100015660, symSize: 0x28 }
  - { offsetInCU: 0x381DC, offset: 0x4BD5E, size: 0x8, addend: 0x0, symName: '__ZNSt3__110__function6__funcIZN5Scene18createBlocksWindowEiiiiE3$_9NS_9allocatorIS3_EEFvvEEC1B7v160006EOS3_OS5_', symObjAddr: 0x12254, symBinAddr: 0x100015688, symSize: 0x3C }
  - { offsetInCU: 0x38223, offset: 0x4BDA5, size: 0x8, addend: 0x0, symName: '__ZNSt3__110unique_ptrINS_10__function6__baseIFvvEEENS_22__allocator_destructorINS_9allocatorINS1_6__funcIZN5Scene18createBlocksWindowEiiiiE3$_9NS6_IS9_EES3_EEEEEEE7releaseB7v160006Ev', symObjAddr: 0x12290, symBinAddr: 0x1000156C4, symSize: 0x44 }
  - { offsetInCU: 0x38256, offset: 0x4BDD8, size: 0x8, addend: 0x0, symName: '__ZNSt3__110unique_ptrINS_10__function6__baseIFvvEEENS_22__allocator_destructorINS_9allocatorINS1_6__funcIZN5Scene18createBlocksWindowEiiiiE3$_9NS6_IS9_EES3_EEEEEEED1B7v160006Ev', symObjAddr: 0x122D4, symBinAddr: 0x100015708, symSize: 0x2C }
  - { offsetInCU: 0x3827F, offset: 0x4BE01, size: 0x8, addend: 0x0, symName: '__ZNSt3__19allocatorINS_10__function6__funcIZN5Scene18createBlocksWindowEiiiiE3$_9NS0_IS4_EEFvvEEEEC2B7v160006IS4_EERKNS0_IT_EE', symObjAddr: 0x12300, symBinAddr: 0x100015734, symSize: 0x30 }
  - { offsetInCU: 0x382BC, offset: 0x4BE3E, size: 0x8, addend: 0x0, symName: '__ZNSt3__116__non_trivial_ifILb1ENS_9allocatorINS_10__function6__funcIZN5Scene18createBlocksWindowEiiiiE3$_9NS1_IS5_EEFvvEEEEEEC2B7v160006Ev', symObjAddr: 0x12330, symBinAddr: 0x100015764, symSize: 0x14 }
  - { offsetInCU: 0x382EF, offset: 0x4BE71, size: 0x8, addend: 0x0, symName: '__ZNSt3__116allocator_traitsINS_9allocatorINS_10__function6__funcIZN5Scene18createBlocksWindowEiiiiE3$_9NS1_IS5_EEFvvEEEEEE8max_sizeB7v160006IS9_vEEmRKS9_', symObjAddr: 0x12344, symBinAddr: 0x100015778, symSize: 0x24 }
  - { offsetInCU: 0x3831D, offset: 0x4BE9F, size: 0x8, addend: 0x0, symName: '__ZNKSt3__19allocatorINS_10__function6__funcIZN5Scene18createBlocksWindowEiiiiE3$_9NS0_IS4_EEFvvEEEE8max_sizeB7v160006Ev', symObjAddr: 0x12368, symBinAddr: 0x10001579C, symSize: 0x18 }
  - { offsetInCU: 0x38342, offset: 0x4BEC4, size: 0x8, addend: 0x0, symName: '__ZNSt3__122__allocator_destructorINS_9allocatorINS_10__function6__funcIZN5Scene18createBlocksWindowEiiiiE3$_9NS1_IS5_EEFvvEEEEEEC2B7v160006ERS9_m', symObjAddr: 0x12380, symBinAddr: 0x1000157B4, symSize: 0x2C }
  - { offsetInCU: 0x38387, offset: 0x4BF09, size: 0x8, addend: 0x0, symName: '__ZNSt3__110unique_ptrINS_10__function6__baseIFvvEEENS_22__allocator_destructorINS_9allocatorINS1_6__funcIZN5Scene18createBlocksWindowEiiiiE3$_9NS6_IS9_EES3_EEEEEEEC2B7v160006ILb1EvEEPSB_NS_16__dependent_typeINS_27__unique_ptr_deleter_sfinaeISD_EEXT_EE20__good_rval_ref_typeE', symObjAddr: 0x123AC, symBinAddr: 0x1000157E0, symSize: 0x48 }
  - { offsetInCU: 0x383D7, offset: 0x4BF59, size: 0x8, addend: 0x0, symName: '__ZNSt3__117__compressed_pairIPNS_10__function6__funcIZN5Scene18createBlocksWindowEiiiiE3$_9NS_9allocatorIS4_EEFvvEEENS_22__allocator_destructorINS5_IS8_EEEEEC1B7v160006IRS9_SC_EEOT_OT0_', symObjAddr: 0x123F4, symBinAddr: 0x100015828, symSize: 0x3C }
  - { offsetInCU: 0x3842E, offset: 0x4BFB0, size: 0x8, addend: 0x0, symName: '__ZNSt3__117__compressed_pairIPNS_10__function6__funcIZN5Scene18createBlocksWindowEiiiiE3$_9NS_9allocatorIS4_EEFvvEEENS_22__allocator_destructorINS5_IS8_EEEEEC2B7v160006IRS9_SC_EEOT_OT0_', symObjAddr: 0x12430, symBinAddr: 0x100015864, symSize: 0x48 }
  - { offsetInCU: 0x38485, offset: 0x4C007, size: 0x8, addend: 0x0, symName: '__ZNSt3__122__compressed_pair_elemIPNS_10__function6__funcIZN5Scene18createBlocksWindowEiiiiE3$_9NS_9allocatorIS4_EEFvvEEELi0ELb0EEC2B7v160006IRS9_vEEOT_', symObjAddr: 0x12478, symBinAddr: 0x1000158AC, symSize: 0x24 }
  - { offsetInCU: 0x384C6, offset: 0x4C048, size: 0x8, addend: 0x0, symName: '__ZNSt3__122__compressed_pair_elemINS_22__allocator_destructorINS_9allocatorINS_10__function6__funcIZN5Scene18createBlocksWindowEiiiiE3$_9NS2_IS6_EEFvvEEEEEEELi1ELb0EEC2B7v160006ISB_vEEOT_', symObjAddr: 0x1249C, symBinAddr: 0x1000158D0, symSize: 0x24 }
  - { offsetInCU: 0x38507, offset: 0x4C089, size: 0x8, addend: 0x0, symName: '__ZNKSt3__117__compressed_pairIPNS_10__function6__funcIZN5Scene18createBlocksWindowEiiiiE3$_9NS_9allocatorIS4_EEFvvEEENS_22__allocator_destructorINS5_IS8_EEEEE5firstB7v160006Ev', symObjAddr: 0x124C0, symBinAddr: 0x1000158F4, symSize: 0x24 }
  - { offsetInCU: 0x3852B, offset: 0x4C0AD, size: 0x8, addend: 0x0, symName: '__ZNKSt3__122__compressed_pair_elemIPNS_10__function6__funcIZN5Scene18createBlocksWindowEiiiiE3$_9NS_9allocatorIS4_EEFvvEEELi0ELb0EE5__getB7v160006Ev', symObjAddr: 0x124E4, symBinAddr: 0x100015918, symSize: 0x14 }
  - { offsetInCU: 0x38550, offset: 0x4C0D2, size: 0x8, addend: 0x0, symName: '__ZNSt3__110__function6__funcIZN5Scene18createBlocksWindowEiiiiE3$_9NS_9allocatorIS3_EEFvvEEC2B7v160006EOS3_OS5_', symObjAddr: 0x124F8, symBinAddr: 0x10001592C, symSize: 0x88 }
  - { offsetInCU: 0x38597, offset: 0x4C119, size: 0x8, addend: 0x0, symName: '__ZNSt3__110__function12__alloc_funcIZN5Scene18createBlocksWindowEiiiiE3$_9NS_9allocatorIS3_EEFvvEEC1B7v160006EOS3_OS5_', symObjAddr: 0x12580, symBinAddr: 0x1000159B4, symSize: 0x3C }
  - { offsetInCU: 0x385DC, offset: 0x4C15E, size: 0x8, addend: 0x0, symName: '__ZNSt3__110__function6__funcIZN5Scene18createBlocksWindowEiiiiE3$_9NS_9allocatorIS3_EEFvvEED1Ev', symObjAddr: 0x125BC, symBinAddr: 0x1000159F0, symSize: 0x2C }
  - { offsetInCU: 0x38608, offset: 0x4C18A, size: 0x8, addend: 0x0, symName: '__ZNSt3__110__function6__funcIZN5Scene18createBlocksWindowEiiiiE3$_9NS_9allocatorIS3_EEFvvEED0Ev', symObjAddr: 0x125E8, symBinAddr: 0x100015A1C, symSize: 0x30 }
  - { offsetInCU: 0x38634, offset: 0x4C1B6, size: 0x8, addend: 0x0, symName: '__ZNKSt3__110__function6__funcIZN5Scene18createBlocksWindowEiiiiE3$_9NS_9allocatorIS3_EEFvvEE7__cloneEv', symObjAddr: 0x12618, symBinAddr: 0x100015A4C, symSize: 0xFC }
  - { offsetInCU: 0x38685, offset: 0x4C207, size: 0x8, addend: 0x0, symName: '__ZNKSt3__110__function6__funcIZN5Scene18createBlocksWindowEiiiiE3$_9NS_9allocatorIS3_EEFvvEE7__cloneEPNS0_6__baseIS6_EE', symObjAddr: 0x12714, symBinAddr: 0x100015B48, symSize: 0x58 }
  - { offsetInCU: 0x386BB, offset: 0x4C23D, size: 0x8, addend: 0x0, symName: '__ZNSt3__110__function6__funcIZN5Scene18createBlocksWindowEiiiiE3$_9NS_9allocatorIS3_EEFvvEE7destroyEv', symObjAddr: 0x1276C, symBinAddr: 0x100015BA0, symSize: 0x28 }
  - { offsetInCU: 0x386E2, offset: 0x4C264, size: 0x8, addend: 0x0, symName: '__ZNSt3__110__function6__funcIZN5Scene18createBlocksWindowEiiiiE3$_9NS_9allocatorIS3_EEFvvEE18destroy_deallocateEv', symObjAddr: 0x12794, symBinAddr: 0x100015BC8, symSize: 0x58 }
  - { offsetInCU: 0x38724, offset: 0x4C2A6, size: 0x8, addend: 0x0, symName: '__ZNSt3__110__function6__funcIZN5Scene18createBlocksWindowEiiiiE3$_9NS_9allocatorIS3_EEFvvEEclEv', symObjAddr: 0x127EC, symBinAddr: 0x100015C20, symSize: 0x28 }
  - { offsetInCU: 0x3874B, offset: 0x4C2CD, size: 0x8, addend: 0x0, symName: '__ZNKSt3__110__function6__funcIZN5Scene18createBlocksWindowEiiiiE3$_9NS_9allocatorIS3_EEFvvEE6targetERKSt9type_info', symObjAddr: 0x12814, symBinAddr: 0x100015C48, symSize: 0x60 }
  - { offsetInCU: 0x38781, offset: 0x4C303, size: 0x8, addend: 0x0, symName: '__ZNKSt3__110__function6__funcIZN5Scene18createBlocksWindowEiiiiE3$_9NS_9allocatorIS3_EEFvvEE11target_typeEv', symObjAddr: 0x12874, symBinAddr: 0x100015CA8, symSize: 0x18 }
  - { offsetInCU: 0x387A8, offset: 0x4C32A, size: 0x8, addend: 0x0, symName: '__ZNSt3__110__function12__alloc_funcIZN5Scene18createBlocksWindowEiiiiE3$_9NS_9allocatorIS3_EEFvvEEC2B7v160006EOS3_OS5_', symObjAddr: 0x1288C, symBinAddr: 0x100015CC0, symSize: 0x5C }
  - { offsetInCU: 0x387ED, offset: 0x4C36F, size: 0x8, addend: 0x0, symName: '__ZNSt3__117__compressed_pairIZN5Scene18createBlocksWindowEiiiiE3$_9NS_9allocatorIS2_EEEC1B7v160006IJOS2_EJOS4_EEENS_21piecewise_construct_tENS_5tupleIJDpT_EEENSA_IJDpT0_EEE', symObjAddr: 0x12940, symBinAddr: 0x100015D74, symSize: 0x3C }
  - { offsetInCU: 0x38856, offset: 0x4C3D8, size: 0x8, addend: 0x0, symName: '__ZNSt3__15tupleIJOZN5Scene18createBlocksWindowEiiiiE3$_9EEC1B7v160006IJS2_ELi0EEEDpOT_', symObjAddr: 0x1297C, symBinAddr: 0x100015DB0, symSize: 0x34 }
  - { offsetInCU: 0x388A0, offset: 0x4C422, size: 0x8, addend: 0x0, symName: '__ZNSt3__15tupleIJOZN5Scene18createBlocksWindowEiiiiE3$_9EEC2B7v160006IJS2_ELi0EEEDpOT_', symObjAddr: 0x129B0, symBinAddr: 0x100015DE4, symSize: 0x34 }
  - { offsetInCU: 0x388EA, offset: 0x4C46C, size: 0x8, addend: 0x0, symName: '__ZNSt3__112__tuple_implINS_15__tuple_indicesIJLm0EEEEJOZN5Scene18createBlocksWindowEiiiiE3$_9EEC1B7v160006IJLm0EEJS5_EJEJEJS4_EEENS1_IJXspT_EEEENS_13__tuple_typesIJDpT0_EEENS1_IJXspT1_EEEENS9_IJDpT2_EEEDpOT3_', symObjAddr: 0x129E4, symBinAddr: 0x100015E18, symSize: 0x34 }
  - { offsetInCU: 0x3897E, offset: 0x4C500, size: 0x8, addend: 0x0, symName: '__ZNSt3__112__tuple_implINS_15__tuple_indicesIJLm0EEEEJOZN5Scene18createBlocksWindowEiiiiE3$_9EEC2B7v160006IJLm0EEJS5_EJEJEJS4_EEENS1_IJXspT_EEEENS_13__tuple_typesIJDpT0_EEENS1_IJXspT1_EEEENS9_IJDpT2_EEEDpOT3_', symObjAddr: 0x12A18, symBinAddr: 0x100015E4C, symSize: 0x34 }
  - { offsetInCU: 0x38A12, offset: 0x4C594, size: 0x8, addend: 0x0, symName: '__ZNSt3__112__tuple_leafILm0EOZN5Scene18createBlocksWindowEiiiiE3$_9Lb0EEC2B7v160006IS2_vEEOT_', symObjAddr: 0x12A4C, symBinAddr: 0x100015E80, symSize: 0x20 }
  - { offsetInCU: 0x38A54, offset: 0x4C5D6, size: 0x8, addend: 0x0, symName: '__ZNSt3__15tupleIJONS_9allocatorIZN5Scene18createBlocksWindowEiiiiE3$_9EEEEC1B7v160006IJS4_ELi0EEEDpOT_', symObjAddr: 0x12A6C, symBinAddr: 0x100015EA0, symSize: 0x34 }
  - { offsetInCU: 0x38A9E, offset: 0x4C620, size: 0x8, addend: 0x0, symName: '__ZNSt3__15tupleIJONS_9allocatorIZN5Scene18createBlocksWindowEiiiiE3$_9EEEEC2B7v160006IJS4_ELi0EEEDpOT_', symObjAddr: 0x12AA0, symBinAddr: 0x100015ED4, symSize: 0x34 }
  - { offsetInCU: 0x38AE8, offset: 0x4C66A, size: 0x8, addend: 0x0, symName: '__ZNSt3__112__tuple_implINS_15__tuple_indicesIJLm0EEEEJONS_9allocatorIZN5Scene18createBlocksWindowEiiiiE3$_9EEEEC1B7v160006IJLm0EEJS7_EJEJEJS6_EEENS1_IJXspT_EEEENS_13__tuple_typesIJDpT0_EEENS1_IJXspT1_EEEENSB_IJDpT2_EEEDpOT3_', symObjAddr: 0x12AD4, symBinAddr: 0x100015F08, symSize: 0x34 }
  - { offsetInCU: 0x38B7C, offset: 0x4C6FE, size: 0x8, addend: 0x0, symName: '__ZNSt3__112__tuple_implINS_15__tuple_indicesIJLm0EEEEJONS_9allocatorIZN5Scene18createBlocksWindowEiiiiE3$_9EEEEC2B7v160006IJLm0EEJS7_EJEJEJS6_EEENS1_IJXspT_EEEENS_13__tuple_typesIJDpT0_EEENS1_IJXspT1_EEEENSB_IJDpT2_EEEDpOT3_', symObjAddr: 0x12B08, symBinAddr: 0x100015F3C, symSize: 0x34 }
  - { offsetInCU: 0x38C10, offset: 0x4C792, size: 0x8, addend: 0x0, symName: '__ZNSt3__112__tuple_leafILm0EONS_9allocatorIZN5Scene18createBlocksWindowEiiiiE3$_9EELb0EEC2B7v160006IS4_vEEOT_', symObjAddr: 0x12B3C, symBinAddr: 0x100015F70, symSize: 0x20 }
  - { offsetInCU: 0x38C52, offset: 0x4C7D4, size: 0x8, addend: 0x0, symName: '__ZNSt3__117__compressed_pairIZN5Scene18createBlocksWindowEiiiiE3$_9NS_9allocatorIS2_EEEC2B7v160006IJOS2_EJOS4_EEENS_21piecewise_construct_tENS_5tupleIJDpT_EEENSA_IJDpT0_EEE', symObjAddr: 0x12B5C, symBinAddr: 0x100015F90, symSize: 0x7C }
  - { offsetInCU: 0x38CBB, offset: 0x4C83D, size: 0x8, addend: 0x0, symName: '__ZNSt3__122__compressed_pair_elemIZN5Scene18createBlocksWindowEiiiiE3$_9Li0ELb0EEC2B7v160006IJOS2_EJLm0EEEENS_21piecewise_construct_tENS_5tupleIJDpT_EEENS_15__tuple_indicesIJXspT0_EEEE', symObjAddr: 0x12BD8, symBinAddr: 0x10001600C, symSize: 0x44 }
  - { offsetInCU: 0x38D1F, offset: 0x4C8A1, size: 0x8, addend: 0x0, symName: '__ZNSt3__122__compressed_pair_elemINS_9allocatorIZN5Scene18createBlocksWindowEiiiiE3$_9EELi1ELb1EEC2B7v160006IJOS4_EJLm0EEEENS_21piecewise_construct_tENS_5tupleIJDpT_EEENS_15__tuple_indicesIJXspT0_EEEE', symObjAddr: 0x12C1C, symBinAddr: 0x100016050, symSize: 0x38 }
  - { offsetInCU: 0x38D83, offset: 0x4C905, size: 0x8, addend: 0x0, symName: '__ZNSt3__122__compressed_pair_elemIZN5Scene18createBlocksWindowEiiiiE3$_9Li0ELb0EED2Ev', symObjAddr: 0x12C54, symBinAddr: 0x100016088, symSize: 0x2C }
  - { offsetInCU: 0x38DAE, offset: 0x4C930, size: 0x8, addend: 0x0, symName: '__ZZN5Scene18createBlocksWindowEiiiiEN3$_9C1EOS0_', symObjAddr: 0x12CA4, symBinAddr: 0x1000160D8, symSize: 0x34 }
  - { offsetInCU: 0x38DE2, offset: 0x4C964, size: 0x8, addend: 0x0, symName: '__ZNSt3__112__tuple_leafILm0EOZN5Scene18createBlocksWindowEiiiiE3$_9Lb0EE3getB7v160006Ev', symObjAddr: 0x12CD8, symBinAddr: 0x10001610C, symSize: 0x18 }
  - { offsetInCU: 0x38E07, offset: 0x4C989, size: 0x8, addend: 0x0, symName: '__ZZN5Scene18createBlocksWindowEiiiiEN3$_9C2EOS0_', symObjAddr: 0x12CF0, symBinAddr: 0x100016124, symSize: 0x48 }
  - { offsetInCU: 0x38E3B, offset: 0x4C9BD, size: 0x8, addend: 0x0, symName: '__ZNSt3__112__tuple_leafILm0EONS_9allocatorIZN5Scene18createBlocksWindowEiiiiE3$_9EELb0EE3getB7v160006Ev', symObjAddr: 0x12D5C, symBinAddr: 0x100016190, symSize: 0x18 }
  - { offsetInCU: 0x38E60, offset: 0x4C9E2, size: 0x8, addend: 0x0, symName: '__ZNSt3__110__function6__funcIZN5Scene18createBlocksWindowEiiiiE3$_9NS_9allocatorIS3_EEFvvEED2Ev', symObjAddr: 0x12D74, symBinAddr: 0x1000161A8, symSize: 0x48 }
  - { offsetInCU: 0x38E8C, offset: 0x4CA0E, size: 0x8, addend: 0x0, symName: '__ZNSt3__110__function12__alloc_funcIZN5Scene18createBlocksWindowEiiiiE3$_9NS_9allocatorIS3_EEFvvEED1Ev', symObjAddr: 0x12DBC, symBinAddr: 0x1000161F0, symSize: 0x2C }
  - { offsetInCU: 0x38EB7, offset: 0x4CA39, size: 0x8, addend: 0x0, symName: '__ZNSt3__110__function12__alloc_funcIZN5Scene18createBlocksWindowEiiiiE3$_9NS_9allocatorIS3_EEFvvEED2Ev', symObjAddr: 0x12DE8, symBinAddr: 0x10001621C, symSize: 0x2C }
  - { offsetInCU: 0x38EE2, offset: 0x4CA64, size: 0x8, addend: 0x0, symName: '__ZNSt3__117__compressed_pairIZN5Scene18createBlocksWindowEiiiiE3$_9NS_9allocatorIS2_EEED1Ev', symObjAddr: 0x12E14, symBinAddr: 0x100016248, symSize: 0x2C }
  - { offsetInCU: 0x38F0D, offset: 0x4CA8F, size: 0x8, addend: 0x0, symName: '__ZNSt3__117__compressed_pairIZN5Scene18createBlocksWindowEiiiiE3$_9NS_9allocatorIS2_EEED2Ev', symObjAddr: 0x12E40, symBinAddr: 0x100016274, symSize: 0x2C }
  - { offsetInCU: 0x38F38, offset: 0x4CABA, size: 0x8, addend: 0x0, symName: '__ZNKSt3__110__function12__alloc_funcIZN5Scene18createBlocksWindowEiiiiE3$_9NS_9allocatorIS3_EEFvvEE15__get_allocatorB7v160006Ev', symObjAddr: 0x12E6C, symBinAddr: 0x1000162A0, symSize: 0x24 }
  - { offsetInCU: 0x38F84, offset: 0x4CB06, size: 0x8, addend: 0x0, symName: '__ZNSt3__110unique_ptrINS_10__function6__funcIZN5Scene18createBlocksWindowEiiiiE3$_9NS_9allocatorIS4_EEFvvEEENS_22__allocator_destructorINS5_IS8_EEEEEC1B7v160006ILb1EvEEPS8_NS_16__dependent_typeINS_27__unique_ptr_deleter_sfinaeISB_EEXT_EE20__good_rval_ref_typeE', symObjAddr: 0x12E90, symBinAddr: 0x1000162C4, symSize: 0x3C }
  - { offsetInCU: 0x38FD4, offset: 0x4CB56, size: 0x8, addend: 0x0, symName: '__ZNKSt3__110unique_ptrINS_10__function6__funcIZN5Scene18createBlocksWindowEiiiiE3$_9NS_9allocatorIS4_EEFvvEEENS_22__allocator_destructorINS5_IS8_EEEEE3getB7v160006Ev', symObjAddr: 0x12ECC, symBinAddr: 0x100016300, symSize: 0x28 }
  - { offsetInCU: 0x38FF8, offset: 0x4CB7A, size: 0x8, addend: 0x0, symName: '__ZNKSt3__110__function12__alloc_funcIZN5Scene18createBlocksWindowEiiiiE3$_9NS_9allocatorIS3_EEFvvEE8__targetB7v160006Ev', symObjAddr: 0x12EF4, symBinAddr: 0x100016328, symSize: 0x24 }
  - { offsetInCU: 0x39021, offset: 0x4CBA3, size: 0x8, addend: 0x0, symName: '__ZNSt3__19allocatorIZN5Scene18createBlocksWindowEiiiiE3$_9EC1B7v160006INS_10__function6__funcIS2_S3_FvvEEEEERKNS0_IT_EE', symObjAddr: 0x12F18, symBinAddr: 0x10001634C, symSize: 0x34 }
  - { offsetInCU: 0x3905E, offset: 0x4CBE0, size: 0x8, addend: 0x0, symName: '__ZNSt3__110__function6__funcIZN5Scene18createBlocksWindowEiiiiE3$_9NS_9allocatorIS3_EEFvvEEC1B7v160006ERKS3_OS5_', symObjAddr: 0x12F4C, symBinAddr: 0x100016380, symSize: 0x3C }
  - { offsetInCU: 0x390A5, offset: 0x4CC27, size: 0x8, addend: 0x0, symName: '__ZNSt3__110unique_ptrINS_10__function6__funcIZN5Scene18createBlocksWindowEiiiiE3$_9NS_9allocatorIS4_EEFvvEEENS_22__allocator_destructorINS5_IS8_EEEEE7releaseB7v160006Ev', symObjAddr: 0x12F88, symBinAddr: 0x1000163BC, symSize: 0x44 }
  - { offsetInCU: 0x390D8, offset: 0x4CC5A, size: 0x8, addend: 0x0, symName: '__ZNSt3__110unique_ptrINS_10__function6__funcIZN5Scene18createBlocksWindowEiiiiE3$_9NS_9allocatorIS4_EEFvvEEENS_22__allocator_destructorINS5_IS8_EEEEED1B7v160006Ev', symObjAddr: 0x12FCC, symBinAddr: 0x100016400, symSize: 0x2C }
  - { offsetInCU: 0x39101, offset: 0x4CC83, size: 0x8, addend: 0x0, symName: '__ZNKSt3__117__compressed_pairIZN5Scene18createBlocksWindowEiiiiE3$_9NS_9allocatorIS2_EEE6secondB7v160006Ev', symObjAddr: 0x12FF8, symBinAddr: 0x10001642C, symSize: 0x24 }
  - { offsetInCU: 0x39125, offset: 0x4CCA7, size: 0x8, addend: 0x0, symName: '__ZNKSt3__122__compressed_pair_elemINS_9allocatorIZN5Scene18createBlocksWindowEiiiiE3$_9EELi1ELb1EE5__getB7v160006Ev', symObjAddr: 0x1301C, symBinAddr: 0x100016450, symSize: 0x14 }
  - { offsetInCU: 0x3914A, offset: 0x4CCCC, size: 0x8, addend: 0x0, symName: '__ZNSt3__110unique_ptrINS_10__function6__funcIZN5Scene18createBlocksWindowEiiiiE3$_9NS_9allocatorIS4_EEFvvEEENS_22__allocator_destructorINS5_IS8_EEEEEC2B7v160006ILb1EvEEPS8_NS_16__dependent_typeINS_27__unique_ptr_deleter_sfinaeISB_EEXT_EE20__good_rval_ref_typeE', symObjAddr: 0x13030, symBinAddr: 0x100016464, symSize: 0x48 }
  - { offsetInCU: 0x3919A, offset: 0x4CD1C, size: 0x8, addend: 0x0, symName: '__ZNKSt3__117__compressed_pairIZN5Scene18createBlocksWindowEiiiiE3$_9NS_9allocatorIS2_EEE5firstB7v160006Ev', symObjAddr: 0x13078, symBinAddr: 0x1000164AC, symSize: 0x24 }
  - { offsetInCU: 0x391BE, offset: 0x4CD40, size: 0x8, addend: 0x0, symName: '__ZNKSt3__122__compressed_pair_elemIZN5Scene18createBlocksWindowEiiiiE3$_9Li0ELb0EE5__getB7v160006Ev', symObjAddr: 0x1309C, symBinAddr: 0x1000164D0, symSize: 0x14 }
  - { offsetInCU: 0x391E3, offset: 0x4CD65, size: 0x8, addend: 0x0, symName: '__ZNSt3__19allocatorIZN5Scene18createBlocksWindowEiiiiE3$_9EC2B7v160006INS_10__function6__funcIS2_S3_FvvEEEEERKNS0_IT_EE', symObjAddr: 0x130B0, symBinAddr: 0x1000164E4, symSize: 0x30 }
  - { offsetInCU: 0x39220, offset: 0x4CDA2, size: 0x8, addend: 0x0, symName: '__ZNSt3__110__function6__funcIZN5Scene18createBlocksWindowEiiiiE3$_9NS_9allocatorIS3_EEFvvEEC2B7v160006ERKS3_OS5_', symObjAddr: 0x130E0, symBinAddr: 0x100016514, symSize: 0x88 }
  - { offsetInCU: 0x39267, offset: 0x4CDE9, size: 0x8, addend: 0x0, symName: '__ZNSt3__110__function12__alloc_funcIZN5Scene18createBlocksWindowEiiiiE3$_9NS_9allocatorIS3_EEFvvEEC1B7v160006ERKS3_OS5_', symObjAddr: 0x13168, symBinAddr: 0x10001659C, symSize: 0x3C }
  - { offsetInCU: 0x392AC, offset: 0x4CE2E, size: 0x8, addend: 0x0, symName: '__ZNSt3__110__function12__alloc_funcIZN5Scene18createBlocksWindowEiiiiE3$_9NS_9allocatorIS3_EEFvvEEC2B7v160006ERKS3_OS5_', symObjAddr: 0x131A4, symBinAddr: 0x1000165D8, symSize: 0x5C }
  - { offsetInCU: 0x392F1, offset: 0x4CE73, size: 0x8, addend: 0x0, symName: '__ZNSt3__117__compressed_pairIZN5Scene18createBlocksWindowEiiiiE3$_9NS_9allocatorIS2_EEEC1B7v160006IJRKS2_EJOS4_EEENS_21piecewise_construct_tENS_5tupleIJDpT_EEENSB_IJDpT0_EEE', symObjAddr: 0x1322C, symBinAddr: 0x100016660, symSize: 0x3C }
  - { offsetInCU: 0x3935A, offset: 0x4CEDC, size: 0x8, addend: 0x0, symName: '__ZNSt3__15tupleIJRKZN5Scene18createBlocksWindowEiiiiE3$_9EEC1B7v160006INS_4_AndELi0EEES4_', symObjAddr: 0x13268, symBinAddr: 0x10001669C, symSize: 0x34 }
  - { offsetInCU: 0x393A3, offset: 0x4CF25, size: 0x8, addend: 0x0, symName: '__ZNSt3__15tupleIJRKZN5Scene18createBlocksWindowEiiiiE3$_9EEC2B7v160006INS_4_AndELi0EEES4_', symObjAddr: 0x1329C, symBinAddr: 0x1000166D0, symSize: 0x34 }
  - { offsetInCU: 0x393EC, offset: 0x4CF6E, size: 0x8, addend: 0x0, symName: '__ZNSt3__112__tuple_implINS_15__tuple_indicesIJLm0EEEEJRKZN5Scene18createBlocksWindowEiiiiE3$_9EEC1B7v160006IJLm0EEJS6_EJEJEJS6_EEENS1_IJXspT_EEEENS_13__tuple_typesIJDpT0_EEENS1_IJXspT1_EEEENSA_IJDpT2_EEEDpOT3_', symObjAddr: 0x132D0, symBinAddr: 0x100016704, symSize: 0x34 }
  - { offsetInCU: 0x39480, offset: 0x4D002, size: 0x8, addend: 0x0, symName: '__ZNSt3__112__tuple_implINS_15__tuple_indicesIJLm0EEEEJRKZN5Scene18createBlocksWindowEiiiiE3$_9EEC2B7v160006IJLm0EEJS6_EJEJEJS6_EEENS1_IJXspT_EEEENS_13__tuple_typesIJDpT0_EEENS1_IJXspT1_EEEENSA_IJDpT2_EEEDpOT3_', symObjAddr: 0x13304, symBinAddr: 0x100016738, symSize: 0x34 }
  - { offsetInCU: 0x39514, offset: 0x4D096, size: 0x8, addend: 0x0, symName: '__ZNSt3__112__tuple_leafILm0ERKZN5Scene18createBlocksWindowEiiiiE3$_9Lb0EEC2B7v160006IS4_vEEOT_', symObjAddr: 0x13338, symBinAddr: 0x10001676C, symSize: 0x20 }
  - { offsetInCU: 0x39556, offset: 0x4D0D8, size: 0x8, addend: 0x0, symName: '__ZNSt3__117__compressed_pairIZN5Scene18createBlocksWindowEiiiiE3$_9NS_9allocatorIS2_EEEC2B7v160006IJRKS2_EJOS4_EEENS_21piecewise_construct_tENS_5tupleIJDpT_EEENSB_IJDpT0_EEE', symObjAddr: 0x13358, symBinAddr: 0x10001678C, symSize: 0x54 }
  - { offsetInCU: 0x395BF, offset: 0x4D141, size: 0x8, addend: 0x0, symName: '__ZNSt3__122__compressed_pair_elemIZN5Scene18createBlocksWindowEiiiiE3$_9Li0ELb0EEC2B7v160006IJRKS2_EJLm0EEEENS_21piecewise_construct_tENS_5tupleIJDpT_EEENS_15__tuple_indicesIJXspT0_EEEE', symObjAddr: 0x133AC, symBinAddr: 0x1000167E0, symSize: 0x44 }
  - { offsetInCU: 0x39623, offset: 0x4D1A5, size: 0x8, addend: 0x0, symName: '__ZZN5Scene18createBlocksWindowEiiiiEN3$_9C1ERKS0_', symObjAddr: 0x13414, symBinAddr: 0x100016848, symSize: 0x34 }
  - { offsetInCU: 0x39657, offset: 0x4D1D9, size: 0x8, addend: 0x0, symName: '__ZNSt3__112__tuple_leafILm0ERKZN5Scene18createBlocksWindowEiiiiE3$_9Lb0EE3getB7v160006Ev', symObjAddr: 0x13448, symBinAddr: 0x10001687C, symSize: 0x18 }
  - { offsetInCU: 0x3967C, offset: 0x4D1FE, size: 0x8, addend: 0x0, symName: '__ZZN5Scene18createBlocksWindowEiiiiEN3$_9C2ERKS0_', symObjAddr: 0x13460, symBinAddr: 0x100016894, symSize: 0x48 }
  - { offsetInCU: 0x396B0, offset: 0x4D232, size: 0x8, addend: 0x0, symName: '__ZNSt3__117__compressed_pairIPNS_10__function6__funcIZN5Scene18createBlocksWindowEiiiiE3$_9NS_9allocatorIS4_EEFvvEEENS_22__allocator_destructorINS5_IS8_EEEEE5firstB7v160006Ev', symObjAddr: 0x134A8, symBinAddr: 0x1000168DC, symSize: 0x24 }
  - { offsetInCU: 0x396D4, offset: 0x4D256, size: 0x8, addend: 0x0, symName: '__ZNSt3__122__compressed_pair_elemIPNS_10__function6__funcIZN5Scene18createBlocksWindowEiiiiE3$_9NS_9allocatorIS4_EEFvvEEELi0ELb0EE5__getB7v160006Ev', symObjAddr: 0x134CC, symBinAddr: 0x100016900, symSize: 0x14 }
  - { offsetInCU: 0x396F9, offset: 0x4D27B, size: 0x8, addend: 0x0, symName: '__ZNSt3__110unique_ptrINS_10__function6__funcIZN5Scene18createBlocksWindowEiiiiE3$_9NS_9allocatorIS4_EEFvvEEENS_22__allocator_destructorINS5_IS8_EEEEED2B7v160006Ev', symObjAddr: 0x134E0, symBinAddr: 0x100016914, symSize: 0x30 }
  - { offsetInCU: 0x39722, offset: 0x4D2A4, size: 0x8, addend: 0x0, symName: '__ZNSt3__110unique_ptrINS_10__function6__funcIZN5Scene18createBlocksWindowEiiiiE3$_9NS_9allocatorIS4_EEFvvEEENS_22__allocator_destructorINS5_IS8_EEEEE5resetB7v160006EPS8_', symObjAddr: 0x13510, symBinAddr: 0x100016944, symSize: 0x78 }
  - { offsetInCU: 0x39764, offset: 0x4D2E6, size: 0x8, addend: 0x0, symName: '__ZNSt3__117__compressed_pairIPNS_10__function6__funcIZN5Scene18createBlocksWindowEiiiiE3$_9NS_9allocatorIS4_EEFvvEEENS_22__allocator_destructorINS5_IS8_EEEEE6secondB7v160006Ev', symObjAddr: 0x13588, symBinAddr: 0x1000169BC, symSize: 0x28 }
  - { offsetInCU: 0x39788, offset: 0x4D30A, size: 0x8, addend: 0x0, symName: '__ZNSt3__122__allocator_destructorINS_9allocatorINS_10__function6__funcIZN5Scene18createBlocksWindowEiiiiE3$_9NS1_IS5_EEFvvEEEEEEclB7v160006EPS8_', symObjAddr: 0x135B0, symBinAddr: 0x1000169E4, symSize: 0x34 }
  - { offsetInCU: 0x397BA, offset: 0x4D33C, size: 0x8, addend: 0x0, symName: '__ZNSt3__122__compressed_pair_elemINS_22__allocator_destructorINS_9allocatorINS_10__function6__funcIZN5Scene18createBlocksWindowEiiiiE3$_9NS2_IS6_EEFvvEEEEEEELi1ELb0EE5__getB7v160006Ev', symObjAddr: 0x135E4, symBinAddr: 0x100016A18, symSize: 0x14 }
  - { offsetInCU: 0x397DF, offset: 0x4D361, size: 0x8, addend: 0x0, symName: '__ZNSt3__116allocator_traitsINS_9allocatorINS_10__function6__funcIZN5Scene18createBlocksWindowEiiiiE3$_9NS1_IS5_EEFvvEEEEEE10deallocateB7v160006ERS9_PS8_m', symObjAddr: 0x135F8, symBinAddr: 0x100016A2C, symSize: 0x34 }
  - { offsetInCU: 0x39821, offset: 0x4D3A3, size: 0x8, addend: 0x0, symName: '__ZNSt3__19allocatorINS_10__function6__funcIZN5Scene18createBlocksWindowEiiiiE3$_9NS0_IS4_EEFvvEEEE10deallocateB7v160006EPS7_m', symObjAddr: 0x1362C, symBinAddr: 0x100016A60, symSize: 0x44 }
  - { offsetInCU: 0x39861, offset: 0x4D3E3, size: 0x8, addend: 0x0, symName: '__ZNSt3__110__function6__funcIZN5Scene18createBlocksWindowEiiiiE3$_9NS_9allocatorIS3_EEFvvEEC1B7v160006ERKS3_RKS5_', symObjAddr: 0x13670, symBinAddr: 0x100016AA4, symSize: 0x3C }
  - { offsetInCU: 0x398A8, offset: 0x4D42A, size: 0x8, addend: 0x0, symName: '__ZNSt3__110__function6__funcIZN5Scene18createBlocksWindowEiiiiE3$_9NS_9allocatorIS3_EEFvvEEC2B7v160006ERKS3_RKS5_', symObjAddr: 0x136AC, symBinAddr: 0x100016AE0, symSize: 0x88 }
  - { offsetInCU: 0x398EF, offset: 0x4D471, size: 0x8, addend: 0x0, symName: '__ZNSt3__110__function12__alloc_funcIZN5Scene18createBlocksWindowEiiiiE3$_9NS_9allocatorIS3_EEFvvEEC1B7v160006ERKS3_RKS5_', symObjAddr: 0x13734, symBinAddr: 0x100016B68, symSize: 0x3C }
  - { offsetInCU: 0x39934, offset: 0x4D4B6, size: 0x8, addend: 0x0, symName: '__ZNSt3__110__function12__alloc_funcIZN5Scene18createBlocksWindowEiiiiE3$_9NS_9allocatorIS3_EEFvvEEC2B7v160006ERKS3_RKS5_', symObjAddr: 0x13770, symBinAddr: 0x100016BA4, symSize: 0x5C }
  - { offsetInCU: 0x39979, offset: 0x4D4FB, size: 0x8, addend: 0x0, symName: '__ZNSt3__117__compressed_pairIZN5Scene18createBlocksWindowEiiiiE3$_9NS_9allocatorIS2_EEEC1B7v160006IJRKS2_EJRKS4_EEENS_21piecewise_construct_tENS_5tupleIJDpT_EEENSC_IJDpT0_EEE', symObjAddr: 0x137F8, symBinAddr: 0x100016C2C, symSize: 0x3C }
  - { offsetInCU: 0x399E2, offset: 0x4D564, size: 0x8, addend: 0x0, symName: '__ZNSt3__15tupleIJRKNS_9allocatorIZN5Scene18createBlocksWindowEiiiiE3$_9EEEEC1B7v160006INS_4_AndELi0EEES6_', symObjAddr: 0x13834, symBinAddr: 0x100016C68, symSize: 0x34 }
  - { offsetInCU: 0x39A2B, offset: 0x4D5AD, size: 0x8, addend: 0x0, symName: '__ZNSt3__15tupleIJRKNS_9allocatorIZN5Scene18createBlocksWindowEiiiiE3$_9EEEEC2B7v160006INS_4_AndELi0EEES6_', symObjAddr: 0x13868, symBinAddr: 0x100016C9C, symSize: 0x34 }
  - { offsetInCU: 0x39A74, offset: 0x4D5F6, size: 0x8, addend: 0x0, symName: '__ZNSt3__112__tuple_implINS_15__tuple_indicesIJLm0EEEEJRKNS_9allocatorIZN5Scene18createBlocksWindowEiiiiE3$_9EEEEC1B7v160006IJLm0EEJS8_EJEJEJS8_EEENS1_IJXspT_EEEENS_13__tuple_typesIJDpT0_EEENS1_IJXspT1_EEEENSC_IJDpT2_EEEDpOT3_', symObjAddr: 0x1389C, symBinAddr: 0x100016CD0, symSize: 0x34 }
  - { offsetInCU: 0x39B08, offset: 0x4D68A, size: 0x8, addend: 0x0, symName: '__ZNSt3__112__tuple_implINS_15__tuple_indicesIJLm0EEEEJRKNS_9allocatorIZN5Scene18createBlocksWindowEiiiiE3$_9EEEEC2B7v160006IJLm0EEJS8_EJEJEJS8_EEENS1_IJXspT_EEEENS_13__tuple_typesIJDpT0_EEENS1_IJXspT1_EEEENSC_IJDpT2_EEEDpOT3_', symObjAddr: 0x138D0, symBinAddr: 0x100016D04, symSize: 0x34 }
  - { offsetInCU: 0x39B9C, offset: 0x4D71E, size: 0x8, addend: 0x0, symName: '__ZNSt3__112__tuple_leafILm0ERKNS_9allocatorIZN5Scene18createBlocksWindowEiiiiE3$_9EELb0EEC2B7v160006IS6_vEEOT_', symObjAddr: 0x13904, symBinAddr: 0x100016D38, symSize: 0x20 }
  - { offsetInCU: 0x39BDE, offset: 0x4D760, size: 0x8, addend: 0x0, symName: '__ZNSt3__117__compressed_pairIZN5Scene18createBlocksWindowEiiiiE3$_9NS_9allocatorIS2_EEEC2B7v160006IJRKS2_EJRKS4_EEENS_21piecewise_construct_tENS_5tupleIJDpT_EEENSC_IJDpT0_EEE', symObjAddr: 0x13924, symBinAddr: 0x100016D58, symSize: 0x7C }
  - { offsetInCU: 0x39C47, offset: 0x4D7C9, size: 0x8, addend: 0x0, symName: '__ZNSt3__122__compressed_pair_elemINS_9allocatorIZN5Scene18createBlocksWindowEiiiiE3$_9EELi1ELb1EEC2B7v160006IJRKS4_EJLm0EEEENS_21piecewise_construct_tENS_5tupleIJDpT_EEENS_15__tuple_indicesIJXspT0_EEEE', symObjAddr: 0x139A0, symBinAddr: 0x100016DD4, symSize: 0x38 }
  - { offsetInCU: 0x39CAB, offset: 0x4D82D, size: 0x8, addend: 0x0, symName: '__ZNSt3__112__tuple_leafILm0ERKNS_9allocatorIZN5Scene18createBlocksWindowEiiiiE3$_9EELb0EE3getB7v160006Ev', symObjAddr: 0x139FC, symBinAddr: 0x100016E30, symSize: 0x18 }
  - { offsetInCU: 0x39CD0, offset: 0x4D852, size: 0x8, addend: 0x0, symName: '__ZNSt3__110__function12__alloc_funcIZN5Scene18createBlocksWindowEiiiiE3$_9NS_9allocatorIS3_EEFvvEE7destroyB7v160006Ev', symObjAddr: 0x13A14, symBinAddr: 0x100016E48, symSize: 0x24 }
  - { offsetInCU: 0x39CF4, offset: 0x4D876, size: 0x8, addend: 0x0, symName: '__ZNSt3__110__function12__alloc_funcIZN5Scene18createBlocksWindowEiiiiE3$_9NS_9allocatorIS3_EEFvvEEclB7v160006Ev', symObjAddr: 0x13A38, symBinAddr: 0x100016E6C, symSize: 0x28 }
  - { offsetInCU: 0x39D18, offset: 0x4D89A, size: 0x8, addend: 0x0, symName: '__ZNSt3__128__invoke_void_return_wrapperIvLb1EE6__callIJRZN5Scene18createBlocksWindowEiiiiE3$_9EEEvDpOT_', symObjAddr: 0x13A60, symBinAddr: 0x100016E94, symSize: 0x24 }
  - { offsetInCU: 0x39D47, offset: 0x4D8C9, size: 0x8, addend: 0x0, symName: '__ZNSt3__117__compressed_pairIZN5Scene18createBlocksWindowEiiiiE3$_9NS_9allocatorIS2_EEE5firstB7v160006Ev', symObjAddr: 0x13A84, symBinAddr: 0x100016EB8, symSize: 0x24 }
  - { offsetInCU: 0x39D6B, offset: 0x4D8ED, size: 0x8, addend: 0x0, symName: '__ZZN5Scene18createBlocksWindowEiiiiENK3$_9clEv', symObjAddr: 0x13ACC, symBinAddr: 0x100016F00, symSize: 0x70 }
  - { offsetInCU: 0x39D94, offset: 0x4D916, size: 0x8, addend: 0x0, symName: '__ZNSt3__122__compressed_pair_elemIZN5Scene18createBlocksWindowEiiiiE3$_9Li0ELb0EE5__getB7v160006Ev', symObjAddr: 0x13B3C, symBinAddr: 0x100016F70, symSize: 0x14 }
  - { offsetInCU: 0x39DB9, offset: 0x4D93B, size: 0x8, addend: 0x0, symName: '__ZNSt3__110unique_ptrINS_10__function6__baseIFvvEEENS_22__allocator_destructorINS_9allocatorINS1_6__funcIZN5Scene18createBlocksWindowEiiiiE3$_9NS6_IS9_EES3_EEEEEEED2B7v160006Ev', symObjAddr: 0x13B50, symBinAddr: 0x100016F84, symSize: 0x30 }
  - { offsetInCU: 0x39DE2, offset: 0x4D964, size: 0x8, addend: 0x0, symName: '__ZNSt3__110unique_ptrINS_10__function6__baseIFvvEEENS_22__allocator_destructorINS_9allocatorINS1_6__funcIZN5Scene18createBlocksWindowEiiiiE3$_9NS6_IS9_EES3_EEEEEEE5resetB7v160006EPSB_', symObjAddr: 0x13B80, symBinAddr: 0x100016FB4, symSize: 0x78 }
  - { offsetInCU: 0x39E24, offset: 0x4D9A6, size: 0x8, addend: 0x0, symName: __ZNKSt3__16vectorIP6WindowNS_9allocatorIS2_EEE20__throw_out_of_rangeB7v160006Ev, symObjAddr: 0x13BF8, symBinAddr: 0x10001702C, symSize: 0x1C }
  - { offsetInCU: 0x39E48, offset: 0x4D9CA, size: 0x8, addend: 0x0, symName: __ZNSt12out_of_rangeC1B7v160006EPKc, symObjAddr: 0x13C78, symBinAddr: 0x1000170AC, symSize: 0x34 }
  - { offsetInCU: 0x39E7F, offset: 0x4DA01, size: 0x8, addend: 0x0, symName: __ZNSt12out_of_rangeC2B7v160006EPKc, symObjAddr: 0x13CAC, symBinAddr: 0x1000170E0, symSize: 0x4C }
  - { offsetInCU: 0x39EB6, offset: 0x4DA38, size: 0x8, addend: 0x0, symName: __ZNSt3__111char_traitsIcE7compareEPKcS3_m, symObjAddr: 0x13CF8, symBinAddr: 0x10001712C, symSize: 0x6C }
  - { offsetInCU: 0x39EF5, offset: 0x4DA77, size: 0x8, addend: 0x0, symName: __ZNSt3__16vectorIP6WindowNS_9allocatorIS2_EEE11__make_iterB7v160006EPS2_, symObjAddr: 0x13D98, symBinAddr: 0x1000171CC, symSize: 0x34 }
  - { offsetInCU: 0x39F28, offset: 0x4DAAA, size: 0x8, addend: 0x0, symName: __ZNSt3__111__wrap_iterIPP6WindowEC1B7v160006EPKvS3_, symObjAddr: 0x13DCC, symBinAddr: 0x100017200, symSize: 0x3C }
  - { offsetInCU: 0x39F6D, offset: 0x4DAEF, size: 0x8, addend: 0x0, symName: __ZNSt3__111__wrap_iterIPP6WindowEC2B7v160006EPKvS3_, symObjAddr: 0x13E08, symBinAddr: 0x10001723C, symSize: 0x24 }
  - { offsetInCU: 0x39FB2, offset: 0x4DB34, size: 0x8, addend: 0x0, symName: __ZNSt3__111__wrap_iterIPP6WindowEpLB7v160006El, symObjAddr: 0x13E2C, symBinAddr: 0x100017260, symSize: 0x28 }
  - { offsetInCU: 0x39FE5, offset: 0x4DB67, size: 0x8, addend: 0x0, symName: __ZNKSt3__16vectorIP6WindowNS_9allocatorIS2_EEE6cbeginB7v160006Ev, symObjAddr: 0x13E9C, symBinAddr: 0x1000172D0, symSize: 0x2C }
  - { offsetInCU: 0x3A009, offset: 0x4DB8B, size: 0x8, addend: 0x0, symName: __ZNSt3__16vectorIP6WindowNS_9allocatorIS2_EEE17__destruct_at_endB7v160006EPS2_, symObjAddr: 0x13EC8, symBinAddr: 0x1000172FC, symSize: 0x60 }
  - { offsetInCU: 0x3A04B, offset: 0x4DBCD, size: 0x8, addend: 0x0, symName: __ZNSt3__16vectorIP6WindowNS_9allocatorIS2_EEE27__invalidate_iterators_pastB7v160006EPS2_, symObjAddr: 0x13F68, symBinAddr: 0x10001739C, symSize: 0x14 }
  - { offsetInCU: 0x3A081, offset: 0x4DC03, size: 0x8, addend: 0x0, symName: __ZNKSt3__111__wrap_iterIPKP6WindowE4baseB7v160006Ev, symObjAddr: 0x13F7C, symBinAddr: 0x1000173B0, symSize: 0x18 }
  - { offsetInCU: 0x3A0A6, offset: 0x4DC28, size: 0x8, addend: 0x0, symName: __ZNKSt3__16vectorIP6WindowNS_9allocatorIS2_EEE5beginB7v160006Ev, symObjAddr: 0x13F94, symBinAddr: 0x1000173C8, symSize: 0x30 }
  - { offsetInCU: 0x3A0CD, offset: 0x4DC4F, size: 0x8, addend: 0x0, symName: __ZNKSt3__16vectorIP6WindowNS_9allocatorIS2_EEE11__make_iterB7v160006EPKS2_, symObjAddr: 0x13FC4, symBinAddr: 0x1000173F8, symSize: 0x34 }
  - { offsetInCU: 0x3A100, offset: 0x4DC82, size: 0x8, addend: 0x0, symName: __ZNSt3__111__wrap_iterIPKP6WindowEC1B7v160006EPKvS4_, symObjAddr: 0x13FF8, symBinAddr: 0x10001742C, symSize: 0x3C }
  - { offsetInCU: 0x3A145, offset: 0x4DCC7, size: 0x8, addend: 0x0, symName: __ZNSt3__111__wrap_iterIPKP6WindowEC2B7v160006EPKvS4_, symObjAddr: 0x14034, symBinAddr: 0x100017468, symSize: 0x24 }
  - { offsetInCU: 0x3A18A, offset: 0x4DD0C, size: 0x8, addend: 0x0, symName: __ZNKSt3__16vectorIP6WindowNS_9allocatorIS2_EEE17__annotate_shrinkB7v160006Em, symObjAddr: 0x140E4, symBinAddr: 0x10001748C, symSize: 0xB4 }
  - { offsetInCU: 0x3A1E0, offset: 0x4DD62, size: 0x8, addend: 0x0, symName: __ZNKSt3__114__move_trivialclB7v160006IP6WindowS3_Li0EEENS_4pairIPT_PT0_EES6_S6_S8_, symObjAddr: 0x14334, symBinAddr: 0x1000176DC, symSize: 0x48 }
  - { offsetInCU: 0x3A24C, offset: 0x4DDCE, size: 0x8, addend: 0x0, symName: __ZNSt3__14pairIPP6WindowS3_EC1B7v160006IRS3_S3_LPv0EEEOT_OT0_, symObjAddr: 0x144FC, symBinAddr: 0x1000178A4, symSize: 0x3C }
  - { offsetInCU: 0x3A2A9, offset: 0x4DE2B, size: 0x8, addend: 0x0, symName: __ZNSt3__14pairIPP6WindowS3_EC2B7v160006IRS3_S3_LPv0EEEOT_OT0_, symObjAddr: 0x14538, symBinAddr: 0x1000178E0, symSize: 0x34 }
  - { offsetInCU: 0x3A306, offset: 0x4DE88, size: 0x8, addend: 0x0, symName: __ZNSt3__118__unwrap_iter_implIPP6WindowLb1EE8__unwrapB7v160006ES3_, symObjAddr: 0x1456C, symBinAddr: 0x100017914, symSize: 0x24 }
  - { offsetInCU: 0x3A329, offset: 0x4DEAB, size: 0x8, addend: 0x0, symName: __ZNSt3__14pairIPP6WindowS3_EC1B7v160006IS3_S3_LPv0EEEOT_OT0_, symObjAddr: 0x14590, symBinAddr: 0x100017938, symSize: 0x3C }
  - { offsetInCU: 0x3A386, offset: 0x4DF08, size: 0x8, addend: 0x0, symName: __ZNSt3__14pairIPP6WindowS3_EC2B7v160006IS3_S3_LPv0EEEOT_OT0_, symObjAddr: 0x145CC, symBinAddr: 0x100017974, symSize: 0x34 }
  - { offsetInCU: 0x3A3E3, offset: 0x4DF65, size: 0x8, addend: 0x0, symName: __ZNSt3__118__unwrap_iter_implIPP6WindowLb1EE8__rewrapB7v160006ES3_S3_, symObjAddr: 0x14600, symBinAddr: 0x1000179A8, symSize: 0x50 }
  - { offsetInCU: 0x3A414, offset: 0x4DF96, size: 0x8, addend: 0x0, symName: __ZNSt3__111__wrap_iterIPKP6WindowEC2B7v160006IPS2_EERKNS0_IT_EEPNS_9enable_ifIXsr14is_convertibleIS8_S4_EE5valueEvE4typeE, symObjAddr: 0x14650, symBinAddr: 0x1000179F8, symSize: 0x40 }
  - { offsetInCU: 0x3A45F, offset: 0x4DFE1, size: 0x8, addend: 0x0, symName: __ZNKSt3__111__wrap_iterIPP6WindowE4baseB7v160006Ev, symObjAddr: 0x14690, symBinAddr: 0x100017A38, symSize: 0x18 }
  - { offsetInCU: 0x5C, offset: 0x4E876, size: 0x8, addend: 0x0, symName: __ZNSt3__1L19piecewise_constructE, symObjAddr: 0x125B9, symBinAddr: 0x1000638AD, symSize: 0x0 }
  - { offsetInCU: 0x58C6, offset: 0x540E0, size: 0x8, addend: 0x0, symName: '__ZNSt3__110__function10__not_nullB7v160006IZN3BotC1EP6BlocksE3$_0EEbRKT_', symObjAddr: 0xB00C, symBinAddr: 0x10002263C, symSize: 0x18 }
  - { offsetInCU: 0xBBB9, offset: 0x5A3D3, size: 0x8, addend: 0x0, symName: __ZNSt3__17advanceB7v160006IPKNS_6vectorIiNS_9allocatorIiEEEEmmvEEvRT_T0_, symObjAddr: 0x3AB0, symBinAddr: 0x10001B478, symSize: 0x50 }
  - { offsetInCU: 0xBC46, offset: 0x5A460, size: 0x8, addend: 0x0, symName: __ZNSt3__17advanceB7v160006IPimmvEEvRT_T0_, symObjAddr: 0x4578, symBinAddr: 0x10001BF40, symSize: 0x50 }
  - { offsetInCU: 0xC602, offset: 0x5AE1C, size: 0x8, addend: 0x0, symName: __ZNSt3__17advanceB7v160006IPN3Bot23HorizonCrawlerDirectionEmmvEEvRT_T0_, symObjAddr: 0x9040, symBinAddr: 0x100020670, symSize: 0x50 }
  - { offsetInCU: 0xEEB6, offset: 0x5D6D0, size: 0x8, addend: 0x0, symName: __ZNSt3__19make_pairB7v160006IRifEENS_4pairINS_18__unwrap_ref_decayIT_E4typeENS3_IT0_E4typeEEEOS4_OS7_, symObjAddr: 0x1048, symBinAddr: 0x100018A98, symSize: 0x34 }
  - { offsetInCU: 0xEF05, offset: 0x5D71F, size: 0x8, addend: 0x0, symName: __ZNSt3__119__debug_db_insert_cB7v160006INS_6vectorIN3Bot23HorizonCrawlerDirectionENS_9allocatorIS3_EEEEEEvPT_, symObjAddr: 0x1A38, symBinAddr: 0x10001947C, symSize: 0x10 }
  - { offsetInCU: 0xEF36, offset: 0x5D750, size: 0x8, addend: 0x0, symName: __ZNSt3__118__debug_db_erase_cB7v160006INS_6vectorIN3Bot23HorizonCrawlerDirectionENS_9allocatorIS3_EEEEEEvPT_, symObjAddr: 0x1D54, symBinAddr: 0x100019798, symSize: 0x10 }
  - { offsetInCU: 0xEF67, offset: 0x5D781, size: 0x8, addend: 0x0, symName: __ZNSt3__112__to_addressB7v160006IN3Bot23HorizonCrawlerDirectionEEEPT_S4_, symObjAddr: 0x1E70, symBinAddr: 0x1000198B4, symSize: 0x14 }
  - { offsetInCU: 0xEF9C, offset: 0x5D7B6, size: 0x8, addend: 0x0, symName: __ZNSt3__119__debug_db_insert_cB7v160006INS_6vectorINS1_IiNS_9allocatorIiEEEENS2_IS4_EEEEEEvPT_, symObjAddr: 0x37B0, symBinAddr: 0x10001B178, symSize: 0x10 }
  - { offsetInCU: 0xEFCD, offset: 0x5D7E7, size: 0x8, addend: 0x0, symName: __ZNSt3__18distanceB7v160006IPKNS_6vectorIiNS_9allocatorIiEEEEEENS_15iterator_traitsIT_E15difference_typeES8_S8_, symObjAddr: 0x3A44, symBinAddr: 0x10001B40C, symSize: 0x2C }
  - { offsetInCU: 0xF010, offset: 0x5D82A, size: 0x8, addend: 0x0, symName: __ZNSt3__14copyB7v160006IPKNS_6vectorIiNS_9allocatorIiEEEEPS4_EET0_T_S9_S8_, symObjAddr: 0x3B00, symBinAddr: 0x10001B4C8, symSize: 0x40 }
  - { offsetInCU: 0xF06A, offset: 0x5D884, size: 0x8, addend: 0x0, symName: __ZNSt3__125__debug_db_invalidate_allB7v160006INS_6vectorINS1_IiNS_9allocatorIiEEEENS2_IS4_EEEEEEvPT_, symObjAddr: 0x3E20, symBinAddr: 0x10001B7E8, symSize: 0x10 }
  - { offsetInCU: 0xF09B, offset: 0x5D8B5, size: 0x8, addend: 0x0, symName: __ZNSt3__110__distanceB7v160006IPKNS_6vectorIiNS_9allocatorIiEEEEEENS_15iterator_traitsIT_E15difference_typeES8_S8_NS_26random_access_iterator_tagE, symObjAddr: 0x3E30, symBinAddr: 0x10001B7F8, symSize: 0x28 }
  - { offsetInCU: 0xF0E9, offset: 0x5D903, size: 0x8, addend: 0x0, symName: __ZNSt3__121__convert_to_integralB7v160006Em, symObjAddr: 0x3EB8, symBinAddr: 0x10001B880, symSize: 0x14 }
  - { offsetInCU: 0xF115, offset: 0x5D92F, size: 0x8, addend: 0x0, symName: __ZNSt3__19__advanceB7v160006IPKNS_6vectorIiNS_9allocatorIiEEEEEEvRT_NS_15iterator_traitsIS7_E15difference_typeENS_26random_access_iterator_tagE, symObjAddr: 0x3ECC, symBinAddr: 0x10001B894, symSize: 0x30 }
  - { offsetInCU: 0xF15F, offset: 0x5D979, size: 0x8, addend: 0x0, symName: __ZNSt3__16__copyB7v160006INS_17_ClassicAlgPolicyEPKNS_6vectorIiNS_9allocatorIiEEEES7_PS5_EENS_4pairIT0_T2_EESA_T1_SB_, symObjAddr: 0x3EFC, symBinAddr: 0x10001B8C4, symSize: 0x44 }
  - { offsetInCU: 0xF1CB, offset: 0x5D9E5, size: 0x8, addend: 0x0, symName: __ZNSt3__123__dispatch_copy_or_moveB7v160006INS_17_ClassicAlgPolicyENS_11__copy_loopIS1_EENS_14__copy_trivialEPKNS_6vectorIiNS_9allocatorIiEEEESA_PS8_EENS_4pairIT2_T4_EESD_T3_SE_, symObjAddr: 0x3F40, symBinAddr: 0x10001B908, symSize: 0x44 }
  - { offsetInCU: 0xF249, offset: 0x5DA63, size: 0x8, addend: 0x0, symName: __ZNSt3__121__unwrap_and_dispatchB7v160006INS_10__overloadINS_11__copy_loopINS_17_ClassicAlgPolicyEEENS_14__copy_trivialEEEPKNS_6vectorIiNS_9allocatorIiEEEESC_PSA_Li0EEENS_4pairIT0_T2_EESF_T1_SG_, symObjAddr: 0x3F84, symBinAddr: 0x10001B94C, symSize: 0xB4 }
  - { offsetInCU: 0xF2DA, offset: 0x5DAF4, size: 0x8, addend: 0x0, symName: __ZNSt3__114__unwrap_rangeB7v160006IPKNS_6vectorIiNS_9allocatorIiEEEES6_EENS_4pairIT0_S8_EET_SA_, symObjAddr: 0x4038, symBinAddr: 0x10001BA00, symSize: 0x60 }
  - { offsetInCU: 0xF44C, offset: 0x5DC66, size: 0x8, addend: 0x0, symName: __ZNSt3__113__unwrap_iterB7v160006IPNS_6vectorIiNS_9allocatorIiEEEENS_18__unwrap_iter_implIS5_Lb1EEELi0EEEDTclsrT0_8__unwrapclsr3stdE7declvalIT_EEEES9_, symObjAddr: 0x4120, symBinAddr: 0x10001BAE8, symSize: 0x24 }
  - { offsetInCU: 0xF491, offset: 0x5DCAB, size: 0x8, addend: 0x0, symName: __ZNSt3__19make_pairB7v160006IPKNS_6vectorIiNS_9allocatorIiEEEEPS4_EENS_4pairINS_18__unwrap_ref_decayIT_E4typeENS9_IT0_E4typeEEEOSA_OSD_, symObjAddr: 0x4144, symBinAddr: 0x10001BB0C, symSize: 0x38 }
  - { offsetInCU: 0xF4E0, offset: 0x5DCFA, size: 0x8, addend: 0x0, symName: __ZNSt3__114__rewrap_rangeB7v160006IPKNS_6vectorIiNS_9allocatorIiEEEES6_EET_S7_T0_, symObjAddr: 0x417C, symBinAddr: 0x10001BB44, symSize: 0x2C }
  - { offsetInCU: 0xF52C, offset: 0x5DD46, size: 0x8, addend: 0x0, symName: __ZNSt3__113__rewrap_iterB7v160006IPNS_6vectorIiNS_9allocatorIiEEEES5_NS_18__unwrap_iter_implIS5_Lb1EEEEET_S8_T0_, symObjAddr: 0x41A8, symBinAddr: 0x10001BB70, symSize: 0x3C }
  - { offsetInCU: 0xF581, offset: 0x5DD9B, size: 0x8, addend: 0x0, symName: __ZNSt3__19make_pairB7v160006IPKNS_6vectorIiNS_9allocatorIiEEEES6_EENS_4pairINS_18__unwrap_ref_decayIT_E4typeENS8_IT0_E4typeEEEOS9_OSC_, symObjAddr: 0x41E4, symBinAddr: 0x10001BBAC, symSize: 0x38 }
  - { offsetInCU: 0xF5D0, offset: 0x5DDEA, size: 0x8, addend: 0x0, symName: __ZNSt3__113__unwrap_iterB7v160006IPKNS_6vectorIiNS_9allocatorIiEEEENS_18__unwrap_iter_implIS6_Lb1EEELi0EEEDTclsrT0_8__unwrapclsr3stdE7declvalIT_EEEESA_, symObjAddr: 0x421C, symBinAddr: 0x10001BBE4, symSize: 0x24 }
  - { offsetInCU: 0xF73C, offset: 0x5DF56, size: 0x8, addend: 0x0, symName: __ZNSt3__112__to_addressB7v160006IKNS_6vectorIiNS_9allocatorIiEEEEEEPT_S7_, symObjAddr: 0x42D4, symBinAddr: 0x10001BC9C, symSize: 0x14 }
  - { offsetInCU: 0xF771, offset: 0x5DF8B, size: 0x8, addend: 0x0, symName: __ZNSt3__18distanceB7v160006IPiEENS_15iterator_traitsIT_E15difference_typeES3_S3_, symObjAddr: 0x450C, symBinAddr: 0x10001BED4, symSize: 0x2C }
  - { offsetInCU: 0xF7B4, offset: 0x5DFCE, size: 0x8, addend: 0x0, symName: __ZNSt3__14copyB7v160006IPiS1_EET0_T_S3_S2_, symObjAddr: 0x45C8, symBinAddr: 0x10001BF90, symSize: 0x40 }
  - { offsetInCU: 0xF80E, offset: 0x5E028, size: 0x8, addend: 0x0, symName: __ZNSt3__125__debug_db_invalidate_allB7v160006INS_6vectorIiNS_9allocatorIiEEEEEEvPT_, symObjAddr: 0x48E0, symBinAddr: 0x10001C2A8, symSize: 0x10 }
  - { offsetInCU: 0xF83F, offset: 0x5E059, size: 0x8, addend: 0x0, symName: __ZNSt3__110__distanceB7v160006IPiEENS_15iterator_traitsIT_E15difference_typeES3_S3_NS_26random_access_iterator_tagE, symObjAddr: 0x48F0, symBinAddr: 0x10001C2B8, symSize: 0x28 }
  - { offsetInCU: 0xF88D, offset: 0x5E0A7, size: 0x8, addend: 0x0, symName: __ZNSt3__19__advanceB7v160006IPiEEvRT_NS_15iterator_traitsIS2_E15difference_typeENS_26random_access_iterator_tagE, symObjAddr: 0x4978, symBinAddr: 0x10001C340, symSize: 0x28 }
  - { offsetInCU: 0xF8D7, offset: 0x5E0F1, size: 0x8, addend: 0x0, symName: __ZNSt3__16__copyB7v160006INS_17_ClassicAlgPolicyEPiS2_S2_EENS_4pairIT0_T2_EES4_T1_S5_, symObjAddr: 0x49A0, symBinAddr: 0x10001C368, symSize: 0x44 }
  - { offsetInCU: 0xF943, offset: 0x5E15D, size: 0x8, addend: 0x0, symName: __ZNSt3__123__dispatch_copy_or_moveB7v160006INS_17_ClassicAlgPolicyENS_11__copy_loopIS1_EENS_14__copy_trivialEPiS5_S5_EENS_4pairIT2_T4_EES7_T3_S8_, symObjAddr: 0x49E4, symBinAddr: 0x10001C3AC, symSize: 0x44 }
  - { offsetInCU: 0xF9C1, offset: 0x5E1DB, size: 0x8, addend: 0x0, symName: __ZNSt3__121__unwrap_and_dispatchB7v160006INS_10__overloadINS_11__copy_loopINS_17_ClassicAlgPolicyEEENS_14__copy_trivialEEEPiS7_S7_Li0EEENS_4pairIT0_T2_EES9_T1_SA_, symObjAddr: 0x4A28, symBinAddr: 0x10001C3F0, symSize: 0xB4 }
  - { offsetInCU: 0xFA52, offset: 0x5E26C, size: 0x8, addend: 0x0, symName: __ZNSt3__114__unwrap_rangeB7v160006IPiS1_EENS_4pairIT0_S3_EET_S5_, symObjAddr: 0x4ADC, symBinAddr: 0x10001C4A4, symSize: 0x60 }
  - { offsetInCU: 0xFC62, offset: 0x5E47C, size: 0x8, addend: 0x0, symName: __ZNSt3__113__unwrap_iterB7v160006IPiNS_18__unwrap_iter_implIS1_Lb1EEELi0EEEDTclsrT0_8__unwrapclsr3stdE7declvalIT_EEEES5_, symObjAddr: 0x4B84, symBinAddr: 0x10001C54C, symSize: 0x24 }
  - { offsetInCU: 0xFCA7, offset: 0x5E4C1, size: 0x8, addend: 0x0, symName: __ZNSt3__19make_pairB7v160006IPiS1_EENS_4pairINS_18__unwrap_ref_decayIT_E4typeENS3_IT0_E4typeEEEOS4_OS7_, symObjAddr: 0x4BA8, symBinAddr: 0x10001C570, symSize: 0x38 }
  - { offsetInCU: 0xFCF6, offset: 0x5E510, size: 0x8, addend: 0x0, symName: __ZNSt3__114__rewrap_rangeB7v160006IPiS1_EET_S2_T0_, symObjAddr: 0x4BE0, symBinAddr: 0x10001C5A8, symSize: 0x2C }
  - { offsetInCU: 0xFD42, offset: 0x5E55C, size: 0x8, addend: 0x0, symName: __ZNSt3__113__rewrap_iterB7v160006IPiS1_NS_18__unwrap_iter_implIS1_Lb1EEEEET_S4_T0_, symObjAddr: 0x4C0C, symBinAddr: 0x10001C5D4, symSize: 0x3C }
  - { offsetInCU: 0xFD97, offset: 0x5E5B1, size: 0x8, addend: 0x0, symName: __ZNSt3__119__copy_trivial_implB7v160006IiiEENS_4pairIPT_PT0_EES3_S3_S5_, symObjAddr: 0x4C48, symBinAddr: 0x10001C610, symSize: 0x84 }
  - { offsetInCU: 0xFE00, offset: 0x5E61A, size: 0x8, addend: 0x0, symName: __ZNSt3__19make_pairB7v160006IRPiS1_EENS_4pairINS_18__unwrap_ref_decayIT_E4typeENS4_IT0_E4typeEEEOS5_OS8_, symObjAddr: 0x4CCC, symBinAddr: 0x10001C694, symSize: 0x38 }
  - { offsetInCU: 0xFEA2, offset: 0x5E6BC, size: 0x8, addend: 0x0, symName: __ZNSt3__112__to_addressB7v160006IiEEPT_S2_, symObjAddr: 0x4D98, symBinAddr: 0x10001C760, symSize: 0x14 }
  - { offsetInCU: 0xFED7, offset: 0x5E6F1, size: 0x8, addend: 0x0, symName: __ZNSt3__130__uninitialized_allocator_copyB7v160006INS_9allocatorIiEEPiS3_S3_EET2_RT_T0_T1_S4_, symObjAddr: 0x4EA8, symBinAddr: 0x10001C870, symSize: 0xF4 }
  - { offsetInCU: 0xFF75, offset: 0x5E78F, size: 0x8, addend: 0x0, symName: __ZNSt3__122__make_exception_guardB7v160006INS_29_AllocatorDestroyRangeReverseINS_9allocatorIiEEPiEEEENS_28__exception_guard_exceptionsIT_EES7_, symObjAddr: 0x5034, symBinAddr: 0x10001C9FC, symSize: 0x4C }
  - { offsetInCU: 0xFFAB, offset: 0x5E7C5, size: 0x8, addend: 0x0, symName: __ZNSt3__119__allocator_destroyB7v160006INS_9allocatorIiEENS_16reverse_iteratorIPiEES5_EEvRT_T0_T1_, symObjAddr: 0x52BC, symBinAddr: 0x10001CC84, symSize: 0x70 }
  - { offsetInCU: 0x1000E, offset: 0x5E828, size: 0x8, addend: 0x0, symName: __ZNSt3__1neB7v160006IPiS1_EEbRKNS_16reverse_iteratorIT_EERKNS2_IT0_EE, symObjAddr: 0x5360, symBinAddr: 0x10001CD28, symSize: 0x48 }
  - { offsetInCU: 0x1005A, offset: 0x5E874, size: 0x8, addend: 0x0, symName: __ZNSt3__112__to_addressB7v160006INS_16reverse_iteratorIPiEEvEENS_5decayIDTclsr19__to_address_helperIT_EE6__callclsr3stdE7declvalIRKS5_EEEEE4typeES7_, symObjAddr: 0x53D4, symBinAddr: 0x10001CD9C, symSize: 0x24 }
  - { offsetInCU: 0x100BA, offset: 0x5E8D4, size: 0x8, addend: 0x0, symName: __ZNSt3__119__allocate_at_leastB7v160006INS_9allocatorIiEEEENS_19__allocation_resultINS_16allocator_traitsIT_E7pointerEEERS5_m, symObjAddr: 0x58B0, symBinAddr: 0x10001D278, symSize: 0x40 }
  - { offsetInCU: 0x10150, offset: 0x5E96A, size: 0x8, addend: 0x0, symName: __ZNSt3__112__to_addressB7v160006INS_6vectorIiNS_9allocatorIiEEEEEEPT_S6_, symObjAddr: 0x5D64, symBinAddr: 0x10001D478, symSize: 0x14 }
  - { offsetInCU: 0x10185, offset: 0x5E99F, size: 0x8, addend: 0x0, symName: __ZNSt3__113__rewrap_iterB7v160006IPKNS_6vectorIiNS_9allocatorIiEEEES6_NS_18__unwrap_iter_implIS6_Lb1EEEEET_S9_T0_, symObjAddr: 0x5DE8, symBinAddr: 0x10001D4FC, symSize: 0x3C }
  - { offsetInCU: 0x101DA, offset: 0x5E9F4, size: 0x8, addend: 0x0, symName: __ZNSt3__130__uninitialized_allocator_copyB7v160006INS_9allocatorINS_6vectorIiNS1_IiEEEEEEPKS4_S7_PS4_EET2_RT_T0_T1_S9_, symObjAddr: 0x5F10, symBinAddr: 0x10001D624, symSize: 0xF4 }
  - { offsetInCU: 0x10278, offset: 0x5EA92, size: 0x8, addend: 0x0, symName: __ZNSt3__122__make_exception_guardB7v160006INS_29_AllocatorDestroyRangeReverseINS_9allocatorINS_6vectorIiNS2_IiEEEEEEPS5_EEEENS_28__exception_guard_exceptionsIT_EESA_, symObjAddr: 0x60A4, symBinAddr: 0x10001D7B8, symSize: 0x4C }
  - { offsetInCU: 0x102AE, offset: 0x5EAC8, size: 0x8, addend: 0x0, symName: __ZNSt3__119__allocator_destroyB7v160006INS_9allocatorINS_6vectorIiNS1_IiEEEEEENS_16reverse_iteratorIPS4_EES8_EEvRT_T0_T1_, symObjAddr: 0x6334, symBinAddr: 0x10001DA48, symSize: 0x70 }
  - { offsetInCU: 0x10311, offset: 0x5EB2B, size: 0x8, addend: 0x0, symName: __ZNSt3__1neB7v160006IPNS_6vectorIiNS_9allocatorIiEEEES5_EEbRKNS_16reverse_iteratorIT_EERKNS6_IT0_EE, symObjAddr: 0x63D8, symBinAddr: 0x10001DAEC, symSize: 0x48 }
  - { offsetInCU: 0x1035D, offset: 0x5EB77, size: 0x8, addend: 0x0, symName: __ZNSt3__112__to_addressB7v160006INS_16reverse_iteratorIPNS_6vectorIiNS_9allocatorIiEEEEEEvEENS_5decayIDTclsr19__to_address_helperIT_EE6__callclsr3stdE7declvalIRKS9_EEEEE4typeESB_, symObjAddr: 0x644C, symBinAddr: 0x10001DB60, symSize: 0x24 }
  - { offsetInCU: 0x103BD, offset: 0x5EBD7, size: 0x8, addend: 0x0, symName: __ZNSt3__119__allocate_at_leastB7v160006INS_9allocatorINS_6vectorIiNS1_IiEEEEEEEENS_19__allocation_resultINS_16allocator_traitsIT_E7pointerEEERS8_m, symObjAddr: 0x695C, symBinAddr: 0x10001E070, symSize: 0x40 }
  - { offsetInCU: 0x10400, offset: 0x5EC1A, size: 0x8, addend: 0x0, symName: __ZNSt3__119__debug_db_insert_cB7v160006INS_6vectorIN6Blocks5BlockENS_9allocatorIS3_EEEEEEvPT_, symObjAddr: 0x6BF0, symBinAddr: 0x10001E304, symSize: 0x10 }
  - { offsetInCU: 0x10431, offset: 0x5EC4B, size: 0x8, addend: 0x0, symName: __ZNSt3__122__make_exception_guardB7v160006INS_6vectorIiNS_9allocatorIiEEE16__destroy_vectorEEENS_28__exception_guard_exceptionsIT_EES7_, symObjAddr: 0x6F28, symBinAddr: 0x10001E558, symSize: 0x40 }
  - { offsetInCU: 0x10466, offset: 0x5EC80, size: 0x8, addend: 0x0, symName: __ZNSt3__119__debug_db_insert_cB7v160006INS_6vectorIiNS_9allocatorIiEEEEEEvPT_, symObjAddr: 0x6F9C, symBinAddr: 0x10001E5CC, symSize: 0x10 }
  - { offsetInCU: 0x10497, offset: 0x5ECB1, size: 0x8, addend: 0x0, symName: __ZNSt3__118__debug_db_erase_cB7v160006INS_6vectorIiNS_9allocatorIiEEEEEEvPT_, symObjAddr: 0x7288, symBinAddr: 0x10001E8B8, symSize: 0x10 }
  - { offsetInCU: 0x104C8, offset: 0x5ECE2, size: 0x8, addend: 0x0, symName: __ZNSt3__112__to_addressB7v160006IN6Blocks5BlockEEEPT_S4_, symObjAddr: 0x74F8, symBinAddr: 0x10001EB28, symSize: 0x14 }
  - { offsetInCU: 0x104FD, offset: 0x5ED17, size: 0x8, addend: 0x0, symName: __ZNSt3__119__allocate_at_leastB7v160006INS_9allocatorIN6Blocks5BlockEEEEENS_19__allocation_resultINS_16allocator_traitsIT_E7pointerEEERS7_m, symObjAddr: 0x7AFC, symBinAddr: 0x10001F12C, symSize: 0x40 }
  - { offsetInCU: 0x10540, offset: 0x5ED5A, size: 0x8, addend: 0x0, symName: __ZNSt3__142__uninitialized_allocator_move_if_noexceptB7v160006INS_9allocatorIN6Blocks5BlockEEENS_16reverse_iteratorIPS3_EES7_S3_vEET1_RT_T0_SB_S8_, symObjAddr: 0x7D68, symBinAddr: 0x10001F398, symSize: 0x78 }
  - { offsetInCU: 0x105BE, offset: 0x5EDD8, size: 0x8, addend: 0x0, symName: __ZNSt3__14swapB7v160006IPN6Blocks5BlockEEENS_9enable_ifIXaasr21is_move_constructibleIT_EE5valuesr18is_move_assignableIS5_EE5valueEvE4typeERS5_S8_, symObjAddr: 0x7E2C, symBinAddr: 0x10001F45C, symSize: 0x3C }
  - { offsetInCU: 0x10610, offset: 0x5EE2A, size: 0x8, addend: 0x0, symName: __ZNSt3__125__debug_db_invalidate_allB7v160006INS_6vectorIN6Blocks5BlockENS_9allocatorIS3_EEEEEEvPT_, symObjAddr: 0x7F14, symBinAddr: 0x10001F544, symSize: 0x10 }
  - { offsetInCU: 0x10641, offset: 0x5EE5B, size: 0x8, addend: 0x0, symName: __ZNSt3__14moveB7v160006INS_16reverse_iteratorIPN6Blocks5BlockEEES5_EET0_T_S7_S6_, symObjAddr: 0x7F6C, symBinAddr: 0x10001F59C, symSize: 0x78 }
  - { offsetInCU: 0x1069B, offset: 0x5EEB5, size: 0x8, addend: 0x0, symName: __ZNSt3__16__moveB7v160006INS_17_ClassicAlgPolicyENS_16reverse_iteratorIPN6Blocks5BlockEEES6_S6_EENS_4pairIT0_T2_EES8_T1_S9_, symObjAddr: 0x7FE4, symBinAddr: 0x10001F614, symSize: 0x64 }
  - { offsetInCU: 0x10707, offset: 0x5EF21, size: 0x8, addend: 0x0, symName: __ZNSt3__123__dispatch_copy_or_moveB7v160006INS_17_ClassicAlgPolicyENS_11__move_loopIS1_EENS_14__move_trivialENS_16reverse_iteratorIPN6Blocks5BlockEEES9_S9_EENS_4pairIT2_T4_EESB_T3_SC_, symObjAddr: 0x8048, symBinAddr: 0x10001F678, symSize: 0x64 }
  - { offsetInCU: 0x10785, offset: 0x5EF9F, size: 0x8, addend: 0x0, symName: __ZNSt3__121__unwrap_and_dispatchB7v160006INS_10__overloadINS_11__move_loopINS_17_ClassicAlgPolicyEEENS_14__move_trivialEEENS_16reverse_iteratorIPN6Blocks5BlockEEESB_SB_Li0EEENS_4pairIT0_T2_EESD_T1_SE_, symObjAddr: 0x80AC, symBinAddr: 0x10001F6DC, symSize: 0x12C }
  - { offsetInCU: 0x10818, offset: 0x5F032, size: 0x8, addend: 0x0, symName: __ZNSt3__114__unwrap_rangeB7v160006INS_16reverse_iteratorIPN6Blocks5BlockEEES5_EENS_4pairIT0_S7_EET_S9_, symObjAddr: 0x81D8, symBinAddr: 0x10001F808, symSize: 0x84 }
  - { offsetInCU: 0x10A08, offset: 0x5F222, size: 0x8, addend: 0x0, symName: __ZNSt3__113__unwrap_iterB7v160006INS_16reverse_iteratorIPN6Blocks5BlockEEENS_18__unwrap_iter_implIS5_Lb0EEELi0EEEDTclsrT0_8__unwrapclsr3stdE7declvalIT_EEEES9_, symObjAddr: 0x82FC, symBinAddr: 0x10001F92C, symSize: 0x44 }
  - { offsetInCU: 0x10A4D, offset: 0x5F267, size: 0x8, addend: 0x0, symName: __ZNSt3__19make_pairB7v160006INS_16reverse_iteratorIPN6Blocks5BlockEEES5_EENS_4pairINS_18__unwrap_ref_decayIT_E4typeENS7_IT0_E4typeEEEOS8_OSB_, symObjAddr: 0x8340, symBinAddr: 0x10001F970, symSize: 0x38 }
  - { offsetInCU: 0x10A9C, offset: 0x5F2B6, size: 0x8, addend: 0x0, symName: __ZNSt3__114__rewrap_rangeB7v160006INS_16reverse_iteratorIPN6Blocks5BlockEEES5_EET_S6_T0_, symObjAddr: 0x8378, symBinAddr: 0x10001F9A8, symSize: 0x5C }
  - { offsetInCU: 0x10AE8, offset: 0x5F302, size: 0x8, addend: 0x0, symName: __ZNSt3__113__rewrap_iterB7v160006INS_16reverse_iteratorIPN6Blocks5BlockEEES5_NS_18__unwrap_iter_implIS5_Lb0EEEEET_S8_T0_, symObjAddr: 0x83D4, symBinAddr: 0x10001FA04, symSize: 0x74 }
  - { offsetInCU: 0x10B3D, offset: 0x5F357, size: 0x8, addend: 0x0, symName: __ZNSt3__1neB7v160006IPN6Blocks5BlockES3_EEbRKNS_16reverse_iteratorIT_EERKNS4_IT0_EE, symObjAddr: 0x8448, symBinAddr: 0x10001FA78, symSize: 0x48 }
  - { offsetInCU: 0x10CA1, offset: 0x5F4BB, size: 0x8, addend: 0x0, symName: __ZNSt3__118__debug_db_erase_cB7v160006INS_6vectorINS1_IiNS_9allocatorIiEEEENS2_IS4_EEEEEEvPT_, symObjAddr: 0x8AB8, symBinAddr: 0x1000200E8, symSize: 0x10 }
  - { offsetInCU: 0x10CD2, offset: 0x5F4EC, size: 0x8, addend: 0x0, symName: __ZNSt3__1neB7v160006IPN3Bot23HorizonCrawlerDirectionEEEbRKNS_11__wrap_iterIT_EES8_, symObjAddr: 0x8C90, symBinAddr: 0x1000202C0, symSize: 0x34 }
  - { offsetInCU: 0x10D15, offset: 0x5F52F, size: 0x8, addend: 0x0, symName: __ZNSt3__1eqB7v160006IPN3Bot23HorizonCrawlerDirectionEEEbRKNS_11__wrap_iterIT_EES8_, symObjAddr: 0x8D90, symBinAddr: 0x1000203C0, symSize: 0x48 }
  - { offsetInCU: 0x10D58, offset: 0x5F572, size: 0x8, addend: 0x0, symName: __ZNSt3__18distanceB7v160006IPN3Bot23HorizonCrawlerDirectionEEENS_15iterator_traitsIT_E15difference_typeES5_S5_, symObjAddr: 0x9014, symBinAddr: 0x100020644, symSize: 0x2C }
  - { offsetInCU: 0x10D9B, offset: 0x5F5B5, size: 0x8, addend: 0x0, symName: __ZNSt3__14copyB7v160006IPN3Bot23HorizonCrawlerDirectionES3_EET0_T_S5_S4_, symObjAddr: 0x9090, symBinAddr: 0x1000206C0, symSize: 0x40 }
  - { offsetInCU: 0x10DF5, offset: 0x5F60F, size: 0x8, addend: 0x0, symName: __ZNSt3__125__debug_db_invalidate_allB7v160006INS_6vectorIN3Bot23HorizonCrawlerDirectionENS_9allocatorIS3_EEEEEEvPT_, symObjAddr: 0x93A8, symBinAddr: 0x1000209D8, symSize: 0x10 }
  - { offsetInCU: 0x10E26, offset: 0x5F640, size: 0x8, addend: 0x0, symName: __ZNSt3__110__distanceB7v160006IPN3Bot23HorizonCrawlerDirectionEEENS_15iterator_traitsIT_E15difference_typeES5_S5_NS_26random_access_iterator_tagE, symObjAddr: 0x93B8, symBinAddr: 0x1000209E8, symSize: 0x28 }
  - { offsetInCU: 0x10E74, offset: 0x5F68E, size: 0x8, addend: 0x0, symName: __ZNSt3__19__advanceB7v160006IPN3Bot23HorizonCrawlerDirectionEEEvRT_NS_15iterator_traitsIS4_E15difference_typeENS_26random_access_iterator_tagE, symObjAddr: 0x93E0, symBinAddr: 0x100020A10, symSize: 0x28 }
  - { offsetInCU: 0x10EBE, offset: 0x5F6D8, size: 0x8, addend: 0x0, symName: __ZNSt3__16__copyB7v160006INS_17_ClassicAlgPolicyEPN3Bot23HorizonCrawlerDirectionES4_S4_EENS_4pairIT0_T2_EES6_T1_S7_, symObjAddr: 0x9408, symBinAddr: 0x100020A38, symSize: 0x44 }
  - { offsetInCU: 0x10F2A, offset: 0x5F744, size: 0x8, addend: 0x0, symName: __ZNSt3__123__dispatch_copy_or_moveB7v160006INS_17_ClassicAlgPolicyENS_11__copy_loopIS1_EENS_14__copy_trivialEPN3Bot23HorizonCrawlerDirectionES7_S7_EENS_4pairIT2_T4_EES9_T3_SA_, symObjAddr: 0x944C, symBinAddr: 0x100020A7C, symSize: 0x44 }
  - { offsetInCU: 0x10FA8, offset: 0x5F7C2, size: 0x8, addend: 0x0, symName: __ZNSt3__121__unwrap_and_dispatchB7v160006INS_10__overloadINS_11__copy_loopINS_17_ClassicAlgPolicyEEENS_14__copy_trivialEEEPN3Bot23HorizonCrawlerDirectionES9_S9_Li0EEENS_4pairIT0_T2_EESB_T1_SC_, symObjAddr: 0x9490, symBinAddr: 0x100020AC0, symSize: 0xB4 }
  - { offsetInCU: 0x11039, offset: 0x5F853, size: 0x8, addend: 0x0, symName: __ZNSt3__114__unwrap_rangeB7v160006IPN3Bot23HorizonCrawlerDirectionES3_EENS_4pairIT0_S5_EET_S7_, symObjAddr: 0x9544, symBinAddr: 0x100020B74, symSize: 0x60 }
  - { offsetInCU: 0x11188, offset: 0x5F9A2, size: 0x8, addend: 0x0, symName: __ZNSt3__113__unwrap_iterB7v160006IPN3Bot23HorizonCrawlerDirectionENS_18__unwrap_iter_implIS3_Lb1EEELi0EEEDTclsrT0_8__unwrapclsr3stdE7declvalIT_EEEES7_, symObjAddr: 0x95EC, symBinAddr: 0x100020C1C, symSize: 0x24 }
  - { offsetInCU: 0x111CD, offset: 0x5F9E7, size: 0x8, addend: 0x0, symName: __ZNSt3__19make_pairB7v160006IPN3Bot23HorizonCrawlerDirectionES3_EENS_4pairINS_18__unwrap_ref_decayIT_E4typeENS5_IT0_E4typeEEEOS6_OS9_, symObjAddr: 0x9610, symBinAddr: 0x100020C40, symSize: 0x38 }
  - { offsetInCU: 0x1121C, offset: 0x5FA36, size: 0x8, addend: 0x0, symName: __ZNSt3__114__rewrap_rangeB7v160006IPN3Bot23HorizonCrawlerDirectionES3_EET_S4_T0_, symObjAddr: 0x9648, symBinAddr: 0x100020C78, symSize: 0x2C }
  - { offsetInCU: 0x11268, offset: 0x5FA82, size: 0x8, addend: 0x0, symName: __ZNSt3__113__rewrap_iterB7v160006IPN3Bot23HorizonCrawlerDirectionES3_NS_18__unwrap_iter_implIS3_Lb1EEEEET_S6_T0_, symObjAddr: 0x9674, symBinAddr: 0x100020CA4, symSize: 0x3C }
  - { offsetInCU: 0x112BD, offset: 0x5FAD7, size: 0x8, addend: 0x0, symName: __ZNSt3__119__copy_trivial_implB7v160006IN3Bot23HorizonCrawlerDirectionES2_EENS_4pairIPT_PT0_EES5_S5_S7_, symObjAddr: 0x96B0, symBinAddr: 0x100020CE0, symSize: 0x84 }
  - { offsetInCU: 0x11326, offset: 0x5FB40, size: 0x8, addend: 0x0, symName: __ZNSt3__19make_pairB7v160006IRPN3Bot23HorizonCrawlerDirectionES3_EENS_4pairINS_18__unwrap_ref_decayIT_E4typeENS6_IT0_E4typeEEEOS7_OSA_, symObjAddr: 0x9734, symBinAddr: 0x100020D64, symSize: 0x38 }
  - { offsetInCU: 0x113C8, offset: 0x5FBE2, size: 0x8, addend: 0x0, symName: __ZNSt3__130__uninitialized_allocator_copyB7v160006INS_9allocatorIN3Bot23HorizonCrawlerDirectionEEEPS3_S5_S5_EET2_RT_T0_T1_S6_, symObjAddr: 0x98FC, symBinAddr: 0x100020F2C, symSize: 0xF4 }
  - { offsetInCU: 0x11466, offset: 0x5FC80, size: 0x8, addend: 0x0, symName: __ZNSt3__122__make_exception_guardB7v160006INS_29_AllocatorDestroyRangeReverseINS_9allocatorIN3Bot23HorizonCrawlerDirectionEEEPS4_EEEENS_28__exception_guard_exceptionsIT_EES9_, symObjAddr: 0x9A60, symBinAddr: 0x100021090, symSize: 0x4C }
  - { offsetInCU: 0x1149C, offset: 0x5FCB6, size: 0x8, addend: 0x0, symName: __ZNSt3__119__allocator_destroyB7v160006INS_9allocatorIN3Bot23HorizonCrawlerDirectionEEENS_16reverse_iteratorIPS3_EES7_EEvRT_T0_T1_, symObjAddr: 0x9CE8, symBinAddr: 0x100021318, symSize: 0x70 }
  - { offsetInCU: 0x114FF, offset: 0x5FD19, size: 0x8, addend: 0x0, symName: __ZNSt3__1neB7v160006IPN3Bot23HorizonCrawlerDirectionES3_EEbRKNS_16reverse_iteratorIT_EERKNS4_IT0_EE, symObjAddr: 0x9D8C, symBinAddr: 0x1000213BC, symSize: 0x48 }
  - { offsetInCU: 0x1154B, offset: 0x5FD65, size: 0x8, addend: 0x0, symName: __ZNSt3__112__to_addressB7v160006INS_16reverse_iteratorIPN3Bot23HorizonCrawlerDirectionEEEvEENS_5decayIDTclsr19__to_address_helperIT_EE6__callclsr3stdE7declvalIRKS7_EEEEE4typeES9_, symObjAddr: 0x9DD4, symBinAddr: 0x100021404, symSize: 0x24 }
  - { offsetInCU: 0x115AB, offset: 0x5FDC5, size: 0x8, addend: 0x0, symName: __ZNSt3__119__allocate_at_leastB7v160006INS_9allocatorIN3Bot23HorizonCrawlerDirectionEEEEENS_19__allocation_resultINS_16allocator_traitsIT_E7pointerEEERS7_m, symObjAddr: 0xA0F4, symBinAddr: 0x100021724, symSize: 0x40 }
  - { offsetInCU: 0x115EE, offset: 0x5FE08, size: 0x8, addend: 0x0, symName: __ZNSt3__118__debug_db_erase_cB7v160006INS_6vectorIN6Blocks5BlockENS_9allocatorIS3_EEEEEEvPT_, symObjAddr: 0xA430, symBinAddr: 0x100021A60, symSize: 0x10 }
  - { offsetInCU: 0x1161F, offset: 0x5FE39, size: 0x8, addend: 0x0, symName: __ZNSt3__130__uninitialized_allocator_copyB7v160006INS_9allocatorIiEEiiLPv0EEEPT0_RT_PKS4_S9_S5_, symObjAddr: 0xA824, symBinAddr: 0x100021E54, symSize: 0x38 }
  - { offsetInCU: 0x11698, offset: 0x5FEB2, size: 0x8, addend: 0x0, symName: __ZNSt3__14copyB7v160006IPKiPiEET0_T_S5_S4_, symObjAddr: 0xA85C, symBinAddr: 0x100021E8C, symSize: 0x40 }
  - { offsetInCU: 0x116F2, offset: 0x5FF0C, size: 0x8, addend: 0x0, symName: __ZNSt3__16__copyB7v160006INS_17_ClassicAlgPolicyEPKiS3_PiEENS_4pairIT0_T2_EES6_T1_S7_, symObjAddr: 0xA89C, symBinAddr: 0x100021ECC, symSize: 0x44 }
  - { offsetInCU: 0x1175E, offset: 0x5FF78, size: 0x8, addend: 0x0, symName: __ZNSt3__123__dispatch_copy_or_moveB7v160006INS_17_ClassicAlgPolicyENS_11__copy_loopIS1_EENS_14__copy_trivialEPKiS6_PiEENS_4pairIT2_T4_EES9_T3_SA_, symObjAddr: 0xA8E0, symBinAddr: 0x100021F10, symSize: 0x44 }
  - { offsetInCU: 0x117DC, offset: 0x5FFF6, size: 0x8, addend: 0x0, symName: __ZNSt3__121__unwrap_and_dispatchB7v160006INS_10__overloadINS_11__copy_loopINS_17_ClassicAlgPolicyEEENS_14__copy_trivialEEEPKiS8_PiLi0EEENS_4pairIT0_T2_EESB_T1_SC_, symObjAddr: 0xA924, symBinAddr: 0x100021F54, symSize: 0xB4 }
  - { offsetInCU: 0x1186D, offset: 0x60087, size: 0x8, addend: 0x0, symName: __ZNSt3__114__unwrap_rangeB7v160006IPKiS2_EENS_4pairIT0_S4_EET_S6_, symObjAddr: 0xA9D8, symBinAddr: 0x100022008, symSize: 0x60 }
  - { offsetInCU: 0x119BC, offset: 0x601D6, size: 0x8, addend: 0x0, symName: __ZNSt3__19make_pairB7v160006IPKiPiEENS_4pairINS_18__unwrap_ref_decayIT_E4typeENS5_IT0_E4typeEEEOS6_OS9_, symObjAddr: 0xAA80, symBinAddr: 0x1000220B0, symSize: 0x38 }
  - { offsetInCU: 0x11A0B, offset: 0x60225, size: 0x8, addend: 0x0, symName: __ZNSt3__114__rewrap_rangeB7v160006IPKiS2_EET_S3_T0_, symObjAddr: 0xAAB8, symBinAddr: 0x1000220E8, symSize: 0x2C }
  - { offsetInCU: 0x11A57, offset: 0x60271, size: 0x8, addend: 0x0, symName: __ZNSt3__19make_pairB7v160006IPKiS2_EENS_4pairINS_18__unwrap_ref_decayIT_E4typeENS4_IT0_E4typeEEEOS5_OS8_, symObjAddr: 0xAAE4, symBinAddr: 0x100022114, symSize: 0x38 }
  - { offsetInCU: 0x11AA6, offset: 0x602C0, size: 0x8, addend: 0x0, symName: __ZNSt3__113__unwrap_iterB7v160006IPKiNS_18__unwrap_iter_implIS2_Lb1EEELi0EEEDTclsrT0_8__unwrapclsr3stdE7declvalIT_EEEES6_, symObjAddr: 0xAB1C, symBinAddr: 0x10002214C, symSize: 0x24 }
  - { offsetInCU: 0x11C12, offset: 0x6042C, size: 0x8, addend: 0x0, symName: __ZNSt3__112__to_addressB7v160006IKiEEPT_S3_, symObjAddr: 0xABD4, symBinAddr: 0x100022204, symSize: 0x14 }
  - { offsetInCU: 0x11C47, offset: 0x60461, size: 0x8, addend: 0x0, symName: __ZNSt3__119__copy_trivial_implB7v160006IKiiEENS_4pairIPT_PT0_EES4_S4_S6_, symObjAddr: 0xABE8, symBinAddr: 0x100022218, symSize: 0x84 }
  - { offsetInCU: 0x11CB0, offset: 0x604CA, size: 0x8, addend: 0x0, symName: __ZNSt3__19make_pairB7v160006IRPKiPiEENS_4pairINS_18__unwrap_ref_decayIT_E4typeENS6_IT0_E4typeEEEOS7_OSA_, symObjAddr: 0xAC6C, symBinAddr: 0x10002229C, symSize: 0x38 }
  - { offsetInCU: 0x11CFF, offset: 0x60519, size: 0x8, addend: 0x0, symName: __ZNSt3__113__rewrap_iterB7v160006IPKiS2_NS_18__unwrap_iter_implIS2_Lb1EEEEET_S5_T0_, symObjAddr: 0xAD84, symBinAddr: 0x1000223B4, symSize: 0x3C }
  - { offsetInCU: 0x11EC1, offset: 0x606DB, size: 0x8, addend: 0x0, symName: '__ZNSt3__116forward_as_tupleB7v160006IJZN3BotC1EP6BlocksE3$_0EEENS_5tupleIJDpOT_EEES8_', symObjAddr: 0xB58C, symBinAddr: 0x100022BBC, symSize: 0x2C }
  - { offsetInCU: 0x11EFB, offset: 0x60715, size: 0x8, addend: 0x0, symName: '__ZNSt3__116forward_as_tupleB7v160006IJNS_9allocatorIZN3BotC1EP6BlocksE3$_0EEEEENS_5tupleIJDpOT_EEESA_', symObjAddr: 0xB5B8, symBinAddr: 0x100022BE8, symSize: 0x2C }
  - { offsetInCU: 0x11F5F, offset: 0x60779, size: 0x8, addend: 0x0, symName: '__ZNSt3__13getB7v160006ILm0EJOZN3BotC1EP6BlocksE3$_0EEERNS_13tuple_elementIXT_ENS_5tupleIJDpT0_EEEE4typeERSA_', symObjAddr: 0xB8D0, symBinAddr: 0x100022F00, symSize: 0x24 }
  - { offsetInCU: 0x11FA3, offset: 0x607BD, size: 0x8, addend: 0x0, symName: '__ZNSt3__13getB7v160006ILm0EJONS_9allocatorIZN3BotC1EP6BlocksE3$_0EEEEERNS_13tuple_elementIXT_ENS_5tupleIJDpT0_EEEE4typeERSC_', symObjAddr: 0xB90C, symBinAddr: 0x100022F3C, symSize: 0x24 }
  - { offsetInCU: 0x124F0, offset: 0x60D0A, size: 0x8, addend: 0x0, symName: '__ZNSt3__116forward_as_tupleB7v160006IJRKZN3BotC1EP6BlocksE3$_0EEENS_5tupleIJDpOT_EEESA_', symObjAddr: 0xBEA0, symBinAddr: 0x1000234D0, symSize: 0x2C }
  - { offsetInCU: 0x1253F, offset: 0x60D59, size: 0x8, addend: 0x0, symName: '__ZNSt3__13getB7v160006ILm0EJRKZN3BotC1EP6BlocksE3$_0EEERNS_13tuple_elementIXT_ENS_5tupleIJDpT0_EEEE4typeERSB_', symObjAddr: 0xC090, symBinAddr: 0x1000236C0, symSize: 0x24 }
  - { offsetInCU: 0x12583, offset: 0x60D9D, size: 0x8, addend: 0x0, symName: '__ZNSt3__116forward_as_tupleB7v160006IJRKNS_9allocatorIZN3BotC1EP6BlocksE3$_0EEEEENS_5tupleIJDpOT_EEESC_', symObjAddr: 0xC3EC, symBinAddr: 0x100023A1C, symSize: 0x2C }
  - { offsetInCU: 0x125D2, offset: 0x60DEC, size: 0x8, addend: 0x0, symName: '__ZNSt3__13getB7v160006ILm0EJRKNS_9allocatorIZN3BotC1EP6BlocksE3$_0EEEEERNS_13tuple_elementIXT_ENS_5tupleIJDpT0_EEEE4typeERSD_', symObjAddr: 0xC5D0, symBinAddr: 0x100023C00, symSize: 0x24 }
  - { offsetInCU: 0x12654, offset: 0x60E6E, size: 0x8, addend: 0x0, symName: '__ZNSt3__18__invokeB7v160006IRZN3BotC1EP6BlocksE3$_0JRKdEEEDTclclsr3stdE7declvalIT_EEspclsr3stdE7declvalIT0_EEEEOS8_DpOS9_', symObjAddr: 0xC69C, symBinAddr: 0x100023CCC, symSize: 0x2C }
  - { offsetInCU: 0x126A2, offset: 0x60EBC, size: 0x8, addend: 0x0, symName: __ZNSt3__118__debug_db_erase_cB7v160006INS_6vectorINS1_INS_4pairIifEENS_9allocatorIS3_EEEENS4_IS6_EEEEEEvPT_, symObjAddr: 0xCAF8, symBinAddr: 0x10002402C, symSize: 0x10 }
  - { offsetInCU: 0x126D3, offset: 0x60EED, size: 0x8, addend: 0x0, symName: __ZNSt3__112__to_addressB7v160006INS_6vectorINS_4pairIifEENS_9allocatorIS3_EEEEEEPT_S8_, symObjAddr: 0xCC14, symBinAddr: 0x100024148, symSize: 0x14 }
  - { offsetInCU: 0x12708, offset: 0x60F22, size: 0x8, addend: 0x0, symName: __ZNSt3__118__debug_db_erase_cB7v160006INS_6vectorINS_4pairIifEENS_9allocatorIS3_EEEEEEvPT_, symObjAddr: 0xCF20, symBinAddr: 0x100024454, symSize: 0x10 }
  - { offsetInCU: 0x12739, offset: 0x60F53, size: 0x8, addend: 0x0, symName: __ZNSt3__112__to_addressB7v160006INS_4pairIifEEEEPT_S4_, symObjAddr: 0xD03C, symBinAddr: 0x100024570, symSize: 0x14 }
  - { offsetInCU: 0x1276E, offset: 0x60F88, size: 0x8, addend: 0x0, symName: __ZNSt3__115__debug_db_swapB7v160006INS_6vectorIiNS_9allocatorIiEEEEEEvPT_S6_, symObjAddr: 0xD3A8, symBinAddr: 0x1000248DC, symSize: 0x14 }
  - { offsetInCU: 0x127AD, offset: 0x60FC7, size: 0x8, addend: 0x0, symName: __ZNSt3__1miB7v160006IPKiS2_EEDTmicldtfp_4baseEcldtfp0_4baseEERKNS_11__wrap_iterIT_EERKNS4_IT0_EE, symObjAddr: 0xD488, symBinAddr: 0x1000249BC, symSize: 0x48 }
  - { offsetInCU: 0x127F9, offset: 0x61013, size: 0x8, addend: 0x0, symName: __ZNSt3__14moveB7v160006IPiS1_EET0_T_S3_S2_, symObjAddr: 0xD4FC, symBinAddr: 0x100024A30, symSize: 0x40 }
  - { offsetInCU: 0x12853, offset: 0x6106D, size: 0x8, addend: 0x0, symName: __ZNSt3__16__moveB7v160006INS_17_ClassicAlgPolicyEPiS2_S2_EENS_4pairIT0_T2_EES4_T1_S5_, symObjAddr: 0xD618, symBinAddr: 0x100024B4C, symSize: 0x44 }
  - { offsetInCU: 0x128BF, offset: 0x610D9, size: 0x8, addend: 0x0, symName: __ZNSt3__123__dispatch_copy_or_moveB7v160006INS_17_ClassicAlgPolicyENS_11__move_loopIS1_EENS_14__move_trivialEPiS5_S5_EENS_4pairIT2_T4_EES7_T3_S8_, symObjAddr: 0xD65C, symBinAddr: 0x100024B90, symSize: 0x44 }
  - { offsetInCU: 0x1293D, offset: 0x61157, size: 0x8, addend: 0x0, symName: __ZNSt3__121__unwrap_and_dispatchB7v160006INS_10__overloadINS_11__move_loopINS_17_ClassicAlgPolicyEEENS_14__move_trivialEEEPiS7_S7_Li0EEENS_4pairIT0_T2_EES9_T1_SA_, symObjAddr: 0xD6A0, symBinAddr: 0x100024BD4, symSize: 0xB4 }
  - { offsetInCU: 0x12A15, offset: 0x6122F, size: 0x8, addend: 0x0, symName: __ZNSt3__122__make_exception_guardB7v160006INS_6vectorIN6Blocks5BlockENS_9allocatorIS3_EEE16__destroy_vectorEEENS_28__exception_guard_exceptionsIT_EES9_, symObjAddr: 0xD96C, symBinAddr: 0x100024EA0, symSize: 0x40 }
  - { offsetInCU: 0x12A4A, offset: 0x61264, size: 0x8, addend: 0x0, symName: __ZNSt3__130__uninitialized_allocator_copyB7v160006INS_9allocatorIN6Blocks5BlockEEEPS3_S5_S5_EET2_RT_T0_T1_S6_, symObjAddr: 0xDBE0, symBinAddr: 0x100025114, symSize: 0xF4 }
  - { offsetInCU: 0x12AE8, offset: 0x61302, size: 0x8, addend: 0x0, symName: __ZNSt3__122__make_exception_guardB7v160006INS_29_AllocatorDestroyRangeReverseINS_9allocatorIN6Blocks5BlockEEEPS4_EEEENS_28__exception_guard_exceptionsIT_EES9_, symObjAddr: 0xDCD4, symBinAddr: 0x100025208, symSize: 0x4C }
  - { offsetInCU: 0x12B1E, offset: 0x61338, size: 0x8, addend: 0x0, symName: __ZNSt3__119__allocator_destroyB7v160006INS_9allocatorIN6Blocks5BlockEEENS_16reverse_iteratorIPS3_EES7_EEvRT_T0_T1_, symObjAddr: 0xDF5C, symBinAddr: 0x100025490, symSize: 0x70 }
  - { offsetInCU: 0x12B81, offset: 0x6139B, size: 0x8, addend: 0x0, symName: __ZNSt3__112__to_addressB7v160006INS_16reverse_iteratorIPN6Blocks5BlockEEEvEENS_5decayIDTclsr19__to_address_helperIT_EE6__callclsr3stdE7declvalIRKS7_EEEEE4typeES9_, symObjAddr: 0xDFCC, symBinAddr: 0x100025500, symSize: 0x24 }
  - { offsetInCU: 0x12BE1, offset: 0x613FB, size: 0x8, addend: 0x0, symName: __ZNSt3__122__make_exception_guardB7v160006INS_6vectorINS1_INS_4pairIifEENS_9allocatorIS3_EEEENS4_IS6_EEE16__destroy_vectorEEENS_28__exception_guard_exceptionsIT_EESB_, symObjAddr: 0xE224, symBinAddr: 0x100025758, symSize: 0x40 }
  - { offsetInCU: 0x12C16, offset: 0x61430, size: 0x8, addend: 0x0, symName: __ZNSt3__119__debug_db_insert_cB7v160006INS_6vectorINS1_INS_4pairIifEENS_9allocatorIS3_EEEENS4_IS6_EEEEEEvPT_, symObjAddr: 0xE264, symBinAddr: 0x100025798, symSize: 0x10 }
  - { offsetInCU: 0x12C47, offset: 0x61461, size: 0x8, addend: 0x0, symName: __ZNSt3__119__allocate_at_leastB7v160006INS_9allocatorINS_6vectorINS_4pairIifEENS1_IS4_EEEEEEEENS_19__allocation_resultINS_16allocator_traitsIT_E7pointerEEERSA_m, symObjAddr: 0xE580, symBinAddr: 0x100025AB4, symSize: 0x40 }
  - { offsetInCU: 0x12C8A, offset: 0x614A4, size: 0x8, addend: 0x0, symName: __ZNSt3__130__uninitialized_allocator_copyB7v160006INS_9allocatorINS_6vectorINS_4pairIifEENS1_IS4_EEEEEEPS6_S8_S8_EET2_RT_T0_T1_S9_, symObjAddr: 0xE7BC, symBinAddr: 0x100025CF0, symSize: 0xF4 }
  - { offsetInCU: 0x12D28, offset: 0x61542, size: 0x8, addend: 0x0, symName: __ZNSt3__122__make_exception_guardB7v160006INS_29_AllocatorDestroyRangeReverseINS_9allocatorINS_6vectorINS_4pairIifEENS2_IS5_EEEEEEPS7_EEEENS_28__exception_guard_exceptionsIT_EESC_, symObjAddr: 0xE928, symBinAddr: 0x100025E5C, symSize: 0x4C }
  - { offsetInCU: 0x12D5E, offset: 0x61578, size: 0x8, addend: 0x0, symName: __ZNSt3__122__make_exception_guardB7v160006INS_6vectorINS_4pairIifEENS_9allocatorIS3_EEE16__destroy_vectorEEENS_28__exception_guard_exceptionsIT_EES9_, symObjAddr: 0xECBC, symBinAddr: 0x1000261F0, symSize: 0x40 }
  - { offsetInCU: 0x12D93, offset: 0x615AD, size: 0x8, addend: 0x0, symName: __ZNSt3__119__debug_db_insert_cB7v160006INS_6vectorINS_4pairIifEENS_9allocatorIS3_EEEEEEvPT_, symObjAddr: 0xECFC, symBinAddr: 0x100026230, symSize: 0x10 }
  - { offsetInCU: 0x12DC4, offset: 0x615DE, size: 0x8, addend: 0x0, symName: __ZNSt3__119__allocate_at_leastB7v160006INS_9allocatorINS_4pairIifEEEEEENS_19__allocation_resultINS_16allocator_traitsIT_E7pointerEEERS7_m, symObjAddr: 0xF010, symBinAddr: 0x100026544, symSize: 0x40 }
  - { offsetInCU: 0x12E07, offset: 0x61621, size: 0x8, addend: 0x0, symName: __ZNSt3__130__uninitialized_allocator_copyB7v160006INS_9allocatorINS_4pairIifEEEEPS3_S5_S5_EET2_RT_T0_T1_S6_, symObjAddr: 0xF228, symBinAddr: 0x10002675C, symSize: 0xF4 }
  - { offsetInCU: 0x12EA5, offset: 0x616BF, size: 0x8, addend: 0x0, symName: __ZNSt3__122__make_exception_guardB7v160006INS_29_AllocatorDestroyRangeReverseINS_9allocatorINS_4pairIifEEEEPS4_EEEENS_28__exception_guard_exceptionsIT_EES9_, symObjAddr: 0xF38C, symBinAddr: 0x1000268C0, symSize: 0x4C }
  - { offsetInCU: 0x12EDB, offset: 0x616F5, size: 0x8, addend: 0x0, symName: __ZNSt3__119__allocator_destroyB7v160006INS_9allocatorINS_4pairIifEEEENS_16reverse_iteratorIPS3_EES7_EEvRT_T0_T1_, symObjAddr: 0xF614, symBinAddr: 0x100026B48, symSize: 0x70 }
  - { offsetInCU: 0x12F3E, offset: 0x61758, size: 0x8, addend: 0x0, symName: __ZNSt3__1neB7v160006IPNS_4pairIifEES3_EEbRKNS_16reverse_iteratorIT_EERKNS4_IT0_EE, symObjAddr: 0xF6B8, symBinAddr: 0x100026BEC, symSize: 0x48 }
  - { offsetInCU: 0x12F8A, offset: 0x617A4, size: 0x8, addend: 0x0, symName: __ZNSt3__112__to_addressB7v160006INS_16reverse_iteratorIPNS_4pairIifEEEEvEENS_5decayIDTclsr19__to_address_helperIT_EE6__callclsr3stdE7declvalIRKS7_EEEEE4typeES9_, symObjAddr: 0xF700, symBinAddr: 0x100026C34, symSize: 0x24 }
  - { offsetInCU: 0x12FEA, offset: 0x61804, size: 0x8, addend: 0x0, symName: __ZNSt3__119__allocator_destroyB7v160006INS_9allocatorINS_6vectorINS_4pairIifEENS1_IS4_EEEEEENS_16reverse_iteratorIPS6_EESA_EEvRT_T0_T1_, symObjAddr: 0xF930, symBinAddr: 0x100026E64, symSize: 0x70 }
  - { offsetInCU: 0x1304D, offset: 0x61867, size: 0x8, addend: 0x0, symName: __ZNSt3__1neB7v160006IPNS_6vectorINS_4pairIifEENS_9allocatorIS3_EEEES7_EEbRKNS_16reverse_iteratorIT_EERKNS8_IT0_EE, symObjAddr: 0xF9D4, symBinAddr: 0x100026F08, symSize: 0x48 }
  - { offsetInCU: 0x13099, offset: 0x618B3, size: 0x8, addend: 0x0, symName: __ZNSt3__112__to_addressB7v160006INS_16reverse_iteratorIPNS_6vectorINS_4pairIifEENS_9allocatorIS4_EEEEEEvEENS_5decayIDTclsr19__to_address_helperIT_EE6__callclsr3stdE7declvalIRKSB_EEEEE4typeESD_, symObjAddr: 0xFA1C, symBinAddr: 0x100026F50, symSize: 0x24 }
  - { offsetInCU: 0x130F9, offset: 0x61913, size: 0x8, addend: 0x0, symName: __ZNSt3__142__uninitialized_allocator_move_if_noexceptB7v160006INS_9allocatorIN3Bot23HorizonCrawlerDirectionEEENS_16reverse_iteratorIPS3_EES7_S3_vEET1_RT_T0_SB_S8_, symObjAddr: 0x101D0, symBinAddr: 0x100027704, symSize: 0x78 }
  - { offsetInCU: 0x13177, offset: 0x61991, size: 0x8, addend: 0x0, symName: __ZNSt3__14swapB7v160006IPN3Bot23HorizonCrawlerDirectionEEENS_9enable_ifIXaasr21is_move_constructibleIT_EE5valuesr18is_move_assignableIS5_EE5valueEvE4typeERS5_S8_, symObjAddr: 0x10248, symBinAddr: 0x10002777C, symSize: 0x3C }
  - { offsetInCU: 0x131C9, offset: 0x619E3, size: 0x8, addend: 0x0, symName: __ZNSt3__14moveB7v160006INS_16reverse_iteratorIPN3Bot23HorizonCrawlerDirectionEEES5_EET0_T_S7_S6_, symObjAddr: 0x10284, symBinAddr: 0x1000277B8, symSize: 0x78 }
  - { offsetInCU: 0x13223, offset: 0x61A3D, size: 0x8, addend: 0x0, symName: __ZNSt3__16__moveB7v160006INS_17_ClassicAlgPolicyENS_16reverse_iteratorIPN3Bot23HorizonCrawlerDirectionEEES6_S6_EENS_4pairIT0_T2_EES8_T1_S9_, symObjAddr: 0x102FC, symBinAddr: 0x100027830, symSize: 0x64 }
  - { offsetInCU: 0x1328F, offset: 0x61AA9, size: 0x8, addend: 0x0, symName: __ZNSt3__123__dispatch_copy_or_moveB7v160006INS_17_ClassicAlgPolicyENS_11__move_loopIS1_EENS_14__move_trivialENS_16reverse_iteratorIPN3Bot23HorizonCrawlerDirectionEEES9_S9_EENS_4pairIT2_T4_EESB_T3_SC_, symObjAddr: 0x10360, symBinAddr: 0x100027894, symSize: 0x64 }
  - { offsetInCU: 0x1330D, offset: 0x61B27, size: 0x8, addend: 0x0, symName: __ZNSt3__121__unwrap_and_dispatchB7v160006INS_10__overloadINS_11__move_loopINS_17_ClassicAlgPolicyEEENS_14__move_trivialEEENS_16reverse_iteratorIPN3Bot23HorizonCrawlerDirectionEEESB_SB_Li0EEENS_4pairIT0_T2_EESD_T1_SE_, symObjAddr: 0x103C4, symBinAddr: 0x1000278F8, symSize: 0x12C }
  - { offsetInCU: 0x133A0, offset: 0x61BBA, size: 0x8, addend: 0x0, symName: __ZNSt3__114__unwrap_rangeB7v160006INS_16reverse_iteratorIPN3Bot23HorizonCrawlerDirectionEEES5_EENS_4pairIT0_S7_EET_S9_, symObjAddr: 0x104F0, symBinAddr: 0x100027A24, symSize: 0x84 }
  - { offsetInCU: 0x134C0, offset: 0x61CDA, size: 0x8, addend: 0x0, symName: __ZNSt3__113__unwrap_iterB7v160006INS_16reverse_iteratorIPN3Bot23HorizonCrawlerDirectionEEENS_18__unwrap_iter_implIS5_Lb0EEELi0EEEDTclsrT0_8__unwrapclsr3stdE7declvalIT_EEEES9_, symObjAddr: 0x10614, symBinAddr: 0x100027B48, symSize: 0x44 }
  - { offsetInCU: 0x13505, offset: 0x61D1F, size: 0x8, addend: 0x0, symName: __ZNSt3__19make_pairB7v160006INS_16reverse_iteratorIPN3Bot23HorizonCrawlerDirectionEEES5_EENS_4pairINS_18__unwrap_ref_decayIT_E4typeENS7_IT0_E4typeEEEOS8_OSB_, symObjAddr: 0x10658, symBinAddr: 0x100027B8C, symSize: 0x38 }
  - { offsetInCU: 0x13554, offset: 0x61D6E, size: 0x8, addend: 0x0, symName: __ZNSt3__114__rewrap_rangeB7v160006INS_16reverse_iteratorIPN3Bot23HorizonCrawlerDirectionEEES5_EET_S6_T0_, symObjAddr: 0x10690, symBinAddr: 0x100027BC4, symSize: 0x5C }
  - { offsetInCU: 0x135A0, offset: 0x61DBA, size: 0x8, addend: 0x0, symName: __ZNSt3__113__rewrap_iterB7v160006INS_16reverse_iteratorIPN3Bot23HorizonCrawlerDirectionEEES5_NS_18__unwrap_iter_implIS5_Lb0EEEEET_S8_T0_, symObjAddr: 0x106EC, symBinAddr: 0x100027C20, symSize: 0x74 }
  - { offsetInCU: 0x13661, offset: 0x61E7B, size: 0x8, addend: 0x0, symName: __ZNSt3__142__uninitialized_allocator_move_if_noexceptB7v160006INS_9allocatorIiEENS_16reverse_iteratorIPiEES5_ivEET1_RT_T0_S9_S6_, symObjAddr: 0x11004, symBinAddr: 0x100028538, symSize: 0x78 }
  - { offsetInCU: 0x136DF, offset: 0x61EF9, size: 0x8, addend: 0x0, symName: __ZNSt3__14swapB7v160006IPiEENS_9enable_ifIXaasr21is_move_constructibleIT_EE5valuesr18is_move_assignableIS3_EE5valueEvE4typeERS3_S6_, symObjAddr: 0x1107C, symBinAddr: 0x1000285B0, symSize: 0x3C }
  - { offsetInCU: 0x13731, offset: 0x61F4B, size: 0x8, addend: 0x0, symName: __ZNSt3__14moveB7v160006INS_16reverse_iteratorIPiEES3_EET0_T_S5_S4_, symObjAddr: 0x110B8, symBinAddr: 0x1000285EC, symSize: 0x78 }
  - { offsetInCU: 0x1378B, offset: 0x61FA5, size: 0x8, addend: 0x0, symName: __ZNSt3__16__moveB7v160006INS_17_ClassicAlgPolicyENS_16reverse_iteratorIPiEES4_S4_EENS_4pairIT0_T2_EES6_T1_S7_, symObjAddr: 0x11130, symBinAddr: 0x100028664, symSize: 0x64 }
  - { offsetInCU: 0x137F7, offset: 0x62011, size: 0x8, addend: 0x0, symName: __ZNSt3__123__dispatch_copy_or_moveB7v160006INS_17_ClassicAlgPolicyENS_11__move_loopIS1_EENS_14__move_trivialENS_16reverse_iteratorIPiEES7_S7_EENS_4pairIT2_T4_EES9_T3_SA_, symObjAddr: 0x11194, symBinAddr: 0x1000286C8, symSize: 0x64 }
  - { offsetInCU: 0x13875, offset: 0x6208F, size: 0x8, addend: 0x0, symName: __ZNSt3__121__unwrap_and_dispatchB7v160006INS_10__overloadINS_11__move_loopINS_17_ClassicAlgPolicyEEENS_14__move_trivialEEENS_16reverse_iteratorIPiEES9_S9_Li0EEENS_4pairIT0_T2_EESB_T1_SC_, symObjAddr: 0x111F8, symBinAddr: 0x10002872C, symSize: 0x12C }
  - { offsetInCU: 0x13908, offset: 0x62122, size: 0x8, addend: 0x0, symName: __ZNSt3__114__unwrap_rangeB7v160006INS_16reverse_iteratorIPiEES3_EENS_4pairIT0_S5_EET_S7_, symObjAddr: 0x11324, symBinAddr: 0x100028858, symSize: 0x84 }
  - { offsetInCU: 0x13A28, offset: 0x62242, size: 0x8, addend: 0x0, symName: __ZNSt3__113__unwrap_iterB7v160006INS_16reverse_iteratorIPiEENS_18__unwrap_iter_implIS3_Lb0EEELi0EEEDTclsrT0_8__unwrapclsr3stdE7declvalIT_EEEES7_, symObjAddr: 0x11448, symBinAddr: 0x10002897C, symSize: 0x44 }
  - { offsetInCU: 0x13A6D, offset: 0x62287, size: 0x8, addend: 0x0, symName: __ZNSt3__19make_pairB7v160006INS_16reverse_iteratorIPiEES3_EENS_4pairINS_18__unwrap_ref_decayIT_E4typeENS5_IT0_E4typeEEEOS6_OS9_, symObjAddr: 0x1148C, symBinAddr: 0x1000289C0, symSize: 0x38 }
  - { offsetInCU: 0x13ABC, offset: 0x622D6, size: 0x8, addend: 0x0, symName: __ZNSt3__114__rewrap_rangeB7v160006INS_16reverse_iteratorIPiEES3_EET_S4_T0_, symObjAddr: 0x114C4, symBinAddr: 0x1000289F8, symSize: 0x5C }
  - { offsetInCU: 0x13B08, offset: 0x62322, size: 0x8, addend: 0x0, symName: __ZNSt3__113__rewrap_iterB7v160006INS_16reverse_iteratorIPiEES3_NS_18__unwrap_iter_implIS3_Lb0EEEEET_S6_T0_, symObjAddr: 0x11520, symBinAddr: 0x100028A54, symSize: 0x74 }
  - { offsetInCU: 0x15638, offset: 0x63E52, size: 0x8, addend: 0x0, symName: __ZNSt3__16vectorIN6Blocks5BlockENS_9allocatorIS2_EEE26__swap_out_circular_bufferERNS_14__split_bufferIS2_RS4_EE, symObjAddr: 0x76F4, symBinAddr: 0x10001ED24, symSize: 0x118 }
  - { offsetInCU: 0x156D4, offset: 0x63EEE, size: 0x8, addend: 0x0, symName: __ZN3BotC1EP6Blocks, symObjAddr: 0x2C8, symBinAddr: 0x100017D18, symSize: 0x34 }
  - { offsetInCU: 0x15A40, offset: 0x6425A, size: 0x8, addend: 0x0, symName: __ZNSt3__16vectorIN3Bot23HorizonCrawlerDirectionENS_9allocatorIS2_EEE26__swap_out_circular_bufferERNS_14__split_bufferIS2_RS4_EE, symObjAddr: 0xFE60, symBinAddr: 0x100027394, symSize: 0x118 }
  - { offsetInCU: 0x15A82, offset: 0x6429C, size: 0x8, addend: 0x0, symName: __ZNSt3__16vectorIiNS_9allocatorIiEEE26__swap_out_circular_bufferERNS_14__split_bufferIiRS2_EE, symObjAddr: 0x10C94, symBinAddr: 0x1000281C8, symSize: 0x118 }
  - { offsetInCU: 0x17819, offset: 0x66033, size: 0x8, addend: 0x0, symName: __ZN3BotC2EP6Blocks, symObjAddr: 0x0, symBinAddr: 0x100017A50, symSize: 0x17C }
  - { offsetInCU: 0x17852, offset: 0x6606C, size: 0x8, addend: 0x0, symName: __ZNSt16initializer_listIiEC1B7v160006Ev, symObjAddr: 0x17C, symBinAddr: 0x100017BCC, symSize: 0x2C }
  - { offsetInCU: 0x1787B, offset: 0x66095, size: 0x8, addend: 0x0, symName: __ZNSt3__16vectorIiNS_9allocatorIiEEEC1B7v160006ESt16initializer_listIiE, symObjAddr: 0x1A8, symBinAddr: 0x100017BF8, symSize: 0x3C }
  - { offsetInCU: 0x178B5, offset: 0x660CF, size: 0x8, addend: 0x0, symName: __ZN3Bot7HorizonC1Ev, symObjAddr: 0x1E4, symBinAddr: 0x100017C34, symSize: 0x2C }
  - { offsetInCU: 0x178E0, offset: 0x660FA, size: 0x8, addend: 0x0, symName: '__ZNSt3__18functionIFvRKdEEC1IZN3BotC1EP6BlocksE3$_0vEET_', symObjAddr: 0x210, symBinAddr: 0x100017C60, symSize: 0x34 }
  - { offsetInCU: 0x17924, offset: 0x6613E, size: 0x8, addend: 0x0, symName: __ZNSt3__18functionIFvRKdEED1Ev, symObjAddr: 0x244, symBinAddr: 0x100017C94, symSize: 0x2C }
  - { offsetInCU: 0x1794F, offset: 0x66169, size: 0x8, addend: 0x0, symName: __ZN3Bot7HorizonD1Ev, symObjAddr: 0x270, symBinAddr: 0x100017CC0, symSize: 0x2C }
  - { offsetInCU: 0x1797A, offset: 0x66194, size: 0x8, addend: 0x0, symName: __ZNSt3__16vectorIiNS_9allocatorIiEEED1B7v160006Ev, symObjAddr: 0x29C, symBinAddr: 0x100017CEC, symSize: 0x2C }
  - { offsetInCU: 0x179A3, offset: 0x661BD, size: 0x8, addend: 0x0, symName: __ZN3BotD2Ev, symObjAddr: 0x2FC, symBinAddr: 0x100017D4C, symSize: 0x3C }
  - { offsetInCU: 0x179CE, offset: 0x661E8, size: 0x8, addend: 0x0, symName: __ZN3BotD1Ev, symObjAddr: 0x338, symBinAddr: 0x100017D88, symSize: 0x2C }
  - { offsetInCU: 0x179F9, offset: 0x66213, size: 0x8, addend: 0x0, symName: __ZN3Bot10_updateBotERKd, symObjAddr: 0x364, symBinAddr: 0x100017DB4, symSize: 0x270 }
  - { offsetInCU: 0x17A73, offset: 0x6628D, size: 0x8, addend: 0x0, symName: __ZN6Blocks8getStateEv, symObjAddr: 0x5E4, symBinAddr: 0x100018034, symSize: 0x18 }
  - { offsetInCU: 0x17A98, offset: 0x662B2, size: 0x8, addend: 0x0, symName: __ZN6Blocks12getFrameTickEv, symObjAddr: 0x5FC, symBinAddr: 0x10001804C, symSize: 0x18 }
  - { offsetInCU: 0x17ABD, offset: 0x662D7, size: 0x8, addend: 0x0, symName: __ZN3Bot10_getTargetERKN6Blocks13TetrominoTypeE, symObjAddr: 0x614, symBinAddr: 0x100018064, symSize: 0x468 }
  - { offsetInCU: 0x17BD0, offset: 0x663EA, size: 0x8, addend: 0x0, symName: __ZN6Blocks7getNextEv, symObjAddr: 0xA7C, symBinAddr: 0x1000184CC, symSize: 0x18 }
  - { offsetInCU: 0x17BF5, offset: 0x6640F, size: 0x8, addend: 0x0, symName: __ZNKSt3__16vectorINS0_INS_4pairIifEENS_9allocatorIS2_EEEENS3_IS5_EEE4sizeB7v160006Ev, symObjAddr: 0xA94, symBinAddr: 0x1000184E4, symSize: 0x28 }
  - { offsetInCU: 0x17C1A, offset: 0x66434, size: 0x8, addend: 0x0, symName: __ZN6Blocks10getGravityEv, symObjAddr: 0xABC, symBinAddr: 0x10001850C, symSize: 0x30 }
  - { offsetInCU: 0x17C3E, offset: 0x66458, size: 0x8, addend: 0x0, symName: __ZNSt3__16vectorINS0_INS_4pairIifEENS_9allocatorIS2_EEEENS3_IS5_EEED1B7v160006Ev, symObjAddr: 0xAEC, symBinAddr: 0x10001853C, symSize: 0x2C }
  - { offsetInCU: 0x17C67, offset: 0x66481, size: 0x8, addend: 0x0, symName: __ZN3Bot15_generateInputsERKNS_6TargetERKi, symObjAddr: 0xB18, symBinAddr: 0x100018568, symSize: 0x144 }
  - { offsetInCU: 0x17CCF, offset: 0x664E9, size: 0x8, addend: 0x0, symName: __ZNSt3__16vectorIiNS_9allocatorIiEEEaSB7v160006EOS3_, symObjAddr: 0xC5C, symBinAddr: 0x1000186AC, symSize: 0x34 }
  - { offsetInCU: 0x17D05, offset: 0x6651F, size: 0x8, addend: 0x0, symName: __ZNKSt3__16vectorIiNS_9allocatorIiEEE5emptyB7v160006Ev, symObjAddr: 0xC90, symBinAddr: 0x1000186E0, symSize: 0x28 }
  - { offsetInCU: 0x17D2A, offset: 0x66544, size: 0x8, addend: 0x0, symName: __ZNSt3__16vectorIiNS_9allocatorIiEEE2atEm, symObjAddr: 0xCB8, symBinAddr: 0x100018708, symSize: 0x60 }
  - { offsetInCU: 0x17D60, offset: 0x6657A, size: 0x8, addend: 0x0, symName: __ZN6Blocks8getInputEv, symObjAddr: 0xD18, symBinAddr: 0x100018768, symSize: 0x18 }
  - { offsetInCU: 0x17D85, offset: 0x6659F, size: 0x8, addend: 0x0, symName: __ZN12Controllable13setInputStateEi, symObjAddr: 0xD30, symBinAddr: 0x100018780, symSize: 0x20 }
  - { offsetInCU: 0x17DB8, offset: 0x665D2, size: 0x8, addend: 0x0, symName: __ZNSt3__16vectorIiNS_9allocatorIiEEE5eraseB7v160006ENS_11__wrap_iterIPKiEE, symObjAddr: 0xD50, symBinAddr: 0x1000187A0, symSize: 0xA4 }
  - { offsetInCU: 0x17E0C, offset: 0x66626, size: 0x8, addend: 0x0, symName: __ZNSt3__16vectorIiNS_9allocatorIiEEE5beginB7v160006Ev, symObjAddr: 0xDF4, symBinAddr: 0x100018844, symSize: 0x30 }
  - { offsetInCU: 0x17E3D, offset: 0x66657, size: 0x8, addend: 0x0, symName: __ZNSt3__111__wrap_iterIPKiEC1B7v160006IPiEERKNS0_IT_EEPNS_9enable_ifIXsr14is_convertibleIS6_S2_EE5valueEvE4typeE, symObjAddr: 0xE24, symBinAddr: 0x100018874, symSize: 0x3C }
  - { offsetInCU: 0x17E88, offset: 0x666A2, size: 0x8, addend: 0x0, symName: __ZN6Blocks17getNextAtRotationERKi, symObjAddr: 0xE60, symBinAddr: 0x1000188B0, symSize: 0x3C }
  - { offsetInCU: 0x17EBA, offset: 0x666D4, size: 0x8, addend: 0x0, symName: __ZNSt3__16vectorINS0_INS_4pairIifEENS_9allocatorIS2_EEEENS3_IS5_EEE2atEm, symObjAddr: 0xE9C, symBinAddr: 0x1000188EC, symSize: 0x68 }
  - { offsetInCU: 0x17EF0, offset: 0x6670A, size: 0x8, addend: 0x0, symName: __ZNKSt3__16vectorINS_4pairIifEENS_9allocatorIS2_EEE4sizeB7v160006Ev, symObjAddr: 0xF04, symBinAddr: 0x100018954, symSize: 0x28 }
  - { offsetInCU: 0x17F15, offset: 0x6672F, size: 0x8, addend: 0x0, symName: __ZNSt3__16vectorIN6Blocks5BlockENS_9allocatorIS2_EEEC1ERKS5_, symObjAddr: 0xF2C, symBinAddr: 0x10001897C, symSize: 0x34 }
  - { offsetInCU: 0x17F4F, offset: 0x66769, size: 0x8, addend: 0x0, symName: __ZNSt3__16vectorIN6Blocks5BlockENS_9allocatorIS2_EEED1B7v160006Ev, symObjAddr: 0xF60, symBinAddr: 0x1000189B0, symSize: 0x2C }
  - { offsetInCU: 0x17F78, offset: 0x66792, size: 0x8, addend: 0x0, symName: __ZNSt3__16vectorINS0_INS_4pairIifEENS_9allocatorIS2_EEEENS3_IS5_EEEC1ERKS7_, symObjAddr: 0xF8C, symBinAddr: 0x1000189DC, symSize: 0x34 }
  - { offsetInCU: 0x17FB2, offset: 0x667CC, size: 0x8, addend: 0x0, symName: __ZNKSt3__16vectorIN6Blocks5BlockENS_9allocatorIS2_EEE4sizeB7v160006Ev, symObjAddr: 0xFC0, symBinAddr: 0x100018A10, symSize: 0x28 }
  - { offsetInCU: 0x17FD7, offset: 0x667F1, size: 0x8, addend: 0x0, symName: __ZNSt3__16vectorIN6Blocks5BlockENS_9allocatorIS2_EEE2atEm, symObjAddr: 0xFE8, symBinAddr: 0x100018A38, symSize: 0x60 }
  - { offsetInCU: 0x1800D, offset: 0x66827, size: 0x8, addend: 0x0, symName: __ZNSt3__16vectorINS_4pairIifEENS_9allocatorIS2_EEE2atEm, symObjAddr: 0x107C, symBinAddr: 0x100018ACC, symSize: 0x60 }
  - { offsetInCU: 0x18043, offset: 0x6685D, size: 0x8, addend: 0x0, symName: __ZNSt3__14pairIifEaSB7v160006EOS1_, symObjAddr: 0x10DC, symBinAddr: 0x100018B2C, symSize: 0x30 }
  - { offsetInCU: 0x18077, offset: 0x66891, size: 0x8, addend: 0x0, symName: __ZN3Bot11_getHorizonERKNSt3__16vectorINS1_INS0_4pairIifEENS0_9allocatorIS3_EEEENS4_IS6_EEEE, symObjAddr: 0x110C, symBinAddr: 0x100018B5C, symSize: 0x298 }
  - { offsetInCU: 0x18137, offset: 0x66951, size: 0x8, addend: 0x0, symName: __ZN3Bot7HorizonltERS0_, symObjAddr: 0x13B8, symBinAddr: 0x100018E08, symSize: 0xC8 }
  - { offsetInCU: 0x18173, offset: 0x6698D, size: 0x8, addend: 0x0, symName: __ZN3Bot7HorizonaSERKS0_, symObjAddr: 0x1480, symBinAddr: 0x100018ED0, symSize: 0x40 }
  - { offsetInCU: 0x181A3, offset: 0x669BD, size: 0x8, addend: 0x0, symName: __ZNKSt3__16vectorINS0_INS_4pairIifEENS_9allocatorIS2_EEEENS3_IS5_EEE2atEm, symObjAddr: 0x14C0, symBinAddr: 0x100018F10, symSize: 0x68 }
  - { offsetInCU: 0x181D9, offset: 0x669F3, size: 0x8, addend: 0x0, symName: __ZNKSt3__16vectorINS_4pairIifEENS_9allocatorIS2_EEE2atEm, symObjAddr: 0x1528, symBinAddr: 0x100018F78, symSize: 0x60 }
  - { offsetInCU: 0x18219, offset: 0x66A33, size: 0x8, addend: 0x0, symName: '__ZZN3Bot11_getHorizonERKNSt3__16vectorINS1_INS0_4pairIifEENS0_9allocatorIS3_EEEENS4_IS6_EEEEENK3$_1clERKmSD_', symObjAddr: 0x1588, symBinAddr: 0x100018FD8, symSize: 0x200 }
  - { offsetInCU: 0x1825E, offset: 0x66A78, size: 0x8, addend: 0x0, symName: __ZNKSt3__16vectorIN3Bot23HorizonCrawlerDirectionENS_9allocatorIS2_EEE4sizeB7v160006Ev, symObjAddr: 0x1788, symBinAddr: 0x1000191D8, symSize: 0x28 }
  - { offsetInCU: 0x18283, offset: 0x66A9D, size: 0x8, addend: 0x0, symName: __ZNSt3__16vectorIN3Bot23HorizonCrawlerDirectionENS_9allocatorIS2_EEE2atEm, symObjAddr: 0x17B0, symBinAddr: 0x100019200, symSize: 0x60 }
  - { offsetInCU: 0x182B9, offset: 0x66AD3, size: 0x8, addend: 0x0, symName: __ZNSt3__16vectorIN3Bot23HorizonCrawlerDirectionENS_9allocatorIS2_EEE9push_backB7v160006ERKS2_, symObjAddr: 0x1810, symBinAddr: 0x100019260, symSize: 0x6C }
  - { offsetInCU: 0x182F4, offset: 0x66B0E, size: 0x8, addend: 0x0, symName: '__ZZN3Bot11_getHorizonERKNSt3__16vectorINS1_INS0_4pairIifEENS0_9allocatorIS3_EEEENS4_IS6_EEEEEN3$_1D1Ev', symObjAddr: 0x187C, symBinAddr: 0x1000192CC, symSize: 0x2C }
  - { offsetInCU: 0x1831F, offset: 0x66B39, size: 0x8, addend: 0x0, symName: __ZNSt3__16vectorIiNS_9allocatorIiEEEC1B7v160006Ev, symObjAddr: 0x18A8, symBinAddr: 0x1000192F8, symSize: 0x2C }
  - { offsetInCU: 0x18348, offset: 0x66B62, size: 0x8, addend: 0x0, symName: __ZNSt3__16vectorIiNS_9allocatorIiEEE9push_backB7v160006EOi, symObjAddr: 0x18D4, symBinAddr: 0x100019324, symSize: 0x6C }
  - { offsetInCU: 0x1837E, offset: 0x66B98, size: 0x8, addend: 0x0, symName: __ZN3Bot7HorizonC2Ev, symObjAddr: 0x1940, symBinAddr: 0x100019390, symSize: 0x2C }
  - { offsetInCU: 0x183A9, offset: 0x66BC3, size: 0x8, addend: 0x0, symName: __ZNSt3__16vectorIN3Bot23HorizonCrawlerDirectionENS_9allocatorIS2_EEEC1B7v160006Ev, symObjAddr: 0x196C, symBinAddr: 0x1000193BC, symSize: 0x2C }
  - { offsetInCU: 0x183D2, offset: 0x66BEC, size: 0x8, addend: 0x0, symName: __ZNSt3__16vectorIN3Bot23HorizonCrawlerDirectionENS_9allocatorIS2_EEEC2B7v160006Ev, symObjAddr: 0x1998, symBinAddr: 0x1000193E8, symSize: 0x58 }
  - { offsetInCU: 0x18405, offset: 0x66C1F, size: 0x8, addend: 0x0, symName: __ZNSt3__117__compressed_pairIPN3Bot23HorizonCrawlerDirectionENS_9allocatorIS2_EEEC1B7v160006IDnNS_18__default_init_tagEEEOT_OT0_, symObjAddr: 0x19F0, symBinAddr: 0x100019440, symSize: 0x3C }
  - { offsetInCU: 0x1845C, offset: 0x66C76, size: 0x8, addend: 0x0, symName: __ZNSt3__117__compressed_pairIPN3Bot23HorizonCrawlerDirectionENS_9allocatorIS2_EEEC2B7v160006IDnNS_18__default_init_tagEEEOT_OT0_, symObjAddr: 0x1A48, symBinAddr: 0x10001948C, symSize: 0x40 }
  - { offsetInCU: 0x184B3, offset: 0x66CCD, size: 0x8, addend: 0x0, symName: __ZNSt3__122__compressed_pair_elemIPN3Bot23HorizonCrawlerDirectionELi0ELb0EEC2B7v160006IDnvEEOT_, symObjAddr: 0x1A88, symBinAddr: 0x1000194CC, symSize: 0x1C }
  - { offsetInCU: 0x184F4, offset: 0x66D0E, size: 0x8, addend: 0x0, symName: __ZNSt3__122__compressed_pair_elemINS_9allocatorIN3Bot23HorizonCrawlerDirectionEEELi1ELb1EEC2B7v160006ENS_18__default_init_tagE, symObjAddr: 0x1AA4, symBinAddr: 0x1000194E8, symSize: 0x2C }
  - { offsetInCU: 0x18528, offset: 0x66D42, size: 0x8, addend: 0x0, symName: __ZNSt3__19allocatorIN3Bot23HorizonCrawlerDirectionEEC2B7v160006Ev, symObjAddr: 0x1AD0, symBinAddr: 0x100019514, symSize: 0x2C }
  - { offsetInCU: 0x18551, offset: 0x66D6B, size: 0x8, addend: 0x0, symName: __ZNSt3__116__non_trivial_ifILb1ENS_9allocatorIN3Bot23HorizonCrawlerDirectionEEEEC2B7v160006Ev, symObjAddr: 0x1AFC, symBinAddr: 0x100019540, symSize: 0x14 }
  - { offsetInCU: 0x1857A, offset: 0x66D94, size: 0x8, addend: 0x0, symName: __ZN3Bot7HorizonD2Ev, symObjAddr: 0x1B10, symBinAddr: 0x100019554, symSize: 0x2C }
  - { offsetInCU: 0x185A5, offset: 0x66DBF, size: 0x8, addend: 0x0, symName: __ZNSt3__16vectorIN3Bot23HorizonCrawlerDirectionENS_9allocatorIS2_EEED1B7v160006Ev, symObjAddr: 0x1B3C, symBinAddr: 0x100019580, symSize: 0x2C }
  - { offsetInCU: 0x185CE, offset: 0x66DE8, size: 0x8, addend: 0x0, symName: __ZNSt3__16vectorIN3Bot23HorizonCrawlerDirectionENS_9allocatorIS2_EEED2B7v160006Ev, symObjAddr: 0x1B68, symBinAddr: 0x1000195AC, symSize: 0x44 }
  - { offsetInCU: 0x185F7, offset: 0x66E11, size: 0x8, addend: 0x0, symName: __ZNSt3__16vectorIN3Bot23HorizonCrawlerDirectionENS_9allocatorIS2_EEE16__destroy_vectorC1ERS5_, symObjAddr: 0x1BAC, symBinAddr: 0x1000195F0, symSize: 0x34 }
  - { offsetInCU: 0x1862F, offset: 0x66E49, size: 0x8, addend: 0x0, symName: __ZNSt3__16vectorIN3Bot23HorizonCrawlerDirectionENS_9allocatorIS2_EEE16__destroy_vectorclB7v160006Ev, symObjAddr: 0x1BE0, symBinAddr: 0x100019624, symSize: 0x9C }
  - { offsetInCU: 0x18653, offset: 0x66E6D, size: 0x8, addend: 0x0, symName: __ZNSt3__16vectorIN3Bot23HorizonCrawlerDirectionENS_9allocatorIS2_EEE16__destroy_vectorC2ERS5_, symObjAddr: 0x1C7C, symBinAddr: 0x1000196C0, symSize: 0x20 }
  - { offsetInCU: 0x1868B, offset: 0x66EA5, size: 0x8, addend: 0x0, symName: __ZNKSt3__16vectorIN3Bot23HorizonCrawlerDirectionENS_9allocatorIS2_EEE17__annotate_deleteB7v160006Ev, symObjAddr: 0x1C9C, symBinAddr: 0x1000196E0, symSize: 0xB8 }
  - { offsetInCU: 0x186AF, offset: 0x66EC9, size: 0x8, addend: 0x0, symName: __ZNSt3__16vectorIN3Bot23HorizonCrawlerDirectionENS_9allocatorIS2_EEE7__clearB7v160006Ev, symObjAddr: 0x1D64, symBinAddr: 0x1000197A8, symSize: 0x28 }
  - { offsetInCU: 0x186D3, offset: 0x66EED, size: 0x8, addend: 0x0, symName: __ZNSt3__116allocator_traitsINS_9allocatorIN3Bot23HorizonCrawlerDirectionEEEE10deallocateB7v160006ERS4_PS3_m, symObjAddr: 0x1D8C, symBinAddr: 0x1000197D0, symSize: 0x34 }
  - { offsetInCU: 0x18715, offset: 0x66F2F, size: 0x8, addend: 0x0, symName: __ZNSt3__16vectorIN3Bot23HorizonCrawlerDirectionENS_9allocatorIS2_EEE7__allocB7v160006Ev, symObjAddr: 0x1DC0, symBinAddr: 0x100019804, symSize: 0x28 }
  - { offsetInCU: 0x18739, offset: 0x66F53, size: 0x8, addend: 0x0, symName: __ZNKSt3__16vectorIN3Bot23HorizonCrawlerDirectionENS_9allocatorIS2_EEE8capacityB7v160006Ev, symObjAddr: 0x1DE8, symBinAddr: 0x10001982C, symSize: 0x40 }
  - { offsetInCU: 0x1875D, offset: 0x66F77, size: 0x8, addend: 0x0, symName: __ZNKSt3__16vectorIN3Bot23HorizonCrawlerDirectionENS_9allocatorIS2_EEE31__annotate_contiguous_containerB7v160006EPKvS7_S7_S7_, symObjAddr: 0x1E28, symBinAddr: 0x10001986C, symSize: 0x20 }
  - { offsetInCU: 0x187B2, offset: 0x66FCC, size: 0x8, addend: 0x0, symName: __ZNKSt3__16vectorIN3Bot23HorizonCrawlerDirectionENS_9allocatorIS2_EEE4dataB7v160006Ev, symObjAddr: 0x1E48, symBinAddr: 0x10001988C, symSize: 0x28 }
  - { offsetInCU: 0x187D6, offset: 0x66FF0, size: 0x8, addend: 0x0, symName: __ZNSt3__16vectorIN3Bot23HorizonCrawlerDirectionENS_9allocatorIS2_EEE22__base_destruct_at_endB7v160006EPS2_, symObjAddr: 0x1E84, symBinAddr: 0x1000198C8, symSize: 0x8C }
  - { offsetInCU: 0x18818, offset: 0x67032, size: 0x8, addend: 0x0, symName: __ZNSt3__116allocator_traitsINS_9allocatorIN3Bot23HorizonCrawlerDirectionEEEE7destroyB7v160006IS3_vEEvRS4_PT_, symObjAddr: 0x1F10, symBinAddr: 0x100019954, symSize: 0x2C }
  - { offsetInCU: 0x18855, offset: 0x6706F, size: 0x8, addend: 0x0, symName: __ZNSt3__19allocatorIN3Bot23HorizonCrawlerDirectionEE7destroyB7v160006EPS2_, symObjAddr: 0x1F3C, symBinAddr: 0x100019980, symSize: 0x14 }
  - { offsetInCU: 0x18888, offset: 0x670A2, size: 0x8, addend: 0x0, symName: __ZNSt3__19allocatorIN3Bot23HorizonCrawlerDirectionEE10deallocateB7v160006EPS2_m, symObjAddr: 0x1F50, symBinAddr: 0x100019994, symSize: 0x40 }
  - { offsetInCU: 0x188C8, offset: 0x670E2, size: 0x8, addend: 0x0, symName: __ZNSt3__117__compressed_pairIPN3Bot23HorizonCrawlerDirectionENS_9allocatorIS2_EEE6secondB7v160006Ev, symObjAddr: 0x200C, symBinAddr: 0x1000199D4, symSize: 0x24 }
  - { offsetInCU: 0x188EC, offset: 0x67106, size: 0x8, addend: 0x0, symName: __ZNSt3__122__compressed_pair_elemINS_9allocatorIN3Bot23HorizonCrawlerDirectionEEELi1ELb1EE5__getB7v160006Ev, symObjAddr: 0x2030, symBinAddr: 0x1000199F8, symSize: 0x14 }
  - { offsetInCU: 0x18911, offset: 0x6712B, size: 0x8, addend: 0x0, symName: __ZNKSt3__16vectorIN3Bot23HorizonCrawlerDirectionENS_9allocatorIS2_EEE9__end_capB7v160006Ev, symObjAddr: 0x2044, symBinAddr: 0x100019A0C, symSize: 0x28 }
  - { offsetInCU: 0x18935, offset: 0x6714F, size: 0x8, addend: 0x0, symName: __ZNKSt3__117__compressed_pairIPN3Bot23HorizonCrawlerDirectionENS_9allocatorIS2_EEE5firstB7v160006Ev, symObjAddr: 0x206C, symBinAddr: 0x100019A34, symSize: 0x24 }
  - { offsetInCU: 0x18959, offset: 0x67173, size: 0x8, addend: 0x0, symName: __ZNKSt3__122__compressed_pair_elemIPN3Bot23HorizonCrawlerDirectionELi0ELb0EE5__getB7v160006Ev, symObjAddr: 0x2090, symBinAddr: 0x100019A58, symSize: 0x14 }
  - { offsetInCU: 0x1897E, offset: 0x67198, size: 0x8, addend: 0x0, symName: __ZN6Blocks11_getGravityERKi, symObjAddr: 0x20A4, symBinAddr: 0x100019A6C, symSize: 0x438 }
  - { offsetInCU: 0x189B1, offset: 0x671CB, size: 0x8, addend: 0x0, symName: __ZN6Blocks10_getBlocksERKNS_13TetrominoTypeERKi, symObjAddr: 0x24DC, symBinAddr: 0x100019EA4, symSize: 0xFB4 }
  - { offsetInCU: 0x18A3B, offset: 0x67255, size: 0x8, addend: 0x0, symName: __ZNSt3__16vectorINS0_IiNS_9allocatorIiEEEENS1_IS3_EEEC1B7v160006Ev, symObjAddr: 0x34AC, symBinAddr: 0x10001AE74, symSize: 0x2C }
  - { offsetInCU: 0x18A64, offset: 0x6727E, size: 0x8, addend: 0x0, symName: __ZNSt3__16vectorINS0_IiNS_9allocatorIiEEEENS1_IS3_EEEaSB7v160006ESt16initializer_listIS3_E, symObjAddr: 0x34D8, symBinAddr: 0x10001AEA0, symSize: 0x60 }
  - { offsetInCU: 0x18A97, offset: 0x672B1, size: 0x8, addend: 0x0, symName: __ZNSt3__16vectorIN6Blocks5BlockENS_9allocatorIS2_EEEC1B7v160006Ev, symObjAddr: 0x3538, symBinAddr: 0x10001AF00, symSize: 0x2C }
  - { offsetInCU: 0x18AC0, offset: 0x672DA, size: 0x8, addend: 0x0, symName: __ZNSt3__16vectorINS0_IiNS_9allocatorIiEEEENS1_IS3_EEE2atEm, symObjAddr: 0x3564, symBinAddr: 0x10001AF2C, symSize: 0x68 }
  - { offsetInCU: 0x18AF6, offset: 0x67310, size: 0x8, addend: 0x0, symName: __ZNKSt3__16vectorINS0_IiNS_9allocatorIiEEEENS1_IS3_EEE4sizeB7v160006Ev, symObjAddr: 0x35CC, symBinAddr: 0x10001AF94, symSize: 0x28 }
  - { offsetInCU: 0x18B1B, offset: 0x67335, size: 0x8, addend: 0x0, symName: __ZNSt3__16vectorIiNS_9allocatorIiEEEC1ERKS3_, symObjAddr: 0x35F4, symBinAddr: 0x10001AFBC, symSize: 0x34 }
  - { offsetInCU: 0x18B55, offset: 0x6736F, size: 0x8, addend: 0x0, symName: __ZNKSt3__16vectorIiNS_9allocatorIiEEE4sizeB7v160006Ev, symObjAddr: 0x3628, symBinAddr: 0x10001AFF0, symSize: 0x28 }
  - { offsetInCU: 0x18B7A, offset: 0x67394, size: 0x8, addend: 0x0, symName: __ZNSt3__16vectorIN6Blocks5BlockENS_9allocatorIS2_EEE9push_backB7v160006EOS2_, symObjAddr: 0x3650, symBinAddr: 0x10001B018, symSize: 0x6C }
  - { offsetInCU: 0x18BB0, offset: 0x673CA, size: 0x8, addend: 0x0, symName: __ZN6Blocks5BlockC1ERKi, symObjAddr: 0x36BC, symBinAddr: 0x10001B084, symSize: 0x34 }
  - { offsetInCU: 0x18BE7, offset: 0x67401, size: 0x8, addend: 0x0, symName: __ZNSt3__16vectorINS0_IiNS_9allocatorIiEEEENS1_IS3_EEED1B7v160006Ev, symObjAddr: 0x36F0, symBinAddr: 0x10001B0B8, symSize: 0x2C }
  - { offsetInCU: 0x18C10, offset: 0x6742A, size: 0x8, addend: 0x0, symName: __ZNSt3__16vectorINS0_IiNS_9allocatorIiEEEENS1_IS3_EEEC2B7v160006Ev, symObjAddr: 0x371C, symBinAddr: 0x10001B0E4, symSize: 0x58 }
  - { offsetInCU: 0x18C39, offset: 0x67453, size: 0x8, addend: 0x0, symName: __ZNSt3__117__compressed_pairIPNS_6vectorIiNS_9allocatorIiEEEENS2_IS4_EEEC1B7v160006IDnNS_18__default_init_tagEEEOT_OT0_, symObjAddr: 0x3774, symBinAddr: 0x10001B13C, symSize: 0x3C }
  - { offsetInCU: 0x18C90, offset: 0x674AA, size: 0x8, addend: 0x0, symName: __ZNSt3__117__compressed_pairIPNS_6vectorIiNS_9allocatorIiEEEENS2_IS4_EEEC2B7v160006IDnNS_18__default_init_tagEEEOT_OT0_, symObjAddr: 0x37C0, symBinAddr: 0x10001B188, symSize: 0x40 }
  - { offsetInCU: 0x18CE7, offset: 0x67501, size: 0x8, addend: 0x0, symName: __ZNSt3__122__compressed_pair_elemIPNS_6vectorIiNS_9allocatorIiEEEELi0ELb0EEC2B7v160006IDnvEEOT_, symObjAddr: 0x3800, symBinAddr: 0x10001B1C8, symSize: 0x1C }
  - { offsetInCU: 0x18D28, offset: 0x67542, size: 0x8, addend: 0x0, symName: __ZNSt3__122__compressed_pair_elemINS_9allocatorINS_6vectorIiNS1_IiEEEEEELi1ELb1EEC2B7v160006ENS_18__default_init_tagE, symObjAddr: 0x381C, symBinAddr: 0x10001B1E4, symSize: 0x2C }
  - { offsetInCU: 0x18D5C, offset: 0x67576, size: 0x8, addend: 0x0, symName: __ZNSt3__19allocatorINS_6vectorIiNS0_IiEEEEEC2B7v160006Ev, symObjAddr: 0x3848, symBinAddr: 0x10001B210, symSize: 0x2C }
  - { offsetInCU: 0x18D85, offset: 0x6759F, size: 0x8, addend: 0x0, symName: __ZNSt3__116__non_trivial_ifILb1ENS_9allocatorINS_6vectorIiNS1_IiEEEEEEEC2B7v160006Ev, symObjAddr: 0x3874, symBinAddr: 0x10001B23C, symSize: 0x14 }
  - { offsetInCU: 0x18DAE, offset: 0x675C8, size: 0x8, addend: 0x0, symName: __ZNSt3__16vectorINS0_IiNS_9allocatorIiEEEENS1_IS3_EEE6assignIPKS3_Li0EEEvT_S9_, symObjAddr: 0x3888, symBinAddr: 0x10001B250, symSize: 0x17C }
  - { offsetInCU: 0x18E4E, offset: 0x67668, size: 0x8, addend: 0x0, symName: __ZNKSt16initializer_listINSt3__16vectorIiNS0_9allocatorIiEEEEE5beginB7v160006Ev, symObjAddr: 0x3A04, symBinAddr: 0x10001B3CC, symSize: 0x18 }
  - { offsetInCU: 0x18E73, offset: 0x6768D, size: 0x8, addend: 0x0, symName: __ZNKSt16initializer_listINSt3__16vectorIiNS0_9allocatorIiEEEEE3endB7v160006Ev, symObjAddr: 0x3A1C, symBinAddr: 0x10001B3E4, symSize: 0x28 }
  - { offsetInCU: 0x18E98, offset: 0x676B2, size: 0x8, addend: 0x0, symName: __ZNKSt3__16vectorINS0_IiNS_9allocatorIiEEEENS1_IS3_EEE8capacityB7v160006Ev, symObjAddr: 0x3A70, symBinAddr: 0x10001B438, symSize: 0x40 }
  - { offsetInCU: 0x18EBC, offset: 0x676D6, size: 0x8, addend: 0x0, symName: __ZNSt3__16vectorINS0_IiNS_9allocatorIiEEEENS1_IS3_EEE18__construct_at_endIPKS3_Li0EEEvT_S9_m, symObjAddr: 0x3B40, symBinAddr: 0x10001B508, symSize: 0x8C }
  - { offsetInCU: 0x18F2F, offset: 0x67749, size: 0x8, addend: 0x0, symName: __ZNSt3__16vectorINS0_IiNS_9allocatorIiEEEENS1_IS3_EEE17__destruct_at_endB7v160006EPS3_, symObjAddr: 0x3BCC, symBinAddr: 0x10001B594, symSize: 0x60 }
  - { offsetInCU: 0x18F71, offset: 0x6778B, size: 0x8, addend: 0x0, symName: __ZNSt3__16vectorINS0_IiNS_9allocatorIiEEEENS1_IS3_EEE13__vdeallocateEv, symObjAddr: 0x3C2C, symBinAddr: 0x10001B5F4, symSize: 0x8C }
  - { offsetInCU: 0x18F98, offset: 0x677B2, size: 0x8, addend: 0x0, symName: __ZNSt3__16vectorINS0_IiNS_9allocatorIiEEEENS1_IS3_EEE11__vallocateB7v160006Em, symObjAddr: 0x3CB8, symBinAddr: 0x10001B680, symSize: 0xB4 }
  - { offsetInCU: 0x18FDA, offset: 0x677F4, size: 0x8, addend: 0x0, symName: __ZNKSt3__16vectorINS0_IiNS_9allocatorIiEEEENS1_IS3_EEE11__recommendB7v160006Em, symObjAddr: 0x3D6C, symBinAddr: 0x10001B734, symSize: 0xB4 }
  - { offsetInCU: 0x1902E, offset: 0x67848, size: 0x8, addend: 0x0, symName: __ZNKSt3__16vectorINS0_IiNS_9allocatorIiEEEENS1_IS3_EEE9__end_capB7v160006Ev, symObjAddr: 0x3E58, symBinAddr: 0x10001B820, symSize: 0x28 }
  - { offsetInCU: 0x19052, offset: 0x6786C, size: 0x8, addend: 0x0, symName: __ZNKSt3__117__compressed_pairIPNS_6vectorIiNS_9allocatorIiEEEENS2_IS4_EEE5firstB7v160006Ev, symObjAddr: 0x3E80, symBinAddr: 0x10001B848, symSize: 0x24 }
  - { offsetInCU: 0x19076, offset: 0x67890, size: 0x8, addend: 0x0, symName: __ZNKSt3__122__compressed_pair_elemIPNS_6vectorIiNS_9allocatorIiEEEELi0ELb0EE5__getB7v160006Ev, symObjAddr: 0x3EA4, symBinAddr: 0x10001B86C, symSize: 0x14 }
  - { offsetInCU: 0x190BE, offset: 0x678D8, size: 0x8, addend: 0x0, symName: __ZNKSt3__111__copy_loopINS_17_ClassicAlgPolicyEEclB7v160006IPKNS_6vectorIiNS_9allocatorIiEEEES9_PS7_EENS_4pairIT_T1_EESC_T0_SD_, symObjAddr: 0x4098, symBinAddr: 0x10001BA60, symSize: 0x88 }
  - { offsetInCU: 0x19145, offset: 0x6795F, size: 0x8, addend: 0x0, symName: __ZNSt3__14pairIPKNS_6vectorIiNS_9allocatorIiEEEES6_EC1B7v160006IS6_S6_LPv0EEEOT_OT0_, symObjAddr: 0x4240, symBinAddr: 0x10001BC08, symSize: 0x3C }
  - { offsetInCU: 0x191A2, offset: 0x679BC, size: 0x8, addend: 0x0, symName: __ZNSt3__14pairIPKNS_6vectorIiNS_9allocatorIiEEEES6_EC2B7v160006IS6_S6_LPv0EEEOT_OT0_, symObjAddr: 0x427C, symBinAddr: 0x10001BC44, symSize: 0x34 }
  - { offsetInCU: 0x191FF, offset: 0x67A19, size: 0x8, addend: 0x0, symName: __ZNSt3__118__unwrap_iter_implIPKNS_6vectorIiNS_9allocatorIiEEEELb1EE8__unwrapB7v160006ES6_, symObjAddr: 0x42B0, symBinAddr: 0x10001BC78, symSize: 0x24 }
  - { offsetInCU: 0x19222, offset: 0x67A3C, size: 0x8, addend: 0x0, symName: __ZNSt3__16vectorIiNS_9allocatorIiEEEaSB7v160006ERKS3_, symObjAddr: 0x42E8, symBinAddr: 0x10001BCB0, symSize: 0x68 }
  - { offsetInCU: 0x19258, offset: 0x67A72, size: 0x8, addend: 0x0, symName: __ZNSt3__16vectorIiNS_9allocatorIiEEE19__copy_assign_allocB7v160006ERKS3_, symObjAddr: 0x4350, symBinAddr: 0x10001BD18, symSize: 0x2C }
  - { offsetInCU: 0x1928B, offset: 0x67AA5, size: 0x8, addend: 0x0, symName: __ZNSt3__16vectorIiNS_9allocatorIiEEE6assignIPiLi0EEEvT_S6_, symObjAddr: 0x437C, symBinAddr: 0x10001BD44, symSize: 0x17C }
  - { offsetInCU: 0x1932B, offset: 0x67B45, size: 0x8, addend: 0x0, symName: __ZNSt3__16vectorIiNS_9allocatorIiEEE19__copy_assign_allocB7v160006ERKS3_NS_17integral_constantIbLb0EEE, symObjAddr: 0x44F8, symBinAddr: 0x10001BEC0, symSize: 0x14 }
  - { offsetInCU: 0x19368, offset: 0x67B82, size: 0x8, addend: 0x0, symName: __ZNKSt3__16vectorIiNS_9allocatorIiEEE8capacityB7v160006Ev, symObjAddr: 0x4538, symBinAddr: 0x10001BF00, symSize: 0x40 }
  - { offsetInCU: 0x1938C, offset: 0x67BA6, size: 0x8, addend: 0x0, symName: __ZNSt3__16vectorIiNS_9allocatorIiEEE18__construct_at_endIPiLi0EEEvT_S6_m, symObjAddr: 0x4608, symBinAddr: 0x10001BFD0, symSize: 0x8C }
  - { offsetInCU: 0x193FF, offset: 0x67C19, size: 0x8, addend: 0x0, symName: __ZNSt3__16vectorIiNS_9allocatorIiEEE17__destruct_at_endB7v160006EPi, symObjAddr: 0x4694, symBinAddr: 0x10001C05C, symSize: 0x60 }
  - { offsetInCU: 0x19441, offset: 0x67C5B, size: 0x8, addend: 0x0, symName: __ZNSt3__16vectorIiNS_9allocatorIiEEE13__vdeallocateEv, symObjAddr: 0x46F4, symBinAddr: 0x10001C0BC, symSize: 0x8C }
  - { offsetInCU: 0x19468, offset: 0x67C82, size: 0x8, addend: 0x0, symName: __ZNSt3__16vectorIiNS_9allocatorIiEEE11__vallocateB7v160006Em, symObjAddr: 0x4780, symBinAddr: 0x10001C148, symSize: 0xAC }
  - { offsetInCU: 0x194AA, offset: 0x67CC4, size: 0x8, addend: 0x0, symName: __ZNKSt3__16vectorIiNS_9allocatorIiEEE11__recommendB7v160006Em, symObjAddr: 0x482C, symBinAddr: 0x10001C1F4, symSize: 0xB4 }
  - { offsetInCU: 0x194FE, offset: 0x67D18, size: 0x8, addend: 0x0, symName: __ZNKSt3__16vectorIiNS_9allocatorIiEEE9__end_capB7v160006Ev, symObjAddr: 0x4918, symBinAddr: 0x10001C2E0, symSize: 0x28 }
  - { offsetInCU: 0x19522, offset: 0x67D3C, size: 0x8, addend: 0x0, symName: __ZNKSt3__117__compressed_pairIPiNS_9allocatorIiEEE5firstB7v160006Ev, symObjAddr: 0x4940, symBinAddr: 0x10001C308, symSize: 0x24 }
  - { offsetInCU: 0x19546, offset: 0x67D60, size: 0x8, addend: 0x0, symName: __ZNKSt3__122__compressed_pair_elemIPiLi0ELb0EE5__getB7v160006Ev, symObjAddr: 0x4964, symBinAddr: 0x10001C32C, symSize: 0x14 }
  - { offsetInCU: 0x1958E, offset: 0x67DA8, size: 0x8, addend: 0x0, symName: __ZNKSt3__114__copy_trivialclB7v160006IiiLi0EEENS_4pairIPT_PT0_EES4_S4_S6_, symObjAddr: 0x4B3C, symBinAddr: 0x10001C504, symSize: 0x48 }
  - { offsetInCU: 0x195FA, offset: 0x67E14, size: 0x8, addend: 0x0, symName: __ZNSt3__14pairIPiS1_EC1B7v160006IRS1_S1_LPv0EEEOT_OT0_, symObjAddr: 0x4D04, symBinAddr: 0x10001C6CC, symSize: 0x3C }
  - { offsetInCU: 0x19657, offset: 0x67E71, size: 0x8, addend: 0x0, symName: __ZNSt3__14pairIPiS1_EC2B7v160006IRS1_S1_LPv0EEEOT_OT0_, symObjAddr: 0x4D40, symBinAddr: 0x10001C708, symSize: 0x34 }
  - { offsetInCU: 0x196B4, offset: 0x67ECE, size: 0x8, addend: 0x0, symName: __ZNSt3__118__unwrap_iter_implIPiLb1EE8__unwrapB7v160006ES1_, symObjAddr: 0x4D74, symBinAddr: 0x10001C73C, symSize: 0x24 }
  - { offsetInCU: 0x196D7, offset: 0x67EF1, size: 0x8, addend: 0x0, symName: __ZNSt3__14pairIPiS1_EC1B7v160006IS1_S1_LPv0EEEOT_OT0_, symObjAddr: 0x4DAC, symBinAddr: 0x10001C774, symSize: 0x3C }
  - { offsetInCU: 0x19734, offset: 0x67F4E, size: 0x8, addend: 0x0, symName: __ZNSt3__14pairIPiS1_EC2B7v160006IS1_S1_LPv0EEEOT_OT0_, symObjAddr: 0x4DE8, symBinAddr: 0x10001C7B0, symSize: 0x34 }
  - { offsetInCU: 0x19791, offset: 0x67FAB, size: 0x8, addend: 0x0, symName: __ZNSt3__118__unwrap_iter_implIPiLb1EE8__rewrapB7v160006ES1_S1_, symObjAddr: 0x4E1C, symBinAddr: 0x10001C7E4, symSize: 0x50 }
  - { offsetInCU: 0x197DB, offset: 0x67FF5, size: 0x8, addend: 0x0, symName: __ZNSt3__16vectorIiNS_9allocatorIiEEE21_ConstructTransactionC1B7v160006ERS3_m, symObjAddr: 0x4E6C, symBinAddr: 0x10001C834, symSize: 0x3C }
  - { offsetInCU: 0x19822, offset: 0x6803C, size: 0x8, addend: 0x0, symName: __ZNSt3__16vectorIiNS_9allocatorIiEEE7__allocB7v160006Ev, symObjAddr: 0x4F9C, symBinAddr: 0x10001C964, symSize: 0x28 }
  - { offsetInCU: 0x19846, offset: 0x68060, size: 0x8, addend: 0x0, symName: __ZNSt3__16vectorIiNS_9allocatorIiEEE21_ConstructTransactionD1B7v160006Ev, symObjAddr: 0x4FC4, symBinAddr: 0x10001C98C, symSize: 0x2C }
  - { offsetInCU: 0x1986F, offset: 0x68089, size: 0x8, addend: 0x0, symName: __ZNSt3__16vectorIiNS_9allocatorIiEEE21_ConstructTransactionC2B7v160006ERS3_m, symObjAddr: 0x4FF0, symBinAddr: 0x10001C9B8, symSize: 0x44 }
  - { offsetInCU: 0x198B6, offset: 0x680D0, size: 0x8, addend: 0x0, symName: __ZNSt3__129_AllocatorDestroyRangeReverseINS_9allocatorIiEEPiEC1B7v160006ERS2_RS3_S6_, symObjAddr: 0x5080, symBinAddr: 0x10001CA48, symSize: 0x44 }
  - { offsetInCU: 0x1990C, offset: 0x68126, size: 0x8, addend: 0x0, symName: __ZNSt3__116allocator_traitsINS_9allocatorIiEEE9constructB7v160006IiJRiEvEEvRS2_PT_DpOT0_, symObjAddr: 0x50C4, symBinAddr: 0x10001CA8C, symSize: 0x34 }
  - { offsetInCU: 0x19963, offset: 0x6817D, size: 0x8, addend: 0x0, symName: __ZNSt3__128__exception_guard_exceptionsINS_29_AllocatorDestroyRangeReverseINS_9allocatorIiEEPiEEE10__completeB7v160006Ev, symObjAddr: 0x50F8, symBinAddr: 0x10001CAC0, symSize: 0x1C }
  - { offsetInCU: 0x19988, offset: 0x681A2, size: 0x8, addend: 0x0, symName: __ZNSt3__128__exception_guard_exceptionsINS_29_AllocatorDestroyRangeReverseINS_9allocatorIiEEPiEEED1B7v160006Ev, symObjAddr: 0x5114, symBinAddr: 0x10001CADC, symSize: 0x2C }
  - { offsetInCU: 0x199B1, offset: 0x681CB, size: 0x8, addend: 0x0, symName: __ZNSt3__128__exception_guard_exceptionsINS_29_AllocatorDestroyRangeReverseINS_9allocatorIiEEPiEEEC1B7v160006ES5_, symObjAddr: 0x5140, symBinAddr: 0x10001CB08, symSize: 0x34 }
  - { offsetInCU: 0x199E9, offset: 0x68203, size: 0x8, addend: 0x0, symName: __ZNSt3__128__exception_guard_exceptionsINS_29_AllocatorDestroyRangeReverseINS_9allocatorIiEEPiEEEC2B7v160006ES5_, symObjAddr: 0x5174, symBinAddr: 0x10001CB3C, symSize: 0x30 }
  - { offsetInCU: 0x19A21, offset: 0x6823B, size: 0x8, addend: 0x0, symName: __ZNSt3__129_AllocatorDestroyRangeReverseINS_9allocatorIiEEPiEC2B7v160006ERS2_RS3_S6_, symObjAddr: 0x51A4, symBinAddr: 0x10001CB6C, symSize: 0x38 }
  - { offsetInCU: 0x19A77, offset: 0x68291, size: 0x8, addend: 0x0, symName: __ZNSt3__19allocatorIiE9constructB7v160006IiJRiEEEvPT_DpOT0_, symObjAddr: 0x51DC, symBinAddr: 0x10001CBA4, symSize: 0x28 }
  - { offsetInCU: 0x19ACC, offset: 0x682E6, size: 0x8, addend: 0x0, symName: __ZNSt3__128__exception_guard_exceptionsINS_29_AllocatorDestroyRangeReverseINS_9allocatorIiEEPiEEED2B7v160006Ev, symObjAddr: 0x5204, symBinAddr: 0x10001CBCC, symSize: 0x50 }
  - { offsetInCU: 0x19AF5, offset: 0x6830F, size: 0x8, addend: 0x0, symName: __ZNKSt3__129_AllocatorDestroyRangeReverseINS_9allocatorIiEEPiEclB7v160006Ev, symObjAddr: 0x5254, symBinAddr: 0x10001CC1C, symSize: 0x68 }
  - { offsetInCU: 0x19B19, offset: 0x68333, size: 0x8, addend: 0x0, symName: __ZNSt3__116reverse_iteratorIPiEC1B7v160006ES1_, symObjAddr: 0x532C, symBinAddr: 0x10001CCF4, symSize: 0x34 }
  - { offsetInCU: 0x19B50, offset: 0x6836A, size: 0x8, addend: 0x0, symName: __ZNSt3__116allocator_traitsINS_9allocatorIiEEE7destroyB7v160006IivEEvRS2_PT_, symObjAddr: 0x53A8, symBinAddr: 0x10001CD70, symSize: 0x2C }
  - { offsetInCU: 0x19B8D, offset: 0x683A7, size: 0x8, addend: 0x0, symName: __ZNSt3__116reverse_iteratorIPiEppB7v160006Ev, symObjAddr: 0x53F8, symBinAddr: 0x10001CDC0, symSize: 0x20 }
  - { offsetInCU: 0x19BB2, offset: 0x683CC, size: 0x8, addend: 0x0, symName: __ZNKSt3__116reverse_iteratorIPiE4baseB7v160006Ev, symObjAddr: 0x5418, symBinAddr: 0x10001CDE0, symSize: 0x18 }
  - { offsetInCU: 0x19BD7, offset: 0x683F1, size: 0x8, addend: 0x0, symName: __ZNSt3__19allocatorIiE7destroyB7v160006EPi, symObjAddr: 0x5430, symBinAddr: 0x10001CDF8, symSize: 0x14 }
  - { offsetInCU: 0x19C0F, offset: 0x68429, size: 0x8, addend: 0x0, symName: __ZNSt3__119__to_address_helperINS_16reverse_iteratorIPiEEvE6__callB7v160006ERKS3_, symObjAddr: 0x5444, symBinAddr: 0x10001CE0C, symSize: 0x38 }
  - { offsetInCU: 0x19C32, offset: 0x6844C, size: 0x8, addend: 0x0, symName: __ZNKSt3__116reverse_iteratorIPiEptB7v160006Ev, symObjAddr: 0x547C, symBinAddr: 0x10001CE44, symSize: 0x24 }
  - { offsetInCU: 0x19C56, offset: 0x68470, size: 0x8, addend: 0x0, symName: __ZNKSt3__116reverse_iteratorIPiEdeB7v160006Ev, symObjAddr: 0x54A0, symBinAddr: 0x10001CE68, symSize: 0x28 }
  - { offsetInCU: 0x19C8A, offset: 0x684A4, size: 0x8, addend: 0x0, symName: __ZNSt3__116reverse_iteratorIPiEC2B7v160006ES1_, symObjAddr: 0x54C8, symBinAddr: 0x10001CE90, symSize: 0x28 }
  - { offsetInCU: 0x19CC1, offset: 0x684DB, size: 0x8, addend: 0x0, symName: __ZNSt3__117__compressed_pairIPiNS_9allocatorIiEEE6secondB7v160006Ev, symObjAddr: 0x54F0, symBinAddr: 0x10001CEB8, symSize: 0x24 }
  - { offsetInCU: 0x19CE5, offset: 0x684FF, size: 0x8, addend: 0x0, symName: __ZNSt3__122__compressed_pair_elemINS_9allocatorIiEELi1ELb1EE5__getB7v160006Ev, symObjAddr: 0x5514, symBinAddr: 0x10001CEDC, symSize: 0x14 }
  - { offsetInCU: 0x19D0A, offset: 0x68524, size: 0x8, addend: 0x0, symName: __ZNSt3__16vectorIiNS_9allocatorIiEEE21_ConstructTransactionD2B7v160006Ev, symObjAddr: 0x5528, symBinAddr: 0x10001CEF0, symSize: 0x20 }
  - { offsetInCU: 0x19D33, offset: 0x6854D, size: 0x8, addend: 0x0, symName: __ZNSt3__16vectorIiNS_9allocatorIiEEE27__invalidate_iterators_pastB7v160006EPi, symObjAddr: 0x5548, symBinAddr: 0x10001CF10, symSize: 0x14 }
  - { offsetInCU: 0x19D69, offset: 0x68583, size: 0x8, addend: 0x0, symName: __ZNSt3__16vectorIiNS_9allocatorIiEEE22__base_destruct_at_endB7v160006EPi, symObjAddr: 0x555C, symBinAddr: 0x10001CF24, symSize: 0x8C }
  - { offsetInCU: 0x19DAB, offset: 0x685C5, size: 0x8, addend: 0x0, symName: __ZNKSt3__16vectorIiNS_9allocatorIiEEE17__annotate_shrinkB7v160006Em, symObjAddr: 0x55E8, symBinAddr: 0x10001CFB0, symSize: 0xB4 }
  - { offsetInCU: 0x19DDE, offset: 0x685F8, size: 0x8, addend: 0x0, symName: __ZNKSt3__16vectorIiNS_9allocatorIiEEE31__annotate_contiguous_containerB7v160006EPKvS5_S5_S5_, symObjAddr: 0x569C, symBinAddr: 0x10001D064, symSize: 0x20 }
  - { offsetInCU: 0x19E33, offset: 0x6864D, size: 0x8, addend: 0x0, symName: __ZNKSt3__16vectorIiNS_9allocatorIiEEE4dataB7v160006Ev, symObjAddr: 0x56BC, symBinAddr: 0x10001D084, symSize: 0x28 }
  - { offsetInCU: 0x19E57, offset: 0x68671, size: 0x8, addend: 0x0, symName: __ZNSt3__16vectorIiNS_9allocatorIiEEE5clearB7v160006Ev, symObjAddr: 0x56E4, symBinAddr: 0x10001D0AC, symSize: 0x54 }
  - { offsetInCU: 0x19E8A, offset: 0x686A4, size: 0x8, addend: 0x0, symName: __ZNSt3__116allocator_traitsINS_9allocatorIiEEE10deallocateB7v160006ERS2_Pim, symObjAddr: 0x5738, symBinAddr: 0x10001D100, symSize: 0x34 }
  - { offsetInCU: 0x19ECC, offset: 0x686E6, size: 0x8, addend: 0x0, symName: __ZNSt3__16vectorIiNS_9allocatorIiEEE9__end_capB7v160006Ev, symObjAddr: 0x576C, symBinAddr: 0x10001D134, symSize: 0x28 }
  - { offsetInCU: 0x19EF0, offset: 0x6870A, size: 0x8, addend: 0x0, symName: __ZNSt3__16vectorIiNS_9allocatorIiEEE7__clearB7v160006Ev, symObjAddr: 0x5794, symBinAddr: 0x10001D15C, symSize: 0x28 }
  - { offsetInCU: 0x19F14, offset: 0x6872E, size: 0x8, addend: 0x0, symName: __ZNSt3__19allocatorIiE10deallocateB7v160006EPim, symObjAddr: 0x57BC, symBinAddr: 0x10001D184, symSize: 0x40 }
  - { offsetInCU: 0x19F54, offset: 0x6876E, size: 0x8, addend: 0x0, symName: __ZNSt3__117__compressed_pairIPiNS_9allocatorIiEEE5firstB7v160006Ev, symObjAddr: 0x57FC, symBinAddr: 0x10001D1C4, symSize: 0x24 }
  - { offsetInCU: 0x19F78, offset: 0x68792, size: 0x8, addend: 0x0, symName: __ZNSt3__122__compressed_pair_elemIPiLi0ELb0EE5__getB7v160006Ev, symObjAddr: 0x5820, symBinAddr: 0x10001D1E8, symSize: 0x14 }
  - { offsetInCU: 0x19F9D, offset: 0x687B7, size: 0x8, addend: 0x0, symName: __ZNKSt3__16vectorIiNS_9allocatorIiEEE8max_sizeEv, symObjAddr: 0x5834, symBinAddr: 0x10001D1FC, symSize: 0x60 }
  - { offsetInCU: 0x19FC4, offset: 0x687DE, size: 0x8, addend: 0x0, symName: __ZNKSt3__16vectorIiNS_9allocatorIiEEE20__throw_length_errorB7v160006Ev, symObjAddr: 0x5894, symBinAddr: 0x10001D25C, symSize: 0x1C }
  - { offsetInCU: 0x19FE8, offset: 0x68802, size: 0x8, addend: 0x0, symName: __ZNKSt3__16vectorIiNS_9allocatorIiEEE14__annotate_newB7v160006Em, symObjAddr: 0x58F0, symBinAddr: 0x10001D2B8, symSize: 0xAC }
  - { offsetInCU: 0x1A025, offset: 0x6883F, size: 0x8, addend: 0x0, symName: __ZNSt3__116allocator_traitsINS_9allocatorIiEEE8max_sizeB7v160006IS2_vEEmRKS2_, symObjAddr: 0x59C8, symBinAddr: 0x10001D364, symSize: 0x24 }
  - { offsetInCU: 0x1A053, offset: 0x6886D, size: 0x8, addend: 0x0, symName: __ZNKSt3__16vectorIiNS_9allocatorIiEEE7__allocB7v160006Ev, symObjAddr: 0x59EC, symBinAddr: 0x10001D388, symSize: 0x28 }
  - { offsetInCU: 0x1A077, offset: 0x68891, size: 0x8, addend: 0x0, symName: __ZNKSt3__19allocatorIiE8max_sizeB7v160006Ev, symObjAddr: 0x5AB0, symBinAddr: 0x10001D3B0, symSize: 0x14 }
  - { offsetInCU: 0x1A09C, offset: 0x688B6, size: 0x8, addend: 0x0, symName: __ZNKSt3__117__compressed_pairIPiNS_9allocatorIiEEE6secondB7v160006Ev, symObjAddr: 0x5AC4, symBinAddr: 0x10001D3C4, symSize: 0x24 }
  - { offsetInCU: 0x1A0C0, offset: 0x688DA, size: 0x8, addend: 0x0, symName: __ZNKSt3__122__compressed_pair_elemINS_9allocatorIiEELi1ELb1EE5__getB7v160006Ev, symObjAddr: 0x5AE8, symBinAddr: 0x10001D3E8, symSize: 0x14 }
  - { offsetInCU: 0x1A0E5, offset: 0x688FF, size: 0x8, addend: 0x0, symName: __ZNSt3__19allocatorIiE8allocateB7v160006Em, symObjAddr: 0x5BE8, symBinAddr: 0x10001D3FC, symSize: 0x58 }
  - { offsetInCU: 0x1A117, offset: 0x68931, size: 0x8, addend: 0x0, symName: __ZNSt3__118__unwrap_iter_implIPNS_6vectorIiNS_9allocatorIiEEEELb1EE8__unwrapB7v160006ES5_, symObjAddr: 0x5D40, symBinAddr: 0x10001D454, symSize: 0x24 }
  - { offsetInCU: 0x1A13F, offset: 0x68959, size: 0x8, addend: 0x0, symName: __ZNSt3__14pairIPKNS_6vectorIiNS_9allocatorIiEEEEPS4_EC1B7v160006IS6_S7_LPv0EEEOT_OT0_, symObjAddr: 0x5D78, symBinAddr: 0x10001D48C, symSize: 0x3C }
  - { offsetInCU: 0x1A19C, offset: 0x689B6, size: 0x8, addend: 0x0, symName: __ZNSt3__14pairIPKNS_6vectorIiNS_9allocatorIiEEEEPS4_EC2B7v160006IS6_S7_LPv0EEEOT_OT0_, symObjAddr: 0x5DB4, symBinAddr: 0x10001D4C8, symSize: 0x34 }
  - { offsetInCU: 0x1A1F9, offset: 0x68A13, size: 0x8, addend: 0x0, symName: __ZNSt3__118__unwrap_iter_implIPKNS_6vectorIiNS_9allocatorIiEEEELb1EE8__rewrapB7v160006ES6_S6_, symObjAddr: 0x5E24, symBinAddr: 0x10001D538, symSize: 0x58 }
  - { offsetInCU: 0x1A22A, offset: 0x68A44, size: 0x8, addend: 0x0, symName: __ZNSt3__118__unwrap_iter_implIPNS_6vectorIiNS_9allocatorIiEEEELb1EE8__rewrapB7v160006ES5_S5_, symObjAddr: 0x5E7C, symBinAddr: 0x10001D590, symSize: 0x58 }
  - { offsetInCU: 0x1A274, offset: 0x68A8E, size: 0x8, addend: 0x0, symName: __ZNSt3__16vectorINS0_IiNS_9allocatorIiEEEENS1_IS3_EEE21_ConstructTransactionC1B7v160006ERS5_m, symObjAddr: 0x5ED4, symBinAddr: 0x10001D5E8, symSize: 0x3C }
  - { offsetInCU: 0x1A2BB, offset: 0x68AD5, size: 0x8, addend: 0x0, symName: __ZNSt3__16vectorINS0_IiNS_9allocatorIiEEEENS1_IS3_EEE7__allocB7v160006Ev, symObjAddr: 0x6004, symBinAddr: 0x10001D718, symSize: 0x28 }
  - { offsetInCU: 0x1A2DF, offset: 0x68AF9, size: 0x8, addend: 0x0, symName: __ZNSt3__16vectorINS0_IiNS_9allocatorIiEEEENS1_IS3_EEE21_ConstructTransactionD1B7v160006Ev, symObjAddr: 0x602C, symBinAddr: 0x10001D740, symSize: 0x2C }
  - { offsetInCU: 0x1A308, offset: 0x68B22, size: 0x8, addend: 0x0, symName: __ZNSt3__16vectorINS0_IiNS_9allocatorIiEEEENS1_IS3_EEE21_ConstructTransactionC2B7v160006ERS5_m, symObjAddr: 0x6058, symBinAddr: 0x10001D76C, symSize: 0x4C }
  - { offsetInCU: 0x1A34F, offset: 0x68B69, size: 0x8, addend: 0x0, symName: __ZNSt3__129_AllocatorDestroyRangeReverseINS_9allocatorINS_6vectorIiNS1_IiEEEEEEPS4_EC1B7v160006ERS5_RS6_S9_, symObjAddr: 0x60F0, symBinAddr: 0x10001D804, symSize: 0x44 }
  - { offsetInCU: 0x1A3A5, offset: 0x68BBF, size: 0x8, addend: 0x0, symName: __ZNSt3__116allocator_traitsINS_9allocatorINS_6vectorIiNS1_IiEEEEEEE9constructB7v160006IS4_JRKS4_EvEEvRS5_PT_DpOT0_, symObjAddr: 0x6134, symBinAddr: 0x10001D848, symSize: 0x34 }
  - { offsetInCU: 0x1A3FC, offset: 0x68C16, size: 0x8, addend: 0x0, symName: __ZNSt3__128__exception_guard_exceptionsINS_29_AllocatorDestroyRangeReverseINS_9allocatorINS_6vectorIiNS2_IiEEEEEEPS5_EEE10__completeB7v160006Ev, symObjAddr: 0x6168, symBinAddr: 0x10001D87C, symSize: 0x1C }
  - { offsetInCU: 0x1A421, offset: 0x68C3B, size: 0x8, addend: 0x0, symName: __ZNSt3__128__exception_guard_exceptionsINS_29_AllocatorDestroyRangeReverseINS_9allocatorINS_6vectorIiNS2_IiEEEEEEPS5_EEED1B7v160006Ev, symObjAddr: 0x6184, symBinAddr: 0x10001D898, symSize: 0x2C }
  - { offsetInCU: 0x1A44A, offset: 0x68C64, size: 0x8, addend: 0x0, symName: __ZNSt3__128__exception_guard_exceptionsINS_29_AllocatorDestroyRangeReverseINS_9allocatorINS_6vectorIiNS2_IiEEEEEEPS5_EEEC1B7v160006ES8_, symObjAddr: 0x61B0, symBinAddr: 0x10001D8C4, symSize: 0x34 }
  - { offsetInCU: 0x1A482, offset: 0x68C9C, size: 0x8, addend: 0x0, symName: __ZNSt3__128__exception_guard_exceptionsINS_29_AllocatorDestroyRangeReverseINS_9allocatorINS_6vectorIiNS2_IiEEEEEEPS5_EEEC2B7v160006ES8_, symObjAddr: 0x61E4, symBinAddr: 0x10001D8F8, symSize: 0x30 }
  - { offsetInCU: 0x1A4BA, offset: 0x68CD4, size: 0x8, addend: 0x0, symName: __ZNSt3__129_AllocatorDestroyRangeReverseINS_9allocatorINS_6vectorIiNS1_IiEEEEEEPS4_EC2B7v160006ERS5_RS6_S9_, symObjAddr: 0x6214, symBinAddr: 0x10001D928, symSize: 0x38 }
  - { offsetInCU: 0x1A510, offset: 0x68D2A, size: 0x8, addend: 0x0, symName: __ZNSt3__19allocatorINS_6vectorIiNS0_IiEEEEE9constructB7v160006IS3_JRKS3_EEEvPT_DpOT0_, symObjAddr: 0x624C, symBinAddr: 0x10001D960, symSize: 0x30 }
  - { offsetInCU: 0x1A564, offset: 0x68D7E, size: 0x8, addend: 0x0, symName: __ZNSt3__128__exception_guard_exceptionsINS_29_AllocatorDestroyRangeReverseINS_9allocatorINS_6vectorIiNS2_IiEEEEEEPS5_EEED2B7v160006Ev, symObjAddr: 0x627C, symBinAddr: 0x10001D990, symSize: 0x50 }
  - { offsetInCU: 0x1A58D, offset: 0x68DA7, size: 0x8, addend: 0x0, symName: __ZNKSt3__129_AllocatorDestroyRangeReverseINS_9allocatorINS_6vectorIiNS1_IiEEEEEEPS4_EclB7v160006Ev, symObjAddr: 0x62CC, symBinAddr: 0x10001D9E0, symSize: 0x68 }
  - { offsetInCU: 0x1A5B1, offset: 0x68DCB, size: 0x8, addend: 0x0, symName: __ZNSt3__116reverse_iteratorIPNS_6vectorIiNS_9allocatorIiEEEEEC1B7v160006ES5_, symObjAddr: 0x63A4, symBinAddr: 0x10001DAB8, symSize: 0x34 }
  - { offsetInCU: 0x1A5E8, offset: 0x68E02, size: 0x8, addend: 0x0, symName: __ZNSt3__116allocator_traitsINS_9allocatorINS_6vectorIiNS1_IiEEEEEEE7destroyB7v160006IS4_vEEvRS5_PT_, symObjAddr: 0x6420, symBinAddr: 0x10001DB34, symSize: 0x2C }
  - { offsetInCU: 0x1A625, offset: 0x68E3F, size: 0x8, addend: 0x0, symName: __ZNSt3__116reverse_iteratorIPNS_6vectorIiNS_9allocatorIiEEEEEppB7v160006Ev, symObjAddr: 0x6470, symBinAddr: 0x10001DB84, symSize: 0x20 }
  - { offsetInCU: 0x1A64A, offset: 0x68E64, size: 0x8, addend: 0x0, symName: __ZNKSt3__116reverse_iteratorIPNS_6vectorIiNS_9allocatorIiEEEEE4baseB7v160006Ev, symObjAddr: 0x6490, symBinAddr: 0x10001DBA4, symSize: 0x18 }
  - { offsetInCU: 0x1A66F, offset: 0x68E89, size: 0x8, addend: 0x0, symName: __ZNSt3__19allocatorINS_6vectorIiNS0_IiEEEEE7destroyB7v160006EPS3_, symObjAddr: 0x64A8, symBinAddr: 0x10001DBBC, symSize: 0x28 }
  - { offsetInCU: 0x1A6A6, offset: 0x68EC0, size: 0x8, addend: 0x0, symName: __ZNSt3__119__to_address_helperINS_16reverse_iteratorIPNS_6vectorIiNS_9allocatorIiEEEEEEvE6__callB7v160006ERKS7_, symObjAddr: 0x64D0, symBinAddr: 0x10001DBE4, symSize: 0x38 }
  - { offsetInCU: 0x1A6C9, offset: 0x68EE3, size: 0x8, addend: 0x0, symName: __ZNKSt3__116reverse_iteratorIPNS_6vectorIiNS_9allocatorIiEEEEEptB7v160006Ev, symObjAddr: 0x6508, symBinAddr: 0x10001DC1C, symSize: 0x24 }
  - { offsetInCU: 0x1A6ED, offset: 0x68F07, size: 0x8, addend: 0x0, symName: __ZNKSt3__116reverse_iteratorIPNS_6vectorIiNS_9allocatorIiEEEEEdeB7v160006Ev, symObjAddr: 0x652C, symBinAddr: 0x10001DC40, symSize: 0x28 }
  - { offsetInCU: 0x1A721, offset: 0x68F3B, size: 0x8, addend: 0x0, symName: __ZNSt3__116reverse_iteratorIPNS_6vectorIiNS_9allocatorIiEEEEEC2B7v160006ES5_, symObjAddr: 0x6554, symBinAddr: 0x10001DC68, symSize: 0x28 }
  - { offsetInCU: 0x1A758, offset: 0x68F72, size: 0x8, addend: 0x0, symName: __ZNSt3__117__compressed_pairIPNS_6vectorIiNS_9allocatorIiEEEENS2_IS4_EEE6secondB7v160006Ev, symObjAddr: 0x657C, symBinAddr: 0x10001DC90, symSize: 0x24 }
  - { offsetInCU: 0x1A77C, offset: 0x68F96, size: 0x8, addend: 0x0, symName: __ZNSt3__122__compressed_pair_elemINS_9allocatorINS_6vectorIiNS1_IiEEEEEELi1ELb1EE5__getB7v160006Ev, symObjAddr: 0x65A0, symBinAddr: 0x10001DCB4, symSize: 0x14 }
  - { offsetInCU: 0x1A7A1, offset: 0x68FBB, size: 0x8, addend: 0x0, symName: __ZNSt3__16vectorINS0_IiNS_9allocatorIiEEEENS1_IS3_EEE21_ConstructTransactionD2B7v160006Ev, symObjAddr: 0x65B4, symBinAddr: 0x10001DCC8, symSize: 0x20 }
  - { offsetInCU: 0x1A7CA, offset: 0x68FE4, size: 0x8, addend: 0x0, symName: __ZNSt3__16vectorINS0_IiNS_9allocatorIiEEEENS1_IS3_EEE27__invalidate_iterators_pastB7v160006EPS3_, symObjAddr: 0x65D4, symBinAddr: 0x10001DCE8, symSize: 0x14 }
  - { offsetInCU: 0x1A800, offset: 0x6901A, size: 0x8, addend: 0x0, symName: __ZNSt3__16vectorINS0_IiNS_9allocatorIiEEEENS1_IS3_EEE22__base_destruct_at_endB7v160006EPS3_, symObjAddr: 0x65E8, symBinAddr: 0x10001DCFC, symSize: 0x8C }
  - { offsetInCU: 0x1A842, offset: 0x6905C, size: 0x8, addend: 0x0, symName: __ZNKSt3__16vectorINS0_IiNS_9allocatorIiEEEENS1_IS3_EEE17__annotate_shrinkB7v160006Em, symObjAddr: 0x6674, symBinAddr: 0x10001DD88, symSize: 0xD0 }
  - { offsetInCU: 0x1A875, offset: 0x6908F, size: 0x8, addend: 0x0, symName: __ZNKSt3__16vectorINS0_IiNS_9allocatorIiEEEENS1_IS3_EEE31__annotate_contiguous_containerB7v160006EPKvS7_S7_S7_, symObjAddr: 0x6744, symBinAddr: 0x10001DE58, symSize: 0x20 }
  - { offsetInCU: 0x1A8CA, offset: 0x690E4, size: 0x8, addend: 0x0, symName: __ZNKSt3__16vectorINS0_IiNS_9allocatorIiEEEENS1_IS3_EEE4dataB7v160006Ev, symObjAddr: 0x6764, symBinAddr: 0x10001DE78, symSize: 0x28 }
  - { offsetInCU: 0x1A8EE, offset: 0x69108, size: 0x8, addend: 0x0, symName: __ZNSt3__16vectorINS0_IiNS_9allocatorIiEEEENS1_IS3_EEE5clearB7v160006Ev, symObjAddr: 0x678C, symBinAddr: 0x10001DEA0, symSize: 0x54 }
  - { offsetInCU: 0x1A921, offset: 0x6913B, size: 0x8, addend: 0x0, symName: __ZNSt3__116allocator_traitsINS_9allocatorINS_6vectorIiNS1_IiEEEEEEE10deallocateB7v160006ERS5_PS4_m, symObjAddr: 0x67E0, symBinAddr: 0x10001DEF4, symSize: 0x34 }
  - { offsetInCU: 0x1A963, offset: 0x6917D, size: 0x8, addend: 0x0, symName: __ZNSt3__16vectorINS0_IiNS_9allocatorIiEEEENS1_IS3_EEE9__end_capB7v160006Ev, symObjAddr: 0x6814, symBinAddr: 0x10001DF28, symSize: 0x28 }
  - { offsetInCU: 0x1A987, offset: 0x691A1, size: 0x8, addend: 0x0, symName: __ZNSt3__16vectorINS0_IiNS_9allocatorIiEEEENS1_IS3_EEE7__clearB7v160006Ev, symObjAddr: 0x683C, symBinAddr: 0x10001DF50, symSize: 0x28 }
  - { offsetInCU: 0x1A9AB, offset: 0x691C5, size: 0x8, addend: 0x0, symName: __ZNSt3__19allocatorINS_6vectorIiNS0_IiEEEEE10deallocateB7v160006EPS3_m, symObjAddr: 0x6864, symBinAddr: 0x10001DF78, symSize: 0x44 }
  - { offsetInCU: 0x1A9EB, offset: 0x69205, size: 0x8, addend: 0x0, symName: __ZNSt3__117__compressed_pairIPNS_6vectorIiNS_9allocatorIiEEEENS2_IS4_EEE5firstB7v160006Ev, symObjAddr: 0x68A8, symBinAddr: 0x10001DFBC, symSize: 0x24 }
  - { offsetInCU: 0x1AA0F, offset: 0x69229, size: 0x8, addend: 0x0, symName: __ZNSt3__122__compressed_pair_elemIPNS_6vectorIiNS_9allocatorIiEEEELi0ELb0EE5__getB7v160006Ev, symObjAddr: 0x68CC, symBinAddr: 0x10001DFE0, symSize: 0x14 }
  - { offsetInCU: 0x1AA34, offset: 0x6924E, size: 0x8, addend: 0x0, symName: __ZNKSt3__16vectorINS0_IiNS_9allocatorIiEEEENS1_IS3_EEE8max_sizeEv, symObjAddr: 0x68E0, symBinAddr: 0x10001DFF4, symSize: 0x60 }
  - { offsetInCU: 0x1AA5B, offset: 0x69275, size: 0x8, addend: 0x0, symName: __ZNKSt3__16vectorINS0_IiNS_9allocatorIiEEEENS1_IS3_EEE20__throw_length_errorB7v160006Ev, symObjAddr: 0x6940, symBinAddr: 0x10001E054, symSize: 0x1C }
  - { offsetInCU: 0x1AA7F, offset: 0x69299, size: 0x8, addend: 0x0, symName: __ZNKSt3__16vectorINS0_IiNS_9allocatorIiEEEENS1_IS3_EEE14__annotate_newB7v160006Em, symObjAddr: 0x699C, symBinAddr: 0x10001E0B0, symSize: 0xC8 }
  - { offsetInCU: 0x1AABC, offset: 0x692D6, size: 0x8, addend: 0x0, symName: __ZNSt3__116allocator_traitsINS_9allocatorINS_6vectorIiNS1_IiEEEEEEE8max_sizeB7v160006IS5_vEEmRKS5_, symObjAddr: 0x6A64, symBinAddr: 0x10001E178, symSize: 0x24 }
  - { offsetInCU: 0x1AAEA, offset: 0x69304, size: 0x8, addend: 0x0, symName: __ZNKSt3__16vectorINS0_IiNS_9allocatorIiEEEENS1_IS3_EEE7__allocB7v160006Ev, symObjAddr: 0x6A88, symBinAddr: 0x10001E19C, symSize: 0x28 }
  - { offsetInCU: 0x1AB0E, offset: 0x69328, size: 0x8, addend: 0x0, symName: __ZNKSt3__19allocatorINS_6vectorIiNS0_IiEEEEE8max_sizeB7v160006Ev, symObjAddr: 0x6AB0, symBinAddr: 0x10001E1C4, symSize: 0x18 }
  - { offsetInCU: 0x1AB33, offset: 0x6934D, size: 0x8, addend: 0x0, symName: __ZNKSt3__117__compressed_pairIPNS_6vectorIiNS_9allocatorIiEEEENS2_IS4_EEE6secondB7v160006Ev, symObjAddr: 0x6AC8, symBinAddr: 0x10001E1DC, symSize: 0x24 }
  - { offsetInCU: 0x1AB57, offset: 0x69371, size: 0x8, addend: 0x0, symName: __ZNKSt3__122__compressed_pair_elemINS_9allocatorINS_6vectorIiNS1_IiEEEEEELi1ELb1EE5__getB7v160006Ev, symObjAddr: 0x6AEC, symBinAddr: 0x10001E200, symSize: 0x14 }
  - { offsetInCU: 0x1AB7C, offset: 0x69396, size: 0x8, addend: 0x0, symName: __ZNSt3__19allocatorINS_6vectorIiNS0_IiEEEEE8allocateB7v160006Em, symObjAddr: 0x6B00, symBinAddr: 0x10001E214, symSize: 0x5C }
  - { offsetInCU: 0x1ABAE, offset: 0x693C8, size: 0x8, addend: 0x0, symName: __ZNSt3__16vectorIN6Blocks5BlockENS_9allocatorIS2_EEEC2B7v160006Ev, symObjAddr: 0x6B5C, symBinAddr: 0x10001E270, symSize: 0x58 }
  - { offsetInCU: 0x1ABD7, offset: 0x693F1, size: 0x8, addend: 0x0, symName: __ZNSt3__117__compressed_pairIPN6Blocks5BlockENS_9allocatorIS2_EEEC1B7v160006IDnNS_18__default_init_tagEEEOT_OT0_, symObjAddr: 0x6BB4, symBinAddr: 0x10001E2C8, symSize: 0x3C }
  - { offsetInCU: 0x1AC2E, offset: 0x69448, size: 0x8, addend: 0x0, symName: __ZNSt3__117__compressed_pairIPN6Blocks5BlockENS_9allocatorIS2_EEEC2B7v160006IDnNS_18__default_init_tagEEEOT_OT0_, symObjAddr: 0x6C00, symBinAddr: 0x10001E314, symSize: 0x40 }
  - { offsetInCU: 0x1AC85, offset: 0x6949F, size: 0x8, addend: 0x0, symName: __ZNSt3__122__compressed_pair_elemIPN6Blocks5BlockELi0ELb0EEC2B7v160006IDnvEEOT_, symObjAddr: 0x6C40, symBinAddr: 0x10001E354, symSize: 0x1C }
  - { offsetInCU: 0x1ACC6, offset: 0x694E0, size: 0x8, addend: 0x0, symName: __ZNSt3__122__compressed_pair_elemINS_9allocatorIN6Blocks5BlockEEELi1ELb1EEC2B7v160006ENS_18__default_init_tagE, symObjAddr: 0x6C5C, symBinAddr: 0x10001E370, symSize: 0x2C }
  - { offsetInCU: 0x1ACFA, offset: 0x69514, size: 0x8, addend: 0x0, symName: __ZNSt3__19allocatorIN6Blocks5BlockEEC2B7v160006Ev, symObjAddr: 0x6C88, symBinAddr: 0x10001E39C, symSize: 0x2C }
  - { offsetInCU: 0x1AD23, offset: 0x6953D, size: 0x8, addend: 0x0, symName: __ZNSt3__116__non_trivial_ifILb1ENS_9allocatorIN6Blocks5BlockEEEEC2B7v160006Ev, symObjAddr: 0x6CB4, symBinAddr: 0x10001E3C8, symSize: 0x14 }
  - { offsetInCU: 0x1AD4C, offset: 0x69566, size: 0x8, addend: 0x0, symName: __ZNKSt3__16vectorINS0_IiNS_9allocatorIiEEEENS1_IS3_EEE20__throw_out_of_rangeB7v160006Ev, symObjAddr: 0x6CC8, symBinAddr: 0x10001E3DC, symSize: 0x1C }
  - { offsetInCU: 0x1AD70, offset: 0x6958A, size: 0x8, addend: 0x0, symName: __ZNSt3__16vectorIiNS_9allocatorIiEEEC2ERKS3_, symObjAddr: 0x6DC8, symBinAddr: 0x10001E3F8, symSize: 0x114 }
  - { offsetInCU: 0x1ADCE, offset: 0x695E8, size: 0x8, addend: 0x0, symName: __ZNSt3__116allocator_traitsINS_9allocatorIiEEE37select_on_container_copy_constructionB7v160006IS2_vvEES2_RKS2_, symObjAddr: 0x6EDC, symBinAddr: 0x10001E50C, symSize: 0x10 }
  - { offsetInCU: 0x1AE02, offset: 0x6961C, size: 0x8, addend: 0x0, symName: __ZNSt3__117__compressed_pairIPiNS_9allocatorIiEEEC1B7v160006IDnS3_EEOT_OT0_, symObjAddr: 0x6EEC, symBinAddr: 0x10001E51C, symSize: 0x3C }
  - { offsetInCU: 0x1AE59, offset: 0x69673, size: 0x8, addend: 0x0, symName: __ZNSt3__16vectorIiNS_9allocatorIiEEE16__destroy_vectorC1ERS3_, symObjAddr: 0x6F68, symBinAddr: 0x10001E598, symSize: 0x34 }
  - { offsetInCU: 0x1AE91, offset: 0x696AB, size: 0x8, addend: 0x0, symName: __ZNSt3__128__exception_guard_exceptionsINS_6vectorIiNS_9allocatorIiEEE16__destroy_vectorEE10__completeB7v160006Ev, symObjAddr: 0x6FAC, symBinAddr: 0x10001E5DC, symSize: 0x1C }
  - { offsetInCU: 0x1AEB6, offset: 0x696D0, size: 0x8, addend: 0x0, symName: __ZNSt3__128__exception_guard_exceptionsINS_6vectorIiNS_9allocatorIiEEE16__destroy_vectorEED1B7v160006Ev, symObjAddr: 0x6FC8, symBinAddr: 0x10001E5F8, symSize: 0x2C }
  - { offsetInCU: 0x1AEDF, offset: 0x696F9, size: 0x8, addend: 0x0, symName: __ZNSt3__117__compressed_pairIPiNS_9allocatorIiEEEC2B7v160006IDnS3_EEOT_OT0_, symObjAddr: 0x6FF4, symBinAddr: 0x10001E624, symSize: 0x44 }
  - { offsetInCU: 0x1AF36, offset: 0x69750, size: 0x8, addend: 0x0, symName: __ZNSt3__122__compressed_pair_elemIPiLi0ELb0EEC2B7v160006IDnvEEOT_, symObjAddr: 0x7038, symBinAddr: 0x10001E668, symSize: 0x1C }
  - { offsetInCU: 0x1AF77, offset: 0x69791, size: 0x8, addend: 0x0, symName: __ZNSt3__122__compressed_pair_elemINS_9allocatorIiEELi1ELb1EEC2B7v160006IS2_vEEOT_, symObjAddr: 0x7054, symBinAddr: 0x10001E684, symSize: 0x18 }
  - { offsetInCU: 0x1AFB8, offset: 0x697D2, size: 0x8, addend: 0x0, symName: __ZNSt3__128__exception_guard_exceptionsINS_6vectorIiNS_9allocatorIiEEE16__destroy_vectorEEC1B7v160006ES5_, symObjAddr: 0x706C, symBinAddr: 0x10001E69C, symSize: 0x34 }
  - { offsetInCU: 0x1AFEF, offset: 0x69809, size: 0x8, addend: 0x0, symName: __ZNSt3__128__exception_guard_exceptionsINS_6vectorIiNS_9allocatorIiEEE16__destroy_vectorEEC2B7v160006ES5_, symObjAddr: 0x70A0, symBinAddr: 0x10001E6D0, symSize: 0x24 }
  - { offsetInCU: 0x1B026, offset: 0x69840, size: 0x8, addend: 0x0, symName: __ZNSt3__16vectorIiNS_9allocatorIiEEE16__destroy_vectorC2ERS3_, symObjAddr: 0x70C4, symBinAddr: 0x10001E6F4, symSize: 0x20 }
  - { offsetInCU: 0x1B05E, offset: 0x69878, size: 0x8, addend: 0x0, symName: __ZNSt3__128__exception_guard_exceptionsINS_6vectorIiNS_9allocatorIiEEE16__destroy_vectorEED2B7v160006Ev, symObjAddr: 0x70E4, symBinAddr: 0x10001E714, symSize: 0x50 }
  - { offsetInCU: 0x1B087, offset: 0x698A1, size: 0x8, addend: 0x0, symName: __ZNSt3__16vectorIiNS_9allocatorIiEEE16__destroy_vectorclB7v160006Ev, symObjAddr: 0x7134, symBinAddr: 0x10001E764, symSize: 0x9C }
  - { offsetInCU: 0x1B0AB, offset: 0x698C5, size: 0x8, addend: 0x0, symName: __ZNKSt3__16vectorIiNS_9allocatorIiEEE17__annotate_deleteB7v160006Ev, symObjAddr: 0x71D0, symBinAddr: 0x10001E800, symSize: 0xB8 }
  - { offsetInCU: 0x1B0CF, offset: 0x698E9, size: 0x8, addend: 0x0, symName: __ZNSt3__16vectorIN6Blocks5BlockENS_9allocatorIS2_EEE9__end_capB7v160006Ev, symObjAddr: 0x7298, symBinAddr: 0x10001E8C8, symSize: 0x28 }
  - { offsetInCU: 0x1B0F8, offset: 0x69912, size: 0x8, addend: 0x0, symName: __ZNSt3__16vectorIN6Blocks5BlockENS_9allocatorIS2_EEE22__construct_one_at_endB7v160006IJS2_EEEvDpOT_, symObjAddr: 0x72C0, symBinAddr: 0x10001E8F0, symSize: 0x90 }
  - { offsetInCU: 0x1B145, offset: 0x6995F, size: 0x8, addend: 0x0, symName: __ZNSt3__16vectorIN6Blocks5BlockENS_9allocatorIS2_EEE21__push_back_slow_pathIS2_EEvOT_, symObjAddr: 0x7350, symBinAddr: 0x10001E980, symSize: 0xD8 }
  - { offsetInCU: 0x1B1A2, offset: 0x699BC, size: 0x8, addend: 0x0, symName: __ZNSt3__117__compressed_pairIPN6Blocks5BlockENS_9allocatorIS2_EEE5firstB7v160006Ev, symObjAddr: 0x7428, symBinAddr: 0x10001EA58, symSize: 0x24 }
  - { offsetInCU: 0x1B1C6, offset: 0x699E0, size: 0x8, addend: 0x0, symName: __ZNSt3__122__compressed_pair_elemIPN6Blocks5BlockELi0ELb0EE5__getB7v160006Ev, symObjAddr: 0x744C, symBinAddr: 0x10001EA7C, symSize: 0x14 }
  - { offsetInCU: 0x1B204, offset: 0x69A1E, size: 0x8, addend: 0x0, symName: __ZNSt3__16vectorIN6Blocks5BlockENS_9allocatorIS2_EEE21_ConstructTransactionC1B7v160006ERS5_m, symObjAddr: 0x7460, symBinAddr: 0x10001EA90, symSize: 0x3C }
  - { offsetInCU: 0x1B24B, offset: 0x69A65, size: 0x8, addend: 0x0, symName: __ZNSt3__116allocator_traitsINS_9allocatorIN6Blocks5BlockEEEE9constructB7v160006IS3_JS3_EvEEvRS4_PT_DpOT0_, symObjAddr: 0x749C, symBinAddr: 0x10001EACC, symSize: 0x34 }
  - { offsetInCU: 0x1B2A2, offset: 0x69ABC, size: 0x8, addend: 0x0, symName: __ZNSt3__16vectorIN6Blocks5BlockENS_9allocatorIS2_EEE7__allocB7v160006Ev, symObjAddr: 0x74D0, symBinAddr: 0x10001EB00, symSize: 0x28 }
  - { offsetInCU: 0x1B2C6, offset: 0x69AE0, size: 0x8, addend: 0x0, symName: __ZNSt3__16vectorIN6Blocks5BlockENS_9allocatorIS2_EEE21_ConstructTransactionD1B7v160006Ev, symObjAddr: 0x750C, symBinAddr: 0x10001EB3C, symSize: 0x2C }
  - { offsetInCU: 0x1B2EF, offset: 0x69B09, size: 0x8, addend: 0x0, symName: __ZNSt3__16vectorIN6Blocks5BlockENS_9allocatorIS2_EEE21_ConstructTransactionC2B7v160006ERS5_m, symObjAddr: 0x7538, symBinAddr: 0x10001EB68, symSize: 0x44 }
  - { offsetInCU: 0x1B336, offset: 0x69B50, size: 0x8, addend: 0x0, symName: __ZNSt3__19allocatorIN6Blocks5BlockEE9constructB7v160006IS2_JS2_EEEvPT_DpOT0_, symObjAddr: 0x757C, symBinAddr: 0x10001EBAC, symSize: 0x28 }
  - { offsetInCU: 0x1B38B, offset: 0x69BA5, size: 0x8, addend: 0x0, symName: __ZNSt3__117__compressed_pairIPN6Blocks5BlockENS_9allocatorIS2_EEE6secondB7v160006Ev, symObjAddr: 0x75A4, symBinAddr: 0x10001EBD4, symSize: 0x24 }
  - { offsetInCU: 0x1B3AF, offset: 0x69BC9, size: 0x8, addend: 0x0, symName: __ZNSt3__122__compressed_pair_elemINS_9allocatorIN6Blocks5BlockEEELi1ELb1EE5__getB7v160006Ev, symObjAddr: 0x75C8, symBinAddr: 0x10001EBF8, symSize: 0x14 }
  - { offsetInCU: 0x1B3D4, offset: 0x69BEE, size: 0x8, addend: 0x0, symName: __ZNSt3__16vectorIN6Blocks5BlockENS_9allocatorIS2_EEE21_ConstructTransactionD2B7v160006Ev, symObjAddr: 0x75DC, symBinAddr: 0x10001EC0C, symSize: 0x20 }
  - { offsetInCU: 0x1B3FD, offset: 0x69C17, size: 0x8, addend: 0x0, symName: __ZNKSt3__16vectorIN6Blocks5BlockENS_9allocatorIS2_EEE11__recommendB7v160006Em, symObjAddr: 0x75FC, symBinAddr: 0x10001EC2C, symSize: 0xB4 }
  - { offsetInCU: 0x1B451, offset: 0x69C6B, size: 0x8, addend: 0x0, symName: __ZNSt3__114__split_bufferIN6Blocks5BlockERNS_9allocatorIS2_EEEC1EmmS5_, symObjAddr: 0x76B0, symBinAddr: 0x10001ECE0, symSize: 0x44 }
  - { offsetInCU: 0x1B4A6, offset: 0x69CC0, size: 0x8, addend: 0x0, symName: __ZNSt3__114__split_bufferIN6Blocks5BlockERNS_9allocatorIS2_EEED1Ev, symObjAddr: 0x780C, symBinAddr: 0x10001EE3C, symSize: 0x2C }
  - { offsetInCU: 0x1B4D1, offset: 0x69CEB, size: 0x8, addend: 0x0, symName: __ZNKSt3__16vectorIN6Blocks5BlockENS_9allocatorIS2_EEE8max_sizeEv, symObjAddr: 0x7838, symBinAddr: 0x10001EE68, symSize: 0x60 }
  - { offsetInCU: 0x1B4F8, offset: 0x69D12, size: 0x8, addend: 0x0, symName: __ZNKSt3__16vectorIN6Blocks5BlockENS_9allocatorIS2_EEE20__throw_length_errorB7v160006Ev, symObjAddr: 0x7898, symBinAddr: 0x10001EEC8, symSize: 0x1C }
  - { offsetInCU: 0x1B51C, offset: 0x69D36, size: 0x8, addend: 0x0, symName: __ZNKSt3__16vectorIN6Blocks5BlockENS_9allocatorIS2_EEE8capacityB7v160006Ev, symObjAddr: 0x78B4, symBinAddr: 0x10001EEE4, symSize: 0x40 }
  - { offsetInCU: 0x1B54A, offset: 0x69D64, size: 0x8, addend: 0x0, symName: __ZNSt3__116allocator_traitsINS_9allocatorIN6Blocks5BlockEEEE8max_sizeB7v160006IS4_vEEmRKS4_, symObjAddr: 0x78F4, symBinAddr: 0x10001EF24, symSize: 0x24 }
  - { offsetInCU: 0x1B578, offset: 0x69D92, size: 0x8, addend: 0x0, symName: __ZNKSt3__16vectorIN6Blocks5BlockENS_9allocatorIS2_EEE7__allocB7v160006Ev, symObjAddr: 0x7918, symBinAddr: 0x10001EF48, symSize: 0x28 }
  - { offsetInCU: 0x1B59C, offset: 0x69DB6, size: 0x8, addend: 0x0, symName: __ZNKSt3__19allocatorIN6Blocks5BlockEE8max_sizeB7v160006Ev, symObjAddr: 0x7940, symBinAddr: 0x10001EF70, symSize: 0x14 }
  - { offsetInCU: 0x1B5C1, offset: 0x69DDB, size: 0x8, addend: 0x0, symName: __ZNKSt3__117__compressed_pairIPN6Blocks5BlockENS_9allocatorIS2_EEE6secondB7v160006Ev, symObjAddr: 0x7954, symBinAddr: 0x10001EF84, symSize: 0x24 }
  - { offsetInCU: 0x1B5E5, offset: 0x69DFF, size: 0x8, addend: 0x0, symName: __ZNKSt3__122__compressed_pair_elemINS_9allocatorIN6Blocks5BlockEEELi1ELb1EE5__getB7v160006Ev, symObjAddr: 0x7978, symBinAddr: 0x10001EFA8, symSize: 0x14 }
  - { offsetInCU: 0x1B60A, offset: 0x69E24, size: 0x8, addend: 0x0, symName: __ZNKSt3__16vectorIN6Blocks5BlockENS_9allocatorIS2_EEE9__end_capB7v160006Ev, symObjAddr: 0x798C, symBinAddr: 0x10001EFBC, symSize: 0x28 }
  - { offsetInCU: 0x1B62E, offset: 0x69E48, size: 0x8, addend: 0x0, symName: __ZNKSt3__117__compressed_pairIPN6Blocks5BlockENS_9allocatorIS2_EEE5firstB7v160006Ev, symObjAddr: 0x79B4, symBinAddr: 0x10001EFE4, symSize: 0x24 }
  - { offsetInCU: 0x1B652, offset: 0x69E6C, size: 0x8, addend: 0x0, symName: __ZNKSt3__122__compressed_pair_elemIPN6Blocks5BlockELi0ELb0EE5__getB7v160006Ev, symObjAddr: 0x79D8, symBinAddr: 0x10001F008, symSize: 0x14 }
  - { offsetInCU: 0x1B677, offset: 0x69E91, size: 0x8, addend: 0x0, symName: __ZNSt3__114__split_bufferIN6Blocks5BlockERNS_9allocatorIS2_EEEC2EmmS5_, symObjAddr: 0x79EC, symBinAddr: 0x10001F01C, symSize: 0xD4 }
  - { offsetInCU: 0x1B6EA, offset: 0x69F04, size: 0x8, addend: 0x0, symName: __ZNSt3__117__compressed_pairIPN6Blocks5BlockERNS_9allocatorIS2_EEEC1B7v160006IDnS6_EEOT_OT0_, symObjAddr: 0x7AC0, symBinAddr: 0x10001F0F0, symSize: 0x3C }
  - { offsetInCU: 0x1B741, offset: 0x69F5B, size: 0x8, addend: 0x0, symName: __ZNSt3__114__split_bufferIN6Blocks5BlockERNS_9allocatorIS2_EEE7__allocB7v160006Ev, symObjAddr: 0x7B3C, symBinAddr: 0x10001F16C, symSize: 0x28 }
  - { offsetInCU: 0x1B765, offset: 0x69F7F, size: 0x8, addend: 0x0, symName: __ZNSt3__114__split_bufferIN6Blocks5BlockERNS_9allocatorIS2_EEE9__end_capB7v160006Ev, symObjAddr: 0x7B64, symBinAddr: 0x10001F194, symSize: 0x28 }
  - { offsetInCU: 0x1B789, offset: 0x69FA3, size: 0x8, addend: 0x0, symName: __ZNSt3__117__compressed_pairIPN6Blocks5BlockERNS_9allocatorIS2_EEEC2B7v160006IDnS6_EEOT_OT0_, symObjAddr: 0x7B8C, symBinAddr: 0x10001F1BC, symSize: 0x48 }
  - { offsetInCU: 0x1B7E0, offset: 0x69FFA, size: 0x8, addend: 0x0, symName: __ZNSt3__122__compressed_pair_elemIRNS_9allocatorIN6Blocks5BlockEEELi1ELb0EEC2B7v160006IS5_vEEOT_, symObjAddr: 0x7BD4, symBinAddr: 0x10001F204, symSize: 0x20 }
  - { offsetInCU: 0x1B821, offset: 0x6A03B, size: 0x8, addend: 0x0, symName: __ZNSt3__19allocatorIN6Blocks5BlockEE8allocateB7v160006Em, symObjAddr: 0x7BF4, symBinAddr: 0x10001F224, symSize: 0x58 }
  - { offsetInCU: 0x1B853, offset: 0x6A06D, size: 0x8, addend: 0x0, symName: __ZNSt3__117__compressed_pairIPN6Blocks5BlockERNS_9allocatorIS2_EEE6secondB7v160006Ev, symObjAddr: 0x7C4C, symBinAddr: 0x10001F27C, symSize: 0x28 }
  - { offsetInCU: 0x1B877, offset: 0x6A091, size: 0x8, addend: 0x0, symName: __ZNSt3__122__compressed_pair_elemIRNS_9allocatorIN6Blocks5BlockEEELi1ELb0EE5__getB7v160006Ev, symObjAddr: 0x7C74, symBinAddr: 0x10001F2A4, symSize: 0x18 }
  - { offsetInCU: 0x1B89C, offset: 0x6A0B6, size: 0x8, addend: 0x0, symName: __ZNSt3__117__compressed_pairIPN6Blocks5BlockERNS_9allocatorIS2_EEE5firstB7v160006Ev, symObjAddr: 0x7C8C, symBinAddr: 0x10001F2BC, symSize: 0x24 }
  - { offsetInCU: 0x1B8C0, offset: 0x6A0DA, size: 0x8, addend: 0x0, symName: __ZNKSt3__16vectorIN6Blocks5BlockENS_9allocatorIS2_EEE17__annotate_deleteB7v160006Ev, symObjAddr: 0x7CB0, symBinAddr: 0x10001F2E0, symSize: 0xB8 }
  - { offsetInCU: 0x1B8E4, offset: 0x6A0FE, size: 0x8, addend: 0x0, symName: __ZNSt3__116reverse_iteratorIPN6Blocks5BlockEEC1B7v160006ES3_, symObjAddr: 0x7DE0, symBinAddr: 0x10001F410, symSize: 0x34 }
  - { offsetInCU: 0x1B91B, offset: 0x6A135, size: 0x8, addend: 0x0, symName: __ZNKSt3__116reverse_iteratorIPN6Blocks5BlockEE4baseB7v160006Ev, symObjAddr: 0x7E14, symBinAddr: 0x10001F444, symSize: 0x18 }
  - { offsetInCU: 0x1B940, offset: 0x6A15A, size: 0x8, addend: 0x0, symName: __ZNKSt3__16vectorIN6Blocks5BlockENS_9allocatorIS2_EEE14__annotate_newB7v160006Em, symObjAddr: 0x7E68, symBinAddr: 0x10001F498, symSize: 0xAC }
  - { offsetInCU: 0x1B973, offset: 0x6A18D, size: 0x8, addend: 0x0, symName: __ZNKSt3__16vectorIN6Blocks5BlockENS_9allocatorIS2_EEE31__annotate_contiguous_containerB7v160006EPKvS7_S7_S7_, symObjAddr: 0x7F24, symBinAddr: 0x10001F554, symSize: 0x20 }
  - { offsetInCU: 0x1B9C8, offset: 0x6A1E2, size: 0x8, addend: 0x0, symName: __ZNKSt3__16vectorIN6Blocks5BlockENS_9allocatorIS2_EEE4dataB7v160006Ev, symObjAddr: 0x7F44, symBinAddr: 0x10001F574, symSize: 0x28 }
  - { offsetInCU: 0x1BA0F, offset: 0x6A229, size: 0x8, addend: 0x0, symName: __ZNKSt3__111__move_loopINS_17_ClassicAlgPolicyEEclB7v160006INS_16reverse_iteratorIPN6Blocks5BlockEEES8_S8_EENS_4pairIT_T1_EESA_T0_SB_, symObjAddr: 0x825C, symBinAddr: 0x10001F88C, symSize: 0xA0 }
  - { offsetInCU: 0x1BA78, offset: 0x6A292, size: 0x8, addend: 0x0, symName: __ZNSt3__18_IterOpsINS_17_ClassicAlgPolicyEE11__iter_moveB7v160006IRNS_16reverse_iteratorIPN6Blocks5BlockEEEEENS_9enable_ifIXsr12is_referenceIDTdeclsr3stdE7declvalIRT_EEEEE5valueEDTclsr3stdE4movedeclsr3stdE7declvalISC_EEEEE4typeEOSB_, symObjAddr: 0x8490, symBinAddr: 0x10001FAC0, symSize: 0x28 }
  - { offsetInCU: 0x1BAA4, offset: 0x6A2BE, size: 0x8, addend: 0x0, symName: __ZNKSt3__116reverse_iteratorIPN6Blocks5BlockEEdeB7v160006Ev, symObjAddr: 0x84B8, symBinAddr: 0x10001FAE8, symSize: 0x28 }
  - { offsetInCU: 0x1BAD8, offset: 0x6A2F2, size: 0x8, addend: 0x0, symName: __ZNSt3__116reverse_iteratorIPN6Blocks5BlockEEppB7v160006Ev, symObjAddr: 0x84E0, symBinAddr: 0x10001FB10, symSize: 0x20 }
  - { offsetInCU: 0x1BAFD, offset: 0x6A317, size: 0x8, addend: 0x0, symName: __ZNSt3__18_IterOpsINS_17_ClassicAlgPolicyEE25__validate_iter_referenceB7v160006IRNS_16reverse_iteratorIPN6Blocks5BlockEEEEEvv, symObjAddr: 0x8500, symBinAddr: 0x10001FB30, symSize: 0x4 }
  - { offsetInCU: 0x1BB1B, offset: 0x6A335, size: 0x8, addend: 0x0, symName: __ZNSt3__118__unwrap_iter_implINS_16reverse_iteratorIPN6Blocks5BlockEEELb0EE8__unwrapB7v160006ES5_, symObjAddr: 0x8504, symBinAddr: 0x10001FB34, symSize: 0x24 }
  - { offsetInCU: 0x1BB43, offset: 0x6A35D, size: 0x8, addend: 0x0, symName: __ZNSt3__14pairINS_16reverse_iteratorIPN6Blocks5BlockEEES5_EC1B7v160006IS5_S5_LPv0EEEOT_OT0_, symObjAddr: 0x8528, symBinAddr: 0x10001FB58, symSize: 0x3C }
  - { offsetInCU: 0x1BBA0, offset: 0x6A3BA, size: 0x8, addend: 0x0, symName: __ZNSt3__14pairINS_16reverse_iteratorIPN6Blocks5BlockEEES5_EC2B7v160006IS5_S5_LPv0EEEOT_OT0_, symObjAddr: 0x8564, symBinAddr: 0x10001FB94, symSize: 0x34 }
  - { offsetInCU: 0x1BBFD, offset: 0x6A417, size: 0x8, addend: 0x0, symName: __ZNSt3__118__unwrap_iter_implINS_16reverse_iteratorIPN6Blocks5BlockEEELb0EE8__rewrapB7v160006ES5_S5_, symObjAddr: 0x8598, symBinAddr: 0x10001FBC8, symSize: 0x2C }
  - { offsetInCU: 0x1BC2B, offset: 0x6A445, size: 0x8, addend: 0x0, symName: __ZNSt3__116reverse_iteratorIPN6Blocks5BlockEEC2B7v160006ES3_, symObjAddr: 0x85C4, symBinAddr: 0x10001FBF4, symSize: 0x28 }
  - { offsetInCU: 0x1BC62, offset: 0x6A47C, size: 0x8, addend: 0x0, symName: __ZNSt3__114__split_bufferIN6Blocks5BlockERNS_9allocatorIS2_EEED2Ev, symObjAddr: 0x85EC, symBinAddr: 0x10001FC1C, symSize: 0x8C }
  - { offsetInCU: 0x1BC8D, offset: 0x6A4A7, size: 0x8, addend: 0x0, symName: __ZNSt3__114__split_bufferIN6Blocks5BlockERNS_9allocatorIS2_EEE5clearB7v160006Ev, symObjAddr: 0x8678, symBinAddr: 0x10001FCA8, symSize: 0x28 }
  - { offsetInCU: 0x1BCB1, offset: 0x6A4CB, size: 0x8, addend: 0x0, symName: __ZNSt3__116allocator_traitsINS_9allocatorIN6Blocks5BlockEEEE10deallocateB7v160006ERS4_PS3_m, symObjAddr: 0x86A0, symBinAddr: 0x10001FCD0, symSize: 0x34 }
  - { offsetInCU: 0x1BCF3, offset: 0x6A50D, size: 0x8, addend: 0x0, symName: __ZNKSt3__114__split_bufferIN6Blocks5BlockERNS_9allocatorIS2_EEE8capacityB7v160006Ev, symObjAddr: 0x86D4, symBinAddr: 0x10001FD04, symSize: 0x40 }
  - { offsetInCU: 0x1BD17, offset: 0x6A531, size: 0x8, addend: 0x0, symName: __ZNSt3__114__split_bufferIN6Blocks5BlockERNS_9allocatorIS2_EEE17__destruct_at_endB7v160006EPS2_, symObjAddr: 0x8714, symBinAddr: 0x10001FD44, symSize: 0x2C }
  - { offsetInCU: 0x1BD49, offset: 0x6A563, size: 0x8, addend: 0x0, symName: __ZNSt3__114__split_bufferIN6Blocks5BlockERNS_9allocatorIS2_EEE17__destruct_at_endB7v160006EPS2_NS_17integral_constantIbLb0EEE, symObjAddr: 0x8740, symBinAddr: 0x10001FD70, symSize: 0x80 }
  - { offsetInCU: 0x1BD89, offset: 0x6A5A3, size: 0x8, addend: 0x0, symName: __ZNSt3__116allocator_traitsINS_9allocatorIN6Blocks5BlockEEEE7destroyB7v160006IS3_vEEvRS4_PT_, symObjAddr: 0x87C0, symBinAddr: 0x10001FDF0, symSize: 0x2C }
  - { offsetInCU: 0x1BDC6, offset: 0x6A5E0, size: 0x8, addend: 0x0, symName: __ZNSt3__19allocatorIN6Blocks5BlockEE7destroyB7v160006EPS2_, symObjAddr: 0x87EC, symBinAddr: 0x10001FE1C, symSize: 0x14 }
  - { offsetInCU: 0x1BDF9, offset: 0x6A613, size: 0x8, addend: 0x0, symName: __ZNSt3__19allocatorIN6Blocks5BlockEE10deallocateB7v160006EPS2_m, symObjAddr: 0x8800, symBinAddr: 0x10001FE30, symSize: 0x40 }
  - { offsetInCU: 0x1BE39, offset: 0x6A653, size: 0x8, addend: 0x0, symName: __ZNKSt3__114__split_bufferIN6Blocks5BlockERNS_9allocatorIS2_EEE9__end_capB7v160006Ev, symObjAddr: 0x8840, symBinAddr: 0x10001FE70, symSize: 0x28 }
  - { offsetInCU: 0x1BE5D, offset: 0x6A677, size: 0x8, addend: 0x0, symName: __ZNKSt3__117__compressed_pairIPN6Blocks5BlockERNS_9allocatorIS2_EEE5firstB7v160006Ev, symObjAddr: 0x8868, symBinAddr: 0x10001FE98, symSize: 0x24 }
  - { offsetInCU: 0x1BE81, offset: 0x6A69B, size: 0x8, addend: 0x0, symName: __ZN6Blocks5BlockC2ERKi, symObjAddr: 0x888C, symBinAddr: 0x10001FEBC, symSize: 0x24 }
